0e1c2000 ffffffff8101264c (02) 6a 4e                    PUSH 0x4e
            store   0xffffffff81773e50 0x0000000001773e50 (8)
0e1c2000 ffffffff8101264e (02) eb 0a                    JMP 0xffffffff8101265a
0e1c2000 ffffffff8101265a (05) e9 a1030000              JMP 0xffffffff81012a00
0e1c2000 ffffffff81012a00 (05) 48 830424 80             ADD QWORD [RSP], -0x80
            load    0xffffffff81773e50 0x0000000001773e50 (8)
            store   0xffffffff81773e50 0x0000000001773e50 (8)
0e1c2000 ffffffff81012a05 (04) 48 83ec 50               SUB RSP, 0x50
0e1c2000 ffffffff81012a09 (05) e8 02f4ffff              CALL 0xffffffff81011e10
            store   0xffffffff81773df8 0x0000000001773df8 (8)
0e1c2000 ffffffff81011e10 (01) fc                       CLD 
0e1c2000 ffffffff81011e11 (05) 48 897c24 50             MOV [RSP+0x50], RDI
            store   0xffffffff81773e48 0x0000000001773e48 (8)
0e1c2000 ffffffff81011e16 (05) 48 897424 48             MOV [RSP+0x48], RSI
            store   0xffffffff81773e40 0x0000000001773e40 (8)
0e1c2000 ffffffff81011e1b (05) 48 895424 40             MOV [RSP+0x40], RDX
            store   0xffffffff81773e38 0x0000000001773e38 (8)
0e1c2000 ffffffff81011e20 (05) 48 894c24 38             MOV [RSP+0x38], RCX
            store   0xffffffff81773e30 0x0000000001773e30 (8)
0e1c2000 ffffffff81011e25 (05) 48 894424 30             MOV [RSP+0x30], RAX
            store   0xffffffff81773e28 0x0000000001773e28 (8)
0e1c2000 ffffffff81011e2a (05) 4c 894424 28             MOV [RSP+0x28], R8
            store   0xffffffff81773e20 0x0000000001773e20 (8)
0e1c2000 ffffffff81011e2f (05) 4c 894c24 20             MOV [RSP+0x20], R9
            store   0xffffffff81773e18 0x0000000001773e18 (8)
0e1c2000 ffffffff81011e34 (05) 4c 895424 18             MOV [RSP+0x18], R10
            store   0xffffffff81773e10 0x0000000001773e10 (8)
0e1c2000 ffffffff81011e39 (05) 4c 895c24 10             MOV [RSP+0x10], R11
            store   0xffffffff81773e08 0x0000000001773e08 (8)
0e1c2000 ffffffff81011e3e (05) 48 8d7c24 e0             LEA RDI, [RSP-0x20]
0e1c2000 ffffffff81011e43 (05) 48 896c24 08             MOV [RSP+0x8], RBP
            store   0xffffffff81773e00 0x0000000001773e00 (8)
0e1c2000 ffffffff81011e48 (05) 48 8d6c24 08             LEA RBP, [RSP+0x8]
0e1c2000 ffffffff81011e4d (10) f787 88000000 03000000   TEST DWORD [RDI+0x88], 0x3
            load    0xffffffff81773e60 0x0000000001773e60 (4)
0e1c2000 ffffffff81011e57 (02) 74 06                    JZ 0xffffffff81011e5f
0e1c2000 ffffffff81011e5f (08) 65 ff0425 90cb0000       INC DWORD GS:[0xcb90]
            load    0xffff8800019f7b90 0x00000000019f7b90 (4)
            store   0xffff8800019f7b90 0x00000000019f7b90 (4)
0e1c2000 ffffffff81011e67 (02) 75 0c                    JNZ 0xffffffff81011e75
0e1c2000 ffffffff81011e69 (01) 58                       POP RAX
            load    0xffffffff81773df8 0x0000000001773df8 (8)
0e1c2000 ffffffff81011e6a (09) 65 48 8b2425 80cb0000    MOV RSP, GS:[0xcb80]
            load    0xffff8800019f7b80 0x00000000019f7b80 (8)
0e1c2000 ffffffff81011e73 (01) 55                       PUSH RBP
            store   0xffff8800019eefb8 0x00000000019eefb8 (8)
0e1c2000 ffffffff81011e74 (01) 50                       PUSH RAX
            store   0xffff8800019eefb0 0x00000000019eefb0 (8)
0e1c2000 ffffffff81011e75 (01) c3                       RET 
            load    0xffff8800019eefb0 0x00000000019eefb0 (8)
0e1c2000 ffffffff81012a0e (05) e8 7d160000              CALL 0xffffffff81014090
            store   0xffff8800019eefb0 0x00000000019eefb0 (8)
0e1c2000 ffffffff81014090 (01) 55                       PUSH RBP
            store   0xffff8800019eefa8 0x00000000019eefa8 (8)
0e1c2000 ffffffff81014091 (03) 48 89e5                  MOV RBP, RSP
0e1c2000 ffffffff81014094 (04) 48 83ec 20               SUB RSP, 0x20
0e1c2000 ffffffff81014098 (04) 48 891c24                MOV [RSP], RBX
            store   0xffff8800019eef88 0x00000000019eef88 (8)
0e1c2000 ffffffff8101409c (05) 4c 896c24 10             MOV [RSP+0x10], R13
            store   0xffff8800019eef98 0x00000000019eef98 (8)
0e1c2000 ffffffff810140a1 (05) 4c 897424 18             MOV [RSP+0x18], R14
            store   0xffff8800019eefa0 0x00000000019eefa0 (8)
0e1c2000 ffffffff810140a6 (05) 4c 896424 08             MOV [RSP+0x8], R12
            store   0xffff8800019eef90 0x00000000019eef90 (8)
0e1c2000 ffffffff810140ab (03) 49 89fe                  MOV R14, RDI
0e1c2000 ffffffff810140ae (09) 65 48 8b1c25 d8c60000    MOV RBX, GS:[0xc6d8]
            load    0xffff8800019f76d8 0x00000000019f76d8 (8)
0e1c2000 ffffffff810140b7 (09) 65 48 893c25 d8c60000    MOV GS:[0xc6d8], RDI
            store   0xffff8800019f76d8 0x00000000019f76d8 (8)
0e1c2000 ffffffff810140c0 (04) 4c 8b67 78               MOV R12, [RDI+0x78]
            load    0xffffffff81773e50 0x0000000001773e50 (8)
0e1c2000 ffffffff810140c4 (05) e8 17ccffff              CALL 0xffffffff81010ce0
            store   0xffff8800019eef80 0x00000000019eef80 (8)
0e1c2000 ffffffff81010ce0 (01) 55                       PUSH RBP
            store   0xffff8800019eef78 0x00000000019eef78 (8)
0e1c2000 ffffffff81010ce1 (09) 65 48 8b0425 c0c60000    MOV RAX, GS:[0xc6c0]
            load    0xffff8800019f76c0 0x00000000019f76c0 (8)
0e1c2000 ffffffff81010cea (06) 8b88 98020000            MOV ECX, [RAX+0x298]
            load    0xffffffff8179a898 0x000000000179a898 (4)
0e1c2000 ffffffff81010cf0 (03) 48 89e5                  MOV RBP, RSP
0e1c2000 ffffffff81010cf3 (02) 85c9                     TEST ECX, ECX
0e1c2000 ffffffff81010cf5 (02) 75 10                    JNZ 0xffffffff81010d07
0e1c2000 ffffffff81010cf7 (10) 65 0fba3425 c8c60000 00  BTR DWORD GS:[0xc6c8], 0x0
            load    0xffff8800019f76c8 0x00000000019f76c8 (4)
            store   0xffff8800019f76c8 0x00000000019f76c8 (4)
0e1c2000 ffffffff81010d01 (02) 19c0                     SBB EAX, EAX
0e1c2000 ffffffff81010d03 (02) 85c0                     TEST EAX, EAX
0e1c2000 ffffffff81010d05 (02) 75 09                    JNZ 0xffffffff81010d10
0e1c2000 ffffffff81010d10 (02) 31d2                     XOR EDX, EDX
0e1c2000 ffffffff81010d12 (05) be 02000000              MOV ESI, 0x2
0e1c2000 ffffffff81010d17 (07) 48 c7c7 a0ff8f81         MOV RDI, -0x7e700060
0e1c2000 ffffffff81010d1e (05) e8 6dbb5100              CALL 0xffffffff8152c890
            store   0xffff8800019eef70 0x00000000019eef70 (8)
0e1c2000 ffffffff8152c890 (01) 55                       PUSH RBP
            store   0xffff8800019eef68 0x00000000019eef68 (8)
0e1c2000 ffffffff8152c891 (04) 48 83c7 08               ADD RDI, 0x8
0e1c2000 ffffffff8152c895 (03) 45 31c0                  XOR R8D, R8D
0e1c2000 ffffffff8152c898 (05) b9 ffffffff              MOV ECX, -0x1
0e1c2000 ffffffff8152c89d (03) 48 89e5                  MOV RBP, RSP
0e1c2000 ffffffff8152c8a0 (05) e8 4bffffff              CALL 0xffffffff8152c7f0
            store   0xffff8800019eef60 0x00000000019eef60 (8)
0e1c2000 ffffffff8152c7f0 (01) 55                       PUSH RBP
            store   0xffff8800019eef58 0x00000000019eef58 (8)
0e1c2000 ffffffff8152c7f1 (03) 48 89e5                  MOV RBP, RSP
0e1c2000 ffffffff8152c7f4 (02) 41 57                    PUSH R15
            store   0xffff8800019eef50 0x00000000019eef50 (8)
0e1c2000 ffffffff8152c7f6 (02) 41 56                    PUSH R14
            store   0xffff8800019eef48 0x00000000019eef48 (8)
0e1c2000 ffffffff8152c7f8 (03) 4d 89c6                  MOV R14, R8
0e1c2000 ffffffff8152c7fb (02) 41 55                    PUSH R13
            store   0xffff8800019eef40 0x00000000019eef40 (8)
0e1c2000 ffffffff8152c7fd (03) 41 89cd                  MOV R13D, ECX
0e1c2000 ffffffff8152c800 (02) 41 54                    PUSH R12
            store   0xffff8800019eef38 0x00000000019eef38 (8)
0e1c2000 ffffffff8152c802 (03) 49 89d4                  MOV R12, RDX
0e1c2000 ffffffff8152c805 (01) 53                       PUSH RBX
            store   0xffff8800019eef30 0x00000000019eef30 (8)
0e1c2000 ffffffff8152c806 (03) 48 89f3                  MOV RBX, RSI
0e1c2000 ffffffff8152c809 (04) 48 83ec 08               SUB RSP, 0x8
0e1c2000 ffffffff8152c80d (03) 45 85ed                  TEST R13D, R13D
0e1c2000 ffffffff8152c810 (03) 48 8b0f                  MOV RCX, [RDI]
            load    0xffffffff818fffa8 0x00000000018fffa8 (8)
0e1c2000 ffffffff8152c813 (02) 75 0b                    JNZ 0xffffffff8152c820
0e1c2000 ffffffff8152c820 (03) 48 85c9                  TEST RCX, RCX
0e1c2000 ffffffff8152c823 (02) 74 f0                    JZ 0xffffffff8152c815
0e1c2000 ffffffff8152c815 (02) 31c0                     XOR EAX, EAX
0e1c2000 ffffffff8152c817 (02) eb 35                    JMP 0xffffffff8152c84e
0e1c2000 ffffffff8152c84e (04) 48 83c4 08               ADD RSP, 0x8
0e1c2000 ffffffff8152c852 (01) 5b                       POP RBX
            load    0xffff8800019eef30 0x00000000019eef30 (8)
0e1c2000 ffffffff8152c853 (02) 41 5c                    POP R12
            load    0xffff8800019eef38 0x00000000019eef38 (8)
0e1c2000 ffffffff8152c855 (02) 41 5d                    POP R13
            load    0xffff8800019eef40 0x00000000019eef40 (8)
0e1c2000 ffffffff8152c857 (02) 41 5e                    POP R14
            load    0xffff8800019eef48 0x00000000019eef48 (8)
0e1c2000 ffffffff8152c859 (02) 41 5f                    POP R15
            load    0xffff8800019eef50 0x00000000019eef50 (8)
0e1c2000 ffffffff8152c85b (01) c9                       LEAVE 
            load    0xffff8800019eef58 0x00000000019eef58 (8)
0e1c2000 ffffffff8152c85c (01) c3                       RET 
            load    0xffff8800019eef60 0x00000000019eef60 (8)
0e1c2000 ffffffff8152c8a5 (01) c9                       LEAVE 
            load    0xffff8800019eef68 0x00000000019eef68 (8)
0e1c2000 ffffffff8152c8a6 (01) c3                       RET 
            load    0xffff8800019eef70 0x00000000019eef70 (8)
0e1c2000 ffffffff81010d23 (01) c9                       LEAVE 
            load    0xffff8800019eef78 0x00000000019eef78 (8)
0e1c2000 ffffffff81010d24 (01) c3                       RET 
            load    0xffff8800019eef80 0x00000000019eef80 (8)
0e1c2000 ffffffff810140c9 (05) e8 42110500              CALL 0xffffffff81065210
            store   0xffff8800019eef80 0x00000000019eef80 (8)
0e1c2000 ffffffff81065210 (01) 55                       PUSH RBP
            store   0xffff8800019eef78 0x00000000019eef78 (8)
0e1c2000 ffffffff81065211 (03) 48 89e5                  MOV RBP, RSP
0e1c2000 ffffffff81065214 (01) 53                       PUSH RBX
            store   0xffff8800019eef70 0x00000000019eef70 (8)
0e1c2000 ffffffff81065215 (04) 48 83ec 08               SUB RSP, 0x8
0e1c2000 ffffffff81065219 (08) 65 8b1c25 68e30000       MOV EBX, GS:[0xe368]
            load    0xffff8800019f9368 0x00000000019f9368 (4)
0e1c2000 ffffffff81065221 (02) 89df                     MOV EDI, EBX
0e1c2000 ffffffff81065223 (05) e8 780bfeff              CALL 0xffffffff81045da0
            store   0xffff8800019eef60 0x00000000019eef60 (8)
0e1c2000 ffffffff81045da0 (03) 48 63ff                  MOVSXD RDI, EDI
0e1c2000 ffffffff81045da3 (01) 55                       PUSH RBP
            store   0xffff8800019eef58 0x00000000019eef58 (8)
0e1c2000 ffffffff81045da4 (07) 48 c7c0 80580100         MOV RAX, 0x15880
0e1c2000 ffffffff81045dab (08) 48 8b14fd 20ea8181       MOV RDX, [RDI*8-0x7e7e15e0]
            load    0xffffffff8181ea20 0x000000000181ea20 (8)
0e1c2000 ffffffff81045db3 (03) 48 89e5                  MOV RBP, RSP
0e1c2000 ffffffff81045db6 (08) 48 8b8c10 38080000       MOV RCX, [RAX+RDX+0x838]
            load    0xffff880001a010b8 0x0000000001a010b8 (8)
0e1c2000 ffffffff81045dbe (08) 48 398c10 30080000       CMP [RAX+RDX+0x830], RCX
            load    0xffff880001a010b0 0x0000000001a010b0 (8)
0e1c2000 ffffffff81045dc6 (01) c9                       LEAVE 
            load    0xffff8800019eef58 0x00000000019eef58 (8)
0e1c2000 ffffffff81045dc7 (03) 0f94c0                   SETZ AL
0e1c2000 ffffffff81045dca (03) 0fb6c0                   MOVZX EAX, AL
0e1c2000 ffffffff81045dcd (01) c3                       RET 
            load    0xffff8800019eef60 0x00000000019eef60 (8)
0e1c2000 ffffffff81065228 (02) 85c0                     TEST EAX, EAX
0e1c2000 ffffffff8106522a (02) 74 18                    JZ 0xffffffff81065244
0e1c2000 ffffffff8106522c (09) 65 48 8b0425 88cb0000    MOV RAX, GS:[0xcb88]
            load    0xffff8800019f7b88 0x00000000019f7b88 (8)
0e1c2000 ffffffff81065235 (07) 48 6390 44e0ffff         MOVSXD RDX, [RAX-0x1fbc]
            load    0xffffffff8177201c 0x000000000177201c (4)
0e1c2000 ffffffff8106523c (06) f7c2 00ffff07            TEST EDX, 0x7ffff00
0e1c2000 ffffffff81065242 (02) 74 1c                    JZ 0xffffffff81065260
0e1c2000 ffffffff81065260 (10) 8180 44e0ffff 00000100   ADD DWORD [RAX-0x1fbc], 0x10000
            load    0xffffffff8177201c 0x000000000177201c (4)
            store   0xffffffff8177201c 0x000000000177201c (4)
0e1c2000 ffffffff8106526a (02) 89df                     MOV EDI, EBX
0e1c2000 ffffffff8106526c (05) e8 af210200              CALL 0xffffffff81087420
            store   0xffff8800019eef60 0x00000000019eef60 (8)
0e1c2000 ffffffff81087420 (01) 55                       PUSH RBP
            store   0xffff8800019eef58 0x00000000019eef58 (8)
0e1c2000 ffffffff81087421 (03) 48 89e5                  MOV RBP, RSP
0e1c2000 ffffffff81087424 (01) 53                       PUSH RBX
            store   0xffff8800019eef50 0x00000000019eef50 (8)
0e1c2000 ffffffff81087425 (02) 89fb                     MOV EBX, EDI
0e1c2000 ffffffff81087427 (04) 48 83ec 08               SUB RSP, 0x8
0e1c2000 ffffffff8108742b (05) e8 70ecffff              CALL 0xffffffff810860a0
            store   0xffff8800019eef40 0x00000000019eef40 (8)
0e1c2000 ffffffff810860a0 (01) 55                       PUSH RBP
            store   0xffff8800019eef38 0x00000000019eef38 (8)
0e1c2000 ffffffff810860a1 (03) 48 89e5                  MOV RBP, RSP
0e1c2000 ffffffff810860a4 (07) 0fa33d fdbe8c00          BT [RIP+0x8cbefd], EDI
            load    0xffffffff81951fa8 0x0000000001951fa8 (4)
0e1c2000 ffffffff810860ab (02) 19c0                     SBB EAX, EAX
0e1c2000 ffffffff810860ad (02) 85c0                     TEST EAX, EAX
0e1c2000 ffffffff810860af (02) 75 07                    JNZ 0xffffffff810860b8
0e1c2000 ffffffff810860b1 (01) c9                       LEAVE 
            load    0xffff8800019eef38 0x00000000019eef38 (8)
0e1c2000 ffffffff810860b2 (01) c3                       RET 
            load    0xffff8800019eef40 0x00000000019eef40 (8)
0e1c2000 ffffffff81087430 (02) 89df                     MOV EDI, EBX
0e1c2000 ffffffff81087432 (07) 48 c7c3 60020100         MOV RBX, 0x10260
0e1c2000 ffffffff81087439 (05) e8 82ffffff              CALL 0xffffffff810873c0
            store   0xffff8800019eef40 0x00000000019eef40 (8)
0e1c2000 ffffffff810873c0 (01) 55                       PUSH RBP
            store   0xffff8800019eef38 0x00000000019eef38 (8)
0e1c2000 ffffffff810873c1 (03) 48 63ff                  MOVSXD RDI, EDI
0e1c2000 ffffffff810873c4 (03) 48 89e5                  MOV RBP, RSP
0e1c2000 ffffffff810873c7 (01) 53                       PUSH RBX
            store   0xffff8800019eef30 0x00000000019eef30 (8)
0e1c2000 ffffffff810873c8 (07) 48 c7c3 60020100         MOV RBX, 0x10260
0e1c2000 ffffffff810873cf (04) 48 83ec 08               SUB RSP, 0x8
0e1c2000 ffffffff810873d3 (08) 48 031cfd 20ea8181       ADD RBX, [RDI*8-0x7e7e15e0]
            load    0xffffffff8181ea20 0x000000000181ea20 (8)
0e1c2000 ffffffff810873db (07) 44 8b9b a8000000         MOV R11D, [RBX+0xa8]
            load    0xffff8800019fb308 0x00000000019fb308 (4)
0e1c2000 ffffffff810873e2 (03) 45 85db                  TEST R11D, R11D
0e1c2000 ffffffff810873e5 (02) 74 2e                    JZ 0xffffffff81087415
0e1c2000 ffffffff810873e7 (05) e8 0457ffff              CALL 0xffffffff8107caf0
            store   0xffff8800019eef20 0x00000000019eef20 (8)
0e1c2000 ffffffff8107caf0 (01) 55                       PUSH RBP
            store   0xffff8800019eef18 0x00000000019eef18 (8)
0e1c2000 ffffffff8107caf1 (03) 48 89e5                  MOV RBP, RSP
0e1c2000 ffffffff8107caf4 (04) 48 83ec 10               SUB RSP, 0x10
0e1c2000 ffffffff8107caf8 (04) 48 8d7d f0               LEA RDI, [RBP-0x10]
0e1c2000 ffffffff8107cafc (05) e8 7fffffff              CALL 0xffffffff8107ca80
            store   0xffff8800019eef00 0x00000000019eef00 (8)
0e1c2000 ffffffff8107ca80 (01) 55                       PUSH RBP
            store   0xffff8800019eeef8 0x00000000019eeef8 (8)
0e1c2000 ffffffff8107ca81 (03) 48 89e5                  MOV RBP, RSP
0e1c2000 ffffffff8107ca84 (02) 41 54                    PUSH R12
            store   0xffff8800019eeef0 0x00000000019eeef0 (8)
0e1c2000 ffffffff8107ca86 (07) 44 8b25 f3867100         MOV R12D, [RIP+0x7186f3]
            load    0xffffffff81795180 0x0000000001795180 (4)
0e1c2000 ffffffff8107ca8d (01) 53                       PUSH RBX
            store   0xffff8800019eeee8 0x00000000019eeee8 (8)
0e1c2000 ffffffff8107ca8e (03) 48 89fb                  MOV RBX, RDI
0e1c2000 ffffffff8107ca91 (02) eb 08                    JMP 0xffffffff8107ca9b
0e1c2000 ffffffff8107ca9b (04) 41 f6c4 01               TEST R12B, 0x1
0e1c2000 ffffffff8107ca9f (02) 75 35                    JNZ 0xffffffff8107cad6
0e1c2000 ffffffff8107caa1 (03) 48 89df                  MOV RDI, RBX
0e1c2000 ffffffff8107caa4 (05) e8 47560000              CALL 0xffffffff810820f0
            store   0xffff8800019eeee0 0x00000000019eeee0 (8)
0e1c2000 ffffffff810820f0 (01) 55                       PUSH RBP
            store   0xffff8800019eeed8 0x00000000019eeed8 (8)
0e1c2000 ffffffff810820f1 (06) 8b05 c9cf7900            MOV EAX, [RIP+0x79cfc9]
            load    0xffffffff8181f0c0 0x000000000181f0c0 (4)
0e1c2000 ffffffff810820f7 (03) 48 89e5                  MOV RBP, RSP
0e1c2000 ffffffff810820fa (02) 41 54                    PUSH R12
            store   0xffff8800019eeed0 0x00000000019eeed0 (8)
0e1c2000 ffffffff810820fc (02) 85c0                     TEST EAX, EAX
0e1c2000 ffffffff810820fe (01) 53                       PUSH RBX
            store   0xffff8800019eeec8 0x00000000019eeec8 (8)
0e1c2000 ffffffff810820ff (03) 48 89fb                  MOV RBX, RDI
0e1c2000 ffffffff81082102 (06) 0f85 a9000000            JNZ 0xffffffff810821b1
0e1c2000 ffffffff81082108 (07) 44 8b25 71307100         MOV R12D, [RIP+0x713071]
            load    0xffffffff81795180 0x0000000001795180 (4)
0e1c2000 ffffffff8108210f (02) eb 0a                    JMP 0xffffffff8108211b
0e1c2000 ffffffff8108211b (04) 41 f6c4 01               TEST R12B, 0x1
0e1c2000 ffffffff8108211f (06) 0f85 85000000            JNZ 0xffffffff810821aa
0e1c2000 ffffffff81082125 (07) 48 8b05 14fc8c00         MOV RAX, [RIP+0x8cfc14]
            load    0xffffffff81951d40 0x0000000001951d40 (8)
0e1c2000 ffffffff8108212c (03) 48 8903                  MOV [RBX], RAX
            store   0xffff8800019eef08 0x00000000019eef08 (8)
0e1c2000 ffffffff8108212f (07) 48 8b05 12fc8c00         MOV RAX, [RIP+0x8cfc12]
            load    0xffffffff81951d48 0x0000000001951d48 (8)
0e1c2000 ffffffff81082136 (04) 48 8943 08               MOV [RBX+0x8], RAX
            store   0xffff8800019eef10 0x00000000019eef10 (8)
0e1c2000 ffffffff8108213a (07) 48 8b05 1ffc8c00         MOV RAX, [RIP+0x8cfc1f]
            load    0xffffffff81951d60 0x0000000001951d60 (8)
0e1c2000 ffffffff81082141 (03) 48 89c7                  MOV RDI, RAX
0e1c2000 ffffffff81082144 (03) ff50 20                  CALL [RAX+0x20]
            load    0xffffffff8179d8a0 0x000000000179d8a0 (8)
            store   0xffff8800019eeec0 0x00000000019eeec0 (8)
0e1c2000 ffffffff81018bc0 (01) 55                       PUSH RBP
            store   0xffff8800019eeeb8 0x00000000019eeeb8 (8)
0e1c2000 ffffffff81018bc1 (03) 48 89e5                  MOV RBP, RSP
0e1c2000 ffffffff81018bc4 (05) e8 f7090000              CALL 0xffffffff810195c0
            store   0xffff8800019eeeb0 0x00000000019eeeb0 (8)
0e1c2000 ffffffff810195c0 (01) 55                       PUSH RBP
            store   0xffff8800019eeea8 0x00000000019eeea8 (8)
0e1c2000 ffffffff810195c1 (03) 48 89e5                  MOV RBP, RSP
0e1c2000 ffffffff810195c4 (02) 0f31                     RDTSC 
0e1c2000 ffffffff810195c6 (02) 89c1                     MOV ECX, EAX
0e1c2000 ffffffff810195c8 (03) 48 89d0                  MOV RAX, RDX
0e1c2000 ffffffff810195cb (04) 48 c1e0 20               SHL RAX, 0x20
0e1c2000 ffffffff810195cf (02) 89c9                     MOV ECX, ECX
0e1c2000 ffffffff810195d1 (03) 48 09c8                  OR RAX, RCX
0e1c2000 ffffffff810195d4 (01) c9                       LEAVE 
            load    0xffff8800019eeea8 0x00000000019eeea8 (8)
0e1c2000 ffffffff810195d5 (01) c3                       RET 
            load    0xffff8800019eeeb0 0x00000000019eeeb0 (8)
0e1c2000 ffffffff81018bc9 (01) 66                       DB 0x66 
0e1c2000 ffffffff81018bc9 (02) 66 90                    NOP 
0e1c2000 ffffffff81018bcb (07) 48 8b15 2e4d7800         MOV RDX, [RIP+0x784d2e]
            load    0xffffffff8179d900 0x000000000179d900 (8)
0e1c2000 ffffffff81018bd2 (01) c9                       LEAVE 
            load    0xffff8800019eeeb8 0x00000000019eeeb8 (8)
0e1c2000 ffffffff81018bd3 (03) 48 39d0                  CMP RAX, RDX
0e1c2000 ffffffff81018bd6 (04) 48 0f42c2                CMOVB RAX, RDX
0e1c2000 ffffffff81018bda (01) c3                       RET 
            load    0xffff8800019eeec0 0x00000000019eeec0 (8)
0e1c2000 ffffffff81082147 (07) 48 8b15 12fc8c00         MOV RDX, [RIP+0x8cfc12]
            load    0xffffffff81951d60 0x0000000001951d60 (8)
0e1c2000 ffffffff8108214e (07) 48 2b82 80000000         SUB RAX, [RDX+0x80]
            load    0xffffffff8179d900 0x000000000179d900 (8)
0e1c2000 ffffffff81082155 (03) 8b4a 40                  MOV ECX, [RDX+0x40]
            load    0xffffffff8179d8c0 0x000000000179d8c0 (4)
0e1c2000 ffffffff81082158 (04) 48 2342 38               AND RAX, [RDX+0x38]
            load    0xffffffff8179d8b8 0x000000000179d8b8 (8)
0e1c2000 ffffffff8108215c (04) 48 0fafc1                IMUL RAX, RCX
0e1c2000 ffffffff81082160 (03) 8b4a 48                  MOV ECX, [RDX+0x48]
            load    0xffffffff8179d8c8 0x000000000179d8c8 (4)
0e1c2000 ffffffff81082163 (03) 48 d3e8                  SHR RAX, CL
0e1c2000 ffffffff81082166 (06) 8b15 14307100            MOV EDX, [RIP+0x713014]
            load    0xffffffff81795180 0x0000000001795180 (4)
0e1c2000 ffffffff8108216c (03) 44 39e2                  CMP EDX, R12D
0e1c2000 ffffffff8108216f (02) 75 a7                    JNZ 0xffffffff81082118
0e1c2000 ffffffff81082171 (04) 48 0343 08               ADD RAX, [RBX+0x8]
            load    0xffff8800019eef10 0x00000000019eef10 (8)
0e1c2000 ffffffff81082175 (02) 31d2                     XOR EDX, EDX
0e1c2000 ffffffff81082177 (02) 31c9                     XOR ECX, ECX
0e1c2000 ffffffff81082179 (03) 48 8b33                  MOV RSI, [RBX]
            load    0xffff8800019eef08 0x00000000019eef08 (8)
0e1c2000 ffffffff8108217c (06) 48 3d ffc99a3b           CMP RAX, 0x3b9ac9ff
0e1c2000 ffffffff81082182 (02) 76 17                    JBE 0xffffffff8108219b
0e1c2000 ffffffff8108219b (03) 48 01f1                  ADD RCX, RSI
0e1c2000 ffffffff8108219e (04) 48 8943 08               MOV [RBX+0x8], RAX
            store   0xffff8800019eef10 0x00000000019eef10 (8)
0e1c2000 ffffffff810821a2 (03) 48 890b                  MOV [RBX], RCX
            store   0xffff8800019eef08 0x00000000019eef08 (8)
0e1c2000 ffffffff810821a5 (01) 5b                       POP RBX
            load    0xffff8800019eeec8 0x00000000019eeec8 (8)
0e1c2000 ffffffff810821a6 (02) 41 5c                    POP R12
            load    0xffff8800019eeed0 0x00000000019eeed0 (8)
0e1c2000 ffffffff810821a8 (01) c9                       LEAVE 
            load    0xffff8800019eeed8 0x00000000019eeed8 (8)
0e1c2000 ffffffff810821a9 (01) c3                       RET 
            load    0xffff8800019eeee0 0x00000000019eeee0 (8)
0e1c2000 ffffffff8107caa9 (07) 48 8b35 a0528d00         MOV RSI, [RIP+0x8d52a0]
            load    0xffffffff81951d50 0x0000000001951d50 (8)
0e1c2000 ffffffff8107cab0 (07) 48 8b15 a1528d00         MOV RDX, [RIP+0x8d52a1]
            load    0xffffffff81951d58 0x0000000001951d58 (8)
0e1c2000 ffffffff8107cab7 (06) 8b05 c3867100            MOV EAX, [RIP+0x7186c3]
            load    0xffffffff81795180 0x0000000001795180 (4)
0e1c2000 ffffffff8107cabd (03) 44 39e0                  CMP EAX, R12D
0e1c2000 ffffffff8107cac0 (02) 75 d6                    JNZ 0xffffffff8107ca98
0e1c2000 ffffffff8107cac2 (04) 48 0353 08               ADD RDX, [RBX+0x8]
            load    0xffff8800019eef10 0x00000000019eef10 (8)
0e1c2000 ffffffff8107cac6 (03) 48 0333                  ADD RSI, [RBX]
            load    0xffff8800019eef08 0x00000000019eef08 (8)
0e1c2000 ffffffff8107cac9 (03) 48 89df                  MOV RDI, RBX
0e1c2000 ffffffff8107cacc (05) e8 df6bfeff              CALL 0xffffffff810636b0
            store   0xffff8800019eeee0 0x00000000019eeee0 (8)
0e1c2000 ffffffff810636b0 (01) 55                       PUSH RBP
            store   0xffff8800019eeed8 0x00000000019eeed8 (8)
0e1c2000 ffffffff810636b1 (07) 48 81fa ffc99a3b         CMP RDX, 0x3b9ac9ff
0e1c2000 ffffffff810636b8 (03) 48 89e5                  MOV RBP, RSP
0e1c2000 ffffffff810636bb (02) 7e 17                    JLE 0xffffffff810636d4
0e1c2000 ffffffff810636bd (03) 0f1f00                   NOP DWORD [RAX]
0e1c2000 ffffffff810636c0 (07) 48 81ea 00ca9a3b         SUB RDX, 0x3b9aca00
0e1c2000 ffffffff810636c7 (04) 48 83c6 01               ADD RSI, 0x1
0e1c2000 ffffffff810636cb (07) 48 81fa ffc99a3b         CMP RDX, 0x3b9ac9ff
0e1c2000 ffffffff810636d2 (02) 7f ec                    JG 0xffffffff810636c0
0e1c2000 ffffffff810636d4 (03) 48 85d2                  TEST RDX, RDX
0e1c2000 ffffffff810636d7 (02) 79 14                    JNS 0xffffffff810636ed
0e1c2000 ffffffff810636ed (03) 48 8937                  MOV [RDI], RSI
            store   0xffff8800019eef08 0x00000000019eef08 (8)
0e1c2000 ffffffff810636f0 (04) 48 8957 08               MOV [RDI+0x8], RDX
            store   0xffff8800019eef10 0x00000000019eef10 (8)
0e1c2000 ffffffff810636f4 (01) c9                       LEAVE 
            load    0xffff8800019eeed8 0x00000000019eeed8 (8)
0e1c2000 ffffffff810636f5 (01) c3                       RET 
            load    0xffff8800019eeee0 0x00000000019eeee0 (8)
0e1c2000 ffffffff8107cad1 (01) 5b                       POP RBX
            load    0xffff8800019eeee8 0x00000000019eeee8 (8)
0e1c2000 ffffffff8107cad2 (02) 41 5c                    POP R12
            load    0xffff8800019eeef0 0x00000000019eeef0 (8)
0e1c2000 ffffffff8107cad4 (01) c9                       LEAVE 
            load    0xffff8800019eeef8 0x00000000019eeef8 (8)
0e1c2000 ffffffff8107cad5 (01) c3                       RET 
            load    0xffff8800019eef00 0x00000000019eef00 (8)
0e1c2000 ffffffff8107cb01 (04) 48 8b55 f0               MOV RDX, [RBP-0x10]
            load    0xffff8800019eef08 0x00000000019eef08 (8)
0e1c2000 ffffffff8107cb05 (10) 48 b9 037dc12502000000   MOV RCX, 0x225c17d03
0e1c2000 ffffffff8107cb0f (04) 48 8b45 f8               MOV RAX, [RBP-0x8]
            load    0xffff8800019eef10 0x00000000019eef10 (8)
0e1c2000 ffffffff8107cb13 (03) 48 39ca                  CMP RDX, RCX
0e1c2000 ffffffff8107cb16 (02) 7f 0d                    JG 0xffffffff8107cb25
0e1c2000 ffffffff8107cb18 (07) 48 69d2 00ca9a3b         IMUL RDX, RDX, 0x3b9aca00
0e1c2000 ffffffff8107cb1f (01) c9                       LEAVE 
            load    0xffff8800019eef18 0x00000000019eef18 (8)
0e1c2000 ffffffff8107cb20 (04) 48 8d0402                LEA RAX, [RDX+RAX]
0e1c2000 ffffffff8107cb24 (01) c3                       RET 
            load    0xffff8800019eef20 0x00000000019eef20 (8)
0e1c2000 ffffffff810873ec (07) 48 8b93 b0000000         MOV RDX, [RBX+0xb0]
            load    0xffff8800019fb310 0x00000000019fb310 (8)
0e1c2000 ffffffff810873f3 (07) 48 8983 d0000000         MOV [RBX+0xd0], RAX
            store   0xffff8800019fb330 0x00000000019fb330 (8)
0e1c2000 ffffffff810873fa (02) 31ff                     XOR EDI, EDI
0e1c2000 ffffffff810873fc (10) c783 a8000000 00000000   MOV DWORD [RBX+0xa8], 0x0
            store   0xffff8800019fb308 0x00000000019fb308 (4)
0e1c2000 ffffffff81087406 (03) 48 29d0                  SUB RAX, RDX
0e1c2000 ffffffff81087409 (07) 48 0183 c8000000         ADD [RBX+0xc8], RAX
            load    0xffff8800019fb328 0x00000000019fb328 (8)
            store   0xffff8800019fb328 0x00000000019fb328 (8)
0e1c2000 ffffffff81087410 (05) e8 bb75ffff              CALL 0xffffffff8107e9d0
            store   0xffff8800019eef20 0x00000000019eef20 (8)
0e1c2000 ffffffff8107e9d0 (01) 55                       PUSH RBP
            store   0xffff8800019eef18 0x00000000019eef18 (8)
0e1c2000 ffffffff8107e9d1 (06) 8b35 e9067a00            MOV ESI, [RIP+0x7a06e9]
            load    0xffffffff8181f0c0 0x000000000181f0c0 (4)
0e1c2000 ffffffff8107e9d7 (03) 48 89e5                  MOV RBP, RSP
0e1c2000 ffffffff8107e9da (02) 85f6                     TEST ESI, ESI
0e1c2000 ffffffff8107e9dc (02) 74 02                    JZ 0xffffffff8107e9e0
0e1c2000 ffffffff8107e9e0 (05) e8 1bffffff              CALL 0xffffffff8107e900
            store   0xffff8800019eef10 0x00000000019eef10 (8)
0e1c2000 ffffffff8107e900 (01) 55                       PUSH RBP
            store   0xffff8800019eef08 0x00000000019eef08 (8)
0e1c2000 ffffffff8107e901 (03) 48 89e5                  MOV RBP, RSP
0e1c2000 ffffffff8107e904 (04) 48 83ec 20               SUB RSP, 0x20
0e1c2000 ffffffff8107e908 (04) 48 891c24                MOV [RSP], RBX
            store   0xffff8800019eeee8 0x00000000019eeee8 (8)
0e1c2000 ffffffff8107e90c (06) 8b1d 9a077a00            MOV EBX, [RIP+0x7a079a]
            load    0xffffffff8181f0ac 0x000000000181f0ac (4)
0e1c2000 ffffffff8107e912 (05) 4c 896424 08             MOV [RSP+0x8], R12
            store   0xffff8800019eeef0 0x00000000019eeef0 (8)
0e1c2000 ffffffff8107e917 (05) 4c 896c24 10             MOV [RSP+0x10], R13
            store   0xffff8800019eeef8 0x00000000019eeef8 (8)
0e1c2000 ffffffff8107e91c (05) 4c 897424 18             MOV [RSP+0x18], R14
            store   0xffff8800019eef00 0x00000000019eef00 (8)
0e1c2000 ffffffff8107e921 (02) 85db                     TEST EBX, EBX
0e1c2000 ffffffff8107e923 (02) 75 60                    JNZ 0xffffffff8107e985
0e1c2000 ffffffff8107e925 (06) 8b0d 7d077a00            MOV ECX, [RIP+0x7a077d]
            load    0xffffffff8181f0a8 0x000000000181f0a8 (4)
0e1c2000 ffffffff8107e92b (02) 85c9                     TEST ECX, ECX
0e1c2000 ffffffff8107e92d (02) 74 56                    JZ 0xffffffff8107e985
0e1c2000 ffffffff8107e92f (01) 9c                       PUSHF 
            store   0xffff8800019eeee0 0x00000000019eeee0 (8)
0e1c2000 ffffffff8107e930 (01) 58                       POP RAX
            load    0xffff8800019eeee0 0x00000000019eeee0 (8)
0e1c2000 ffffffff8107e931 (01) 66                       DB 0x66 
0e1c2000 ffffffff8107e932 (01) 66                       DB 0x66 
0e1c2000 ffffffff8107e932 (02) 66 90                    NOP 
0e1c2000 ffffffff8107e934 (01) 66                       DB 0x66 
0e1c2000 ffffffff8107e934 (02) 66 90                    NOP 
0e1c2000 ffffffff8107e936 (03) f6c4 02                  TEST AH, 0x2
0e1c2000 ffffffff8107e939 (02) 75 5f                    JNZ 0xffffffff8107e99a
0e1c2000 ffffffff8107e93b (09) 65 48 8b1c25 60e30000    MOV RBX, GS:[0xe360]
            load    0xffff8800019f9360 0x00000000019f9360 (8)
0e1c2000 ffffffff8107e944 (07) 48 c7c0 40620100         MOV RAX, 0x16240
0e1c2000 ffffffff8107e94b (03) 48 01c3                  ADD RBX, RAX
0e1c2000 ffffffff8107e94e (05) e8 9de1ffff              CALL 0xffffffff8107caf0
            store   0xffff8800019eeee0 0x00000000019eeee0 (8)
0e1c2000 ffffffff8107caf0 (01) 55                       PUSH RBP
            store   0xffff8800019eeed8 0x00000000019eeed8 (8)
0e1c2000 ffffffff8107caf1 (03) 48 89e5                  MOV RBP, RSP
0e1c2000 ffffffff8107caf4 (04) 48 83ec 10               SUB RSP, 0x10
0e1c2000 ffffffff8107caf8 (04) 48 8d7d f0               LEA RDI, [RBP-0x10]
0e1c2000 ffffffff8107cafc (05) e8 7fffffff              CALL 0xffffffff8107ca80
            store   0xffff8800019eeec0 0x00000000019eeec0 (8)
0e1c2000 ffffffff8107ca80 (01) 55                       PUSH RBP
            store   0xffff8800019eeeb8 0x00000000019eeeb8 (8)
0e1c2000 ffffffff8107ca81 (03) 48 89e5                  MOV RBP, RSP
0e1c2000 ffffffff8107ca84 (02) 41 54                    PUSH R12
            store   0xffff8800019eeeb0 0x00000000019eeeb0 (8)
0e1c2000 ffffffff8107ca86 (07) 44 8b25 f3867100         MOV R12D, [RIP+0x7186f3]
            load    0xffffffff81795180 0x0000000001795180 (4)
0e1c2000 ffffffff8107ca8d (01) 53                       PUSH RBX
            store   0xffff8800019eeea8 0x00000000019eeea8 (8)
0e1c2000 ffffffff8107ca8e (03) 48 89fb                  MOV RBX, RDI
0e1c2000 ffffffff8107ca91 (02) eb 08                    JMP 0xffffffff8107ca9b
0e1c2000 ffffffff8107ca9b (04) 41 f6c4 01               TEST R12B, 0x1
0e1c2000 ffffffff8107ca9f (02) 75 35                    JNZ 0xffffffff8107cad6
0e1c2000 ffffffff8107caa1 (03) 48 89df                  MOV RDI, RBX
0e1c2000 ffffffff8107caa4 (05) e8 47560000              CALL 0xffffffff810820f0
            store   0xffff8800019eeea0 0x00000000019eeea0 (8)
0e1c2000 ffffffff810820f0 (01) 55                       PUSH RBP
            store   0xffff8800019eee98 0x00000000019eee98 (8)
0e1c2000 ffffffff810820f1 (06) 8b05 c9cf7900            MOV EAX, [RIP+0x79cfc9]
            load    0xffffffff8181f0c0 0x000000000181f0c0 (4)
0e1c2000 ffffffff810820f7 (03) 48 89e5                  MOV RBP, RSP
0e1c2000 ffffffff810820fa (02) 41 54                    PUSH R12
            store   0xffff8800019eee90 0x00000000019eee90 (8)
0e1c2000 ffffffff810820fc (02) 85c0                     TEST EAX, EAX
0e1c2000 ffffffff810820fe (01) 53                       PUSH RBX
            store   0xffff8800019eee88 0x00000000019eee88 (8)
0e1c2000 ffffffff810820ff (03) 48 89fb                  MOV RBX, RDI
0e1c2000 ffffffff81082102 (06) 0f85 a9000000            JNZ 0xffffffff810821b1
0e1c2000 ffffffff81082108 (07) 44 8b25 71307100         MOV R12D, [RIP+0x713071]
            load    0xffffffff81795180 0x0000000001795180 (4)
0e1c2000 ffffffff8108210f (02) eb 0a                    JMP 0xffffffff8108211b
0e1c2000 ffffffff8108211b (04) 41 f6c4 01               TEST R12B, 0x1
0e1c2000 ffffffff8108211f (06) 0f85 85000000            JNZ 0xffffffff810821aa
0e1c2000 ffffffff81082125 (07) 48 8b05 14fc8c00         MOV RAX, [RIP+0x8cfc14]
            load    0xffffffff81951d40 0x0000000001951d40 (8)
0e1c2000 ffffffff8108212c (03) 48 8903                  MOV [RBX], RAX
            store   0xffff8800019eeec8 0x00000000019eeec8 (8)
0e1c2000 ffffffff8108212f (07) 48 8b05 12fc8c00         MOV RAX, [RIP+0x8cfc12]
            load    0xffffffff81951d48 0x0000000001951d48 (8)
0e1c2000 ffffffff81082136 (04) 48 8943 08               MOV [RBX+0x8], RAX
            store   0xffff8800019eeed0 0x00000000019eeed0 (8)
0e1c2000 ffffffff8108213a (07) 48 8b05 1ffc8c00         MOV RAX, [RIP+0x8cfc1f]
            load    0xffffffff81951d60 0x0000000001951d60 (8)
0e1c2000 ffffffff81082141 (03) 48 89c7                  MOV RDI, RAX
0e1c2000 ffffffff81082144 (03) ff50 20                  CALL [RAX+0x20]
            load    0xffffffff8179d8a0 0x000000000179d8a0 (8)
            store   0xffff8800019eee80 0x00000000019eee80 (8)
0e1c2000 ffffffff81018bc0 (01) 55                       PUSH RBP
            store   0xffff8800019eee78 0x00000000019eee78 (8)
0e1c2000 ffffffff81018bc1 (03) 48 89e5                  MOV RBP, RSP
0e1c2000 ffffffff81018bc4 (05) e8 f7090000              CALL 0xffffffff810195c0
            store   0xffff8800019eee70 0x00000000019eee70 (8)
0e1c2000 ffffffff810195c0 (01) 55                       PUSH RBP
            store   0xffff8800019eee68 0x00000000019eee68 (8)
0e1c2000 ffffffff810195c1 (03) 48 89e5                  MOV RBP, RSP
0e1c2000 ffffffff810195c4 (02) 0f31                     RDTSC 
0e1c2000 ffffffff810195c6 (02) 89c1                     MOV ECX, EAX
0e1c2000 ffffffff810195c8 (03) 48 89d0                  MOV RAX, RDX
0e1c2000 ffffffff810195cb (04) 48 c1e0 20               SHL RAX, 0x20
0e1c2000 ffffffff810195cf (02) 89c9                     MOV ECX, ECX
0e1c2000 ffffffff810195d1 (03) 48 09c8                  OR RAX, RCX
0e1c2000 ffffffff810195d4 (01) c9                       LEAVE 
            load    0xffff8800019eee68 0x00000000019eee68 (8)
0e1c2000 ffffffff810195d5 (01) c3                       RET 
            load    0xffff8800019eee70 0x00000000019eee70 (8)
0e1c2000 ffffffff81018bc9 (01) 66                       DB 0x66 
0e1c2000 ffffffff81018bc9 (02) 66 90                    NOP 
0e1c2000 ffffffff81018bcb (07) 48 8b15 2e4d7800         MOV RDX, [RIP+0x784d2e]
            load    0xffffffff8179d900 0x000000000179d900 (8)
0e1c2000 ffffffff81018bd2 (01) c9                       LEAVE 
            load    0xffff8800019eee78 0x00000000019eee78 (8)
0e1c2000 ffffffff81018bd3 (03) 48 39d0                  CMP RAX, RDX
0e1c2000 ffffffff81018bd6 (04) 48 0f42c2                CMOVB RAX, RDX
0e1c2000 ffffffff81018bda (01) c3                       RET 
            load    0xffff8800019eee80 0x00000000019eee80 (8)
0e1c2000 ffffffff81082147 (07) 48 8b15 12fc8c00         MOV RDX, [RIP+0x8cfc12]
            load    0xffffffff81951d60 0x0000000001951d60 (8)
0e1c2000 ffffffff8108214e (07) 48 2b82 80000000         SUB RAX, [RDX+0x80]
            load    0xffffffff8179d900 0x000000000179d900 (8)
0e1c2000 ffffffff81082155 (03) 8b4a 40                  MOV ECX, [RDX+0x40]
            load    0xffffffff8179d8c0 0x000000000179d8c0 (4)
0e1c2000 ffffffff81082158 (04) 48 2342 38               AND RAX, [RDX+0x38]
            load    0xffffffff8179d8b8 0x000000000179d8b8 (8)
0e1c2000 ffffffff8108215c (04) 48 0fafc1                IMUL RAX, RCX
0e1c2000 ffffffff81082160 (03) 8b4a 48                  MOV ECX, [RDX+0x48]
            load    0xffffffff8179d8c8 0x000000000179d8c8 (4)
0e1c2000 ffffffff81082163 (03) 48 d3e8                  SHR RAX, CL
0e1c2000 ffffffff81082166 (06) 8b15 14307100            MOV EDX, [RIP+0x713014]
            load    0xffffffff81795180 0x0000000001795180 (4)
0e1c2000 ffffffff8108216c (03) 44 39e2                  CMP EDX, R12D
0e1c2000 ffffffff8108216f (02) 75 a7                    JNZ 0xffffffff81082118
0e1c2000 ffffffff81082171 (04) 48 0343 08               ADD RAX, [RBX+0x8]
            load    0xffff8800019eeed0 0x00000000019eeed0 (8)
0e1c2000 ffffffff81082175 (02) 31d2                     XOR EDX, EDX
0e1c2000 ffffffff81082177 (02) 31c9                     XOR ECX, ECX
0e1c2000 ffffffff81082179 (03) 48 8b33                  MOV RSI, [RBX]
            load    0xffff8800019eeec8 0x00000000019eeec8 (8)
0e1c2000 ffffffff8108217c (06) 48 3d ffc99a3b           CMP RAX, 0x3b9ac9ff
0e1c2000 ffffffff81082182 (02) 76 17                    JBE 0xffffffff8108219b
0e1c2000 ffffffff8108219b (03) 48 01f1                  ADD RCX, RSI
0e1c2000 ffffffff8108219e (04) 48 8943 08               MOV [RBX+0x8], RAX
            store   0xffff8800019eeed0 0x00000000019eeed0 (8)
0e1c2000 ffffffff810821a2 (03) 48 890b                  MOV [RBX], RCX
            store   0xffff8800019eeec8 0x00000000019eeec8 (8)
0e1c2000 ffffffff810821a5 (01) 5b                       POP RBX
            load    0xffff8800019eee88 0x00000000019eee88 (8)
0e1c2000 ffffffff810821a6 (02) 41 5c                    POP R12
            load    0xffff8800019eee90 0x00000000019eee90 (8)
0e1c2000 ffffffff810821a8 (01) c9                       LEAVE 
            load    0xffff8800019eee98 0x00000000019eee98 (8)
0e1c2000 ffffffff810821a9 (01) c3                       RET 
            load    0xffff8800019eeea0 0x00000000019eeea0 (8)
0e1c2000 ffffffff8107caa9 (07) 48 8b35 a0528d00         MOV RSI, [RIP+0x8d52a0]
            load    0xffffffff81951d50 0x0000000001951d50 (8)
0e1c2000 ffffffff8107cab0 (07) 48 8b15 a1528d00         MOV RDX, [RIP+0x8d52a1]
            load    0xffffffff81951d58 0x0000000001951d58 (8)
0e1c2000 ffffffff8107cab7 (06) 8b05 c3867100            MOV EAX, [RIP+0x7186c3]
            load    0xffffffff81795180 0x0000000001795180 (4)
0e1c2000 ffffffff8107cabd (03) 44 39e0                  CMP EAX, R12D
0e1c2000 ffffffff8107cac0 (02) 75 d6                    JNZ 0xffffffff8107ca98
0e1c2000 ffffffff8107cac2 (04) 48 0353 08               ADD RDX, [RBX+0x8]
            load    0xffff8800019eeed0 0x00000000019eeed0 (8)
0e1c2000 ffffffff8107cac6 (03) 48 0333                  ADD RSI, [RBX]
            load    0xffff8800019eeec8 0x00000000019eeec8 (8)
0e1c2000 ffffffff8107cac9 (03) 48 89df                  MOV RDI, RBX
0e1c2000 ffffffff8107cacc (05) e8 df6bfeff              CALL 0xffffffff810636b0
            store   0xffff8800019eeea0 0x00000000019eeea0 (8)
0e1c2000 ffffffff810636b0 (01) 55                       PUSH RBP
            store   0xffff8800019eee98 0x00000000019eee98 (8)
0e1c2000 ffffffff810636b1 (07) 48 81fa ffc99a3b         CMP RDX, 0x3b9ac9ff
0e1c2000 ffffffff810636b8 (03) 48 89e5                  MOV RBP, RSP
0e1c2000 ffffffff810636bb (02) 7e 17                    JLE 0xffffffff810636d4
0e1c2000 ffffffff810636bd (03) 0f1f00                   NOP DWORD [RAX]
0e1c2000 ffffffff810636c0 (07) 48 81ea 00ca9a3b         SUB RDX, 0x3b9aca00
0e1c2000 ffffffff810636c7 (04) 48 83c6 01               ADD RSI, 0x1
0e1c2000 ffffffff810636cb (07) 48 81fa ffc99a3b         CMP RDX, 0x3b9ac9ff
0e1c2000 ffffffff810636d2 (02) 7f ec                    JG 0xffffffff810636c0
0e1c2000 ffffffff810636d4 (03) 48 85d2                  TEST RDX, RDX
0e1c2000 ffffffff810636d7 (02) 79 14                    JNS 0xffffffff810636ed
0e1c2000 ffffffff810636ed (03) 48 8937                  MOV [RDI], RSI
            store   0xffff8800019eeec8 0x00000000019eeec8 (8)
0e1c2000 ffffffff810636f0 (04) 48 8957 08               MOV [RDI+0x8], RDX
            store   0xffff8800019eeed0 0x00000000019eeed0 (8)
0e1c2000 ffffffff810636f4 (01) c9                       LEAVE 
            load    0xffff8800019eee98 0x00000000019eee98 (8)
0e1c2000 ffffffff810636f5 (01) c3                       RET 
            load    0xffff8800019eeea0 0x00000000019eeea0 (8)
0e1c2000 ffffffff8107cad1 (01) 5b                       POP RBX
            load    0xffff8800019eeea8 0x00000000019eeea8 (8)
0e1c2000 ffffffff8107cad2 (02) 41 5c                    POP R12
            load    0xffff8800019eeeb0 0x00000000019eeeb0 (8)
0e1c2000 ffffffff8107cad4 (01) c9                       LEAVE 
            load    0xffff8800019eeeb8 0x00000000019eeeb8 (8)
0e1c2000 ffffffff8107cad5 (01) c3                       RET 
            load    0xffff8800019eeec0 0x00000000019eeec0 (8)
0e1c2000 ffffffff8107cb01 (04) 48 8b55 f0               MOV RDX, [RBP-0x10]
            load    0xffff8800019eeec8 0x00000000019eeec8 (8)
0e1c2000 ffffffff8107cb05 (10) 48 b9 037dc12502000000   MOV RCX, 0x225c17d03
0e1c2000 ffffffff8107cb0f (04) 48 8b45 f8               MOV RAX, [RBP-0x8]
            load    0xffff8800019eeed0 0x00000000019eeed0 (8)
0e1c2000 ffffffff8107cb13 (03) 48 39ca                  CMP RDX, RCX
0e1c2000 ffffffff8107cb16 (02) 7f 0d                    JG 0xffffffff8107cb25
0e1c2000 ffffffff8107cb18 (07) 48 69d2 00ca9a3b         IMUL RDX, RDX, 0x3b9aca00
0e1c2000 ffffffff8107cb1f (01) c9                       LEAVE 
            load    0xffff8800019eeed8 0x00000000019eeed8 (8)
0e1c2000 ffffffff8107cb20 (04) 48 8d0402                LEA RAX, [RDX+RAX]
0e1c2000 ffffffff8107cb24 (01) c3                       RET 
            load    0xffff8800019eeee0 0x00000000019eeee0 (8)
0e1c2000 ffffffff8107e953 (03) 49 89c5                  MOV R13, RAX
0e1c2000 ffffffff8107e956 (05) e8 35a2f9ff              CALL 0xffffffff81018b90
            store   0xffff8800019eeee0 0x00000000019eeee0 (8)
0e1c2000 ffffffff81018b90 (01) 55                       PUSH RBP
            store   0xffff8800019eeed8 0x00000000019eeed8 (8)
0e1c2000 ffffffff81018b91 (03) 48 89e5                  MOV RBP, RSP
0e1c2000 ffffffff81018b94 (05) e8 57090000              CALL 0xffffffff810194f0
            store   0xffff8800019eeed0 0x00000000019eeed0 (8)
0e1c2000 ffffffff810194f0 (01) 55                       PUSH RBP
            store   0xffff8800019eeec8 0x00000000019eeec8 (8)
0e1c2000 ffffffff810194f1 (07) 44 8b15 b4528000         MOV R10D, [RIP+0x8052b4]
            load    0xffffffff8181e7ac 0x000000000181e7ac (4)
0e1c2000 ffffffff810194f8 (03) 48 89e5                  MOV RBP, RSP
0e1c2000 ffffffff810194fb (03) 45 85d2                  TEST R10D, R10D
0e1c2000 ffffffff810194fe (02) 75 37                    JNZ 0xffffffff81019537
0e1c2000 ffffffff81019500 (05) e8 bb000000              CALL 0xffffffff810195c0
            store   0xffff8800019eeec0 0x00000000019eeec0 (8)
0e1c2000 ffffffff810195c0 (01) 55                       PUSH RBP
            store   0xffff8800019eeeb8 0x00000000019eeeb8 (8)
0e1c2000 ffffffff810195c1 (03) 48 89e5                  MOV RBP, RSP
0e1c2000 ffffffff810195c4 (02) 0f31                     RDTSC 
0e1c2000 ffffffff810195c6 (02) 89c1                     MOV ECX, EAX
0e1c2000 ffffffff810195c8 (03) 48 89d0                  MOV RAX, RDX
0e1c2000 ffffffff810195cb (04) 48 c1e0 20               SHL RAX, 0x20
0e1c2000 ffffffff810195cf (02) 89c9                     MOV ECX, ECX
0e1c2000 ffffffff810195d1 (03) 48 09c8                  OR RAX, RCX
0e1c2000 ffffffff810195d4 (01) c9                       LEAVE 
            load    0xffff8800019eeeb8 0x00000000019eeeb8 (8)
0e1c2000 ffffffff810195d5 (01) c3                       RET 
            load    0xffff8800019eeec0 0x00000000019eeec0 (8)
0e1c2000 ffffffff81019505 (01) 66                       DB 0x66 
0e1c2000 ffffffff81019505 (02) 66 90                    NOP 
0e1c2000 ffffffff81019507 (08) 65 8b0c25 68e30000       MOV ECX, GS:[0xe368]
            load    0xffff8800019f9368 0x00000000019f9368 (4)
0e1c2000 ffffffff8101950f (03) 48 63c9                  MOVSXD RCX, ECX
0e1c2000 ffffffff81019512 (07) 48 c7c2 40cb0000         MOV RDX, 0xcb40
0e1c2000 ffffffff81019519 (08) 48 8b34cd 20ea8181       MOV RSI, [RCX*8-0x7e7e15e0]
            load    0xffffffff8181ea20 0x000000000181ea20 (8)
0e1c2000 ffffffff81019521 (07) 48 c7c1 38cb0000         MOV RCX, 0xcb38
0e1c2000 ffffffff81019528 (05) 48 0faf040e              IMUL RAX, [RSI+RCX]
            load    0xffff8800019f7b38 0x00000000019f7b38 (8)
0e1c2000 ffffffff8101952d (04) 48 c1e8 0a               SHR RAX, 0xa
0e1c2000 ffffffff81019531 (04) 48 030416                ADD RAX, [RSI+RDX]
            load    0xffff8800019f7b40 0x00000000019f7b40 (8)
0e1c2000 ffffffff81019535 (01) c9                       LEAVE 
            load    0xffff8800019eeec8 0x00000000019eeec8 (8)
0e1c2000 ffffffff81019536 (01) c3                       RET 
            load    0xffff8800019eeed0 0x00000000019eeed0 (8)
0e1c2000 ffffffff81018b99 (01) 66                       DB 0x66 
0e1c2000 ffffffff81018b99 (02) 66 90                    NOP 
0e1c2000 ffffffff81018b9b (01) c9                       LEAVE 
            load    0xffff8800019eeed8 0x00000000019eeed8 (8)
0e1c2000 ffffffff81018b9c (01) c3                       RET 
            load    0xffff8800019eeee0 0x00000000019eeee0 (8)
0e1c2000 ffffffff8107e95b (03) 48 89df                  MOV RDI, RBX
0e1c2000 ffffffff8107e95e (03) 49 89c4                  MOV R12, RAX
0e1c2000 ffffffff8107e961 (05) e8 1a7afbff              CALL 0xffffffff81036380
            store   0xffff8800019eeee0 0x00000000019eeee0 (8)
0e1c2000 ffffffff81036380 (01) 55                       PUSH RBP
            store   0xffff8800019eeed8 0x00000000019eeed8 (8)
0e1c2000 ffffffff81036381 (05) b8 00010000              MOV EAX, 0x100
0e1c2000 ffffffff81036386 (03) 48 89e5                  MOV RBP, RSP
0e1c2000 ffffffff81036389 (01) 3e                       DB 0x3e 
0e1c2000 ffffffff81036389 (05) 3e 66 0fc107             XADD [RDI], AX
            load    0xffff880001a01240 0x0000000001a01240 (2)
            store   0xffff880001a01240 0x0000000001a01240 (2)
0e1c2000 ffffffff8103638e (02) 38e0                     CMP AL, AH
0e1c2000 ffffffff81036390 (02) 74 06                    JZ 0xffffffff81036398
0e1c2000 ffffffff81036398 (01) c9                       LEAVE 
            load    0xffff8800019eeed8 0x00000000019eeed8 (8)
0e1c2000 ffffffff81036399 (01) c3                       RET 
            load    0xffff8800019eeee0 0x00000000019eeee0 (8)
0e1c2000 ffffffff8107e966 (01) 66                       DB 0x66 
0e1c2000 ffffffff8107e966 (02) 66 90                    NOP 
0e1c2000 ffffffff8107e968 (03) 48 89df                  MOV RDI, RBX
0e1c2000 ffffffff8107e96b (04) 4c 8963 08               MOV [RBX+0x8], R12
            store   0xffff880001a01248 0x0000000001a01248 (8)
0e1c2000 ffffffff8107e96f (04) 4c 896b 10               MOV [RBX+0x10], R13
            store   0xffff880001a01250 0x0000000001a01250 (8)
0e1c2000 ffffffff8107e973 (03) 4c 89e6                  MOV RSI, R12
0e1c2000 ffffffff8107e976 (05) e8 35fdffff              CALL 0xffffffff8107e6b0
            store   0xffff8800019eeee0 0x00000000019eeee0 (8)
0e1c2000 ffffffff8107e6b0 (02) 31c0                     XOR EAX, EAX
0e1c2000 ffffffff8107e6b2 (04) 48 2b77 08               SUB RSI, [RDI+0x8]
            load    0xffff880001a01248 0x0000000001a01248 (8)
0e1c2000 ffffffff8107e6b6 (04) 48 8b57 10               MOV RDX, [RDI+0x10]
            load    0xffff880001a01250 0x0000000001a01250 (8)
0e1c2000 ffffffff8107e6ba (04) 48 8b4f 18               MOV RCX, [RDI+0x18]
            load    0xffff880001a01258 0x0000000001a01258 (8)
0e1c2000 ffffffff8107e6be (01) 55                       PUSH RBP
            store   0xffff8800019eeed8 0x00000000019eeed8 (8)
0e1c2000 ffffffff8107e6bf (03) 48 89e5                  MOV RBP, RSP
0e1c2000 ffffffff8107e6c2 (04) 48 0f49c6                CMOVNS RAX, RSI
0e1c2000 ffffffff8107e6c6 (03) 48 89d6                  MOV RSI, RDX
0e1c2000 ffffffff8107e6c9 (03) 49 89c8                  MOV R8, RCX
0e1c2000 ffffffff8107e6cc (03) 48 29ce                  SUB RSI, RCX
0e1c2000 ffffffff8107e6cf (03) 48 01d0                  ADD RAX, RDX
0e1c2000 ffffffff8107e6d2 (03) 48 85f6                  TEST RSI, RSI
0e1c2000 ffffffff8107e6d5 (03) 48 89ce                  MOV RSI, RCX
0e1c2000 ffffffff8107e6d8 (04) 48 0f4ff2                CMOVG RSI, RDX
0e1c2000 ffffffff8107e6dc (07) 48 81c2 80969800         ADD RDX, 0x989680
0e1c2000 ffffffff8107e6e3 (03) 49 29d0                  SUB R8, RDX
0e1c2000 ffffffff8107e6e6 (03) 4d 85c0                  TEST R8, R8
0e1c2000 ffffffff8107e6e9 (04) 48 0f4fd1                CMOVG RDX, RCX
0e1c2000 ffffffff8107e6ed (03) 48 89c1                  MOV RCX, RAX
0e1c2000 ffffffff8107e6f0 (03) 48 29f1                  SUB RCX, RSI
0e1c2000 ffffffff8107e6f3 (03) 48 85c9                  TEST RCX, RCX
0e1c2000 ffffffff8107e6f6 (04) 48 0f4ec6                CMOVLE RAX, RSI
0e1c2000 ffffffff8107e6fa (03) 48 39d0                  CMP RAX, RDX
0e1c2000 ffffffff8107e6fd (04) 48 0f49c2                CMOVNS RAX, RDX
0e1c2000 ffffffff8107e701 (04) 48 8947 18               MOV [RDI+0x18], RAX
            store   0xffff880001a01258 0x0000000001a01258 (8)
0e1c2000 ffffffff8107e705 (01) c9                       LEAVE 
            load    0xffff8800019eeed8 0x00000000019eeed8 (8)
0e1c2000 ffffffff8107e706 (01) c3                       RET 
            load    0xffff8800019eeee0 0x00000000019eeee0 (8)
0e1c2000 ffffffff8107e97b (03) 48 89df                  MOV RDI, RBX
0e1c2000 ffffffff8107e97e (05) e8 3d7afbff              CALL 0xffffffff810363c0
            store   0xffff8800019eeee0 0x00000000019eeee0 (8)
0e1c2000 ffffffff810363c0 (01) 55                       PUSH RBP
            store   0xffff8800019eeed8 0x00000000019eeed8 (8)
0e1c2000 ffffffff810363c1 (03) 48 89e5                  MOV RBP, RSP
0e1c2000 ffffffff810363c4 (02) fe07                     INC BYTE [RDI]
            load    0xffff880001a01240 0x0000000001a01240 (1)
            store   0xffff880001a01240 0x0000000001a01240 (1)
0e1c2000 ffffffff810363c6 (01) c9                       LEAVE 
            load    0xffff8800019eeed8 0x00000000019eeed8 (8)
0e1c2000 ffffffff810363c7 (01) c3                       RET 
            load    0xffff8800019eeee0 0x00000000019eeee0 (8)
0e1c2000 ffffffff8107e983 (01) 66                       DB 0x66 
0e1c2000 ffffffff8107e983 (02) 66 90                    NOP 
0e1c2000 ffffffff8107e985 (04) 48 8b1c24                MOV RBX, [RSP]
            load    0xffff8800019eeee8 0x00000000019eeee8 (8)
0e1c2000 ffffffff8107e989 (05) 4c 8b6424 08             MOV R12, [RSP+0x8]
            load    0xffff8800019eeef0 0x00000000019eeef0 (8)
0e1c2000 ffffffff8107e98e (05) 4c 8b6c24 10             MOV R13, [RSP+0x10]
            load    0xffff8800019eeef8 0x00000000019eeef8 (8)
0e1c2000 ffffffff8107e993 (05) 4c 8b7424 18             MOV R14, [RSP+0x18]
            load    0xffff8800019eef00 0x00000000019eef00 (8)
0e1c2000 ffffffff8107e998 (01) c9                       LEAVE 
            load    0xffff8800019eef08 0x00000000019eef08 (8)
0e1c2000 ffffffff8107e999 (01) c3                       RET 
            load    0xffff8800019eef10 0x00000000019eef10 (8)
0e1c2000 ffffffff8107e9e5 (03) 0f1f00                   NOP DWORD [RAX]
0e1c2000 ffffffff8107e9e8 (05) e8 73480300              CALL 0xffffffff810b3260
            store   0xffff8800019eef10 0x00000000019eef10 (8)
0e1c2000 ffffffff810b3260 (01) 55                       PUSH RBP
            store   0xffff8800019eef08 0x00000000019eef08 (8)
0e1c2000 ffffffff810b3261 (07) 48 c7c0 f0030100         MOV RAX, 0x103f0
0e1c2000 ffffffff810b3268 (09) 65 48 8b1425 60e30000    MOV RDX, GS:[0xe360]
            load    0xffff8800019f9360 0x00000000019f9360 (8)
0e1c2000 ffffffff810b3271 (03) 48 89e5                  MOV RBP, RSP
0e1c2000 ffffffff810b3274 (08) 48 c70402 00000000       MOV QWORD [RDX+RAX], 0x0
            store   0xffff8800019fb3f0 0x00000000019fb3f0 (8)
0e1c2000 ffffffff810b327c (01) c9                       LEAVE 
            load    0xffff8800019eef08 0x00000000019eef08 (8)
0e1c2000 ffffffff810b327d (01) c3                       RET 
            load    0xffff8800019eef10 0x00000000019eef10 (8)
0e1c2000 ffffffff8107e9ed (01) c9                       LEAVE 
            load    0xffff8800019eef18 0x00000000019eef18 (8)
0e1c2000 ffffffff8107e9ee (01) 66                       DB 0x66 
0e1c2000 ffffffff8107e9ee (02) 66 90                    NOP 
0e1c2000 ffffffff8107e9f0 (01) c3                       RET 
            load    0xffff8800019eef20 0x00000000019eef20 (8)
0e1c2000 ffffffff81087415 (04) 48 83c4 08               ADD RSP, 0x8
0e1c2000 ffffffff81087419 (01) 5b                       POP RBX
            load    0xffff8800019eef30 0x00000000019eef30 (8)
0e1c2000 ffffffff8108741a (01) c9                       LEAVE 
            load    0xffff8800019eef38 0x00000000019eef38 (8)
0e1c2000 ffffffff8108741b (01) c3                       RET 
            load    0xffff8800019eef40 0x00000000019eef40 (8)
0e1c2000 ffffffff8108743e (08) 65 8b0425 68e30000       MOV EAX, GS:[0xe368]
            load    0xffff8800019f9368 0x00000000019f9368 (4)
0e1c2000 ffffffff81087446 (03) 48 63d0                  MOVSXD RDX, EAX
0e1c2000 ffffffff81087449 (08) 48 031cd5 20ea8181       ADD RBX, [RDX*8-0x7e7e15e0]
            load    0xffffffff8181ea20 0x000000000181ea20 (8)
0e1c2000 ffffffff81087451 (06) 8b93 8c000000            MOV EDX, [RBX+0x8c]
            load    0xffff8800019fb2ec 0x00000000019fb2ec (4)
0e1c2000 ffffffff81087457 (02) 85d2                     TEST EDX, EDX
0e1c2000 ffffffff81087459 (02) 74 3c                    JZ 0xffffffff81087497
0e1c2000 ffffffff8108745b (01) 3e                       DB 0x3e 
0e1c2000 ffffffff8108745b (08) 3e 0fb305 456a8800       BTR [RIP+0x886a45], EAX
            load    0xffffffff8190dea8 0x000000000190dea8 (4)
            store   0xffffffff8190dea8 0x000000000190dea8 (4)
0e1c2000 ffffffff81087463 (05) e8 8856ffff              CALL 0xffffffff8107caf0
            store   0xffff8800019eef40 0x00000000019eef40 (8)
0e1c2000 ffffffff8107caf0 (01) 55                       PUSH RBP
            store   0xffff8800019eef38 0x00000000019eef38 (8)
0e1c2000 ffffffff8107caf1 (03) 48 89e5                  MOV RBP, RSP
0e1c2000 ffffffff8107caf4 (04) 48 83ec 10               SUB RSP, 0x10
0e1c2000 ffffffff8107caf8 (04) 48 8d7d f0               LEA RDI, [RBP-0x10]
0e1c2000 ffffffff8107cafc (05) e8 7fffffff              CALL 0xffffffff8107ca80
            store   0xffff8800019eef20 0x00000000019eef20 (8)
0e1c2000 ffffffff8107ca80 (01) 55                       PUSH RBP
            store   0xffff8800019eef18 0x00000000019eef18 (8)
0e1c2000 ffffffff8107ca81 (03) 48 89e5                  MOV RBP, RSP
0e1c2000 ffffffff8107ca84 (02) 41 54                    PUSH R12
            store   0xffff8800019eef10 0x00000000019eef10 (8)
0e1c2000 ffffffff8107ca86 (07) 44 8b25 f3867100         MOV R12D, [RIP+0x7186f3]
            load    0xffffffff81795180 0x0000000001795180 (4)
0e1c2000 ffffffff8107ca8d (01) 53                       PUSH RBX
            store   0xffff8800019eef08 0x00000000019eef08 (8)
0e1c2000 ffffffff8107ca8e (03) 48 89fb                  MOV RBX, RDI
0e1c2000 ffffffff8107ca91 (02) eb 08                    JMP 0xffffffff8107ca9b
0e1c2000 ffffffff8107ca9b (04) 41 f6c4 01               TEST R12B, 0x1
0e1c2000 ffffffff8107ca9f (02) 75 35                    JNZ 0xffffffff8107cad6
0e1c2000 ffffffff8107caa1 (03) 48 89df                  MOV RDI, RBX
0e1c2000 ffffffff8107caa4 (05) e8 47560000              CALL 0xffffffff810820f0
            store   0xffff8800019eef00 0x00000000019eef00 (8)
0e1c2000 ffffffff810820f0 (01) 55                       PUSH RBP
            store   0xffff8800019eeef8 0x00000000019eeef8 (8)
0e1c2000 ffffffff810820f1 (06) 8b05 c9cf7900            MOV EAX, [RIP+0x79cfc9]
            load    0xffffffff8181f0c0 0x000000000181f0c0 (4)
0e1c2000 ffffffff810820f7 (03) 48 89e5                  MOV RBP, RSP
0e1c2000 ffffffff810820fa (02) 41 54                    PUSH R12
            store   0xffff8800019eeef0 0x00000000019eeef0 (8)
0e1c2000 ffffffff810820fc (02) 85c0                     TEST EAX, EAX
0e1c2000 ffffffff810820fe (01) 53                       PUSH RBX
            store   0xffff8800019eeee8 0x00000000019eeee8 (8)
0e1c2000 ffffffff810820ff (03) 48 89fb                  MOV RBX, RDI
0e1c2000 ffffffff81082102 (06) 0f85 a9000000            JNZ 0xffffffff810821b1
0e1c2000 ffffffff81082108 (07) 44 8b25 71307100         MOV R12D, [RIP+0x713071]
            load    0xffffffff81795180 0x0000000001795180 (4)
0e1c2000 ffffffff8108210f (02) eb 0a                    JMP 0xffffffff8108211b
0e1c2000 ffffffff8108211b (04) 41 f6c4 01               TEST R12B, 0x1
0e1c2000 ffffffff8108211f (06) 0f85 85000000            JNZ 0xffffffff810821aa
0e1c2000 ffffffff81082125 (07) 48 8b05 14fc8c00         MOV RAX, [RIP+0x8cfc14]
            load    0xffffffff81951d40 0x0000000001951d40 (8)
0e1c2000 ffffffff8108212c (03) 48 8903                  MOV [RBX], RAX
            store   0xffff8800019eef28 0x00000000019eef28 (8)
0e1c2000 ffffffff8108212f (07) 48 8b05 12fc8c00         MOV RAX, [RIP+0x8cfc12]
            load    0xffffffff81951d48 0x0000000001951d48 (8)
0e1c2000 ffffffff81082136 (04) 48 8943 08               MOV [RBX+0x8], RAX
            store   0xffff8800019eef30 0x00000000019eef30 (8)
0e1c2000 ffffffff8108213a (07) 48 8b05 1ffc8c00         MOV RAX, [RIP+0x8cfc1f]
            load    0xffffffff81951d60 0x0000000001951d60 (8)
0e1c2000 ffffffff81082141 (03) 48 89c7                  MOV RDI, RAX
0e1c2000 ffffffff81082144 (03) ff50 20                  CALL [RAX+0x20]
            load    0xffffffff8179d8a0 0x000000000179d8a0 (8)
            store   0xffff8800019eeee0 0x00000000019eeee0 (8)
0e1c2000 ffffffff81018bc0 (01) 55                       PUSH RBP
            store   0xffff8800019eeed8 0x00000000019eeed8 (8)
0e1c2000 ffffffff81018bc1 (03) 48 89e5                  MOV RBP, RSP
0e1c2000 ffffffff81018bc4 (05) e8 f7090000              CALL 0xffffffff810195c0
            store   0xffff8800019eeed0 0x00000000019eeed0 (8)
0e1c2000 ffffffff810195c0 (01) 55                       PUSH RBP
            store   0xffff8800019eeec8 0x00000000019eeec8 (8)
0e1c2000 ffffffff810195c1 (03) 48 89e5                  MOV RBP, RSP
0e1c2000 ffffffff810195c4 (02) 0f31                     RDTSC 
0e1c2000 ffffffff810195c6 (02) 89c1                     MOV ECX, EAX
0e1c2000 ffffffff810195c8 (03) 48 89d0                  MOV RAX, RDX
0e1c2000 ffffffff810195cb (04) 48 c1e0 20               SHL RAX, 0x20
0e1c2000 ffffffff810195cf (02) 89c9                     MOV ECX, ECX
0e1c2000 ffffffff810195d1 (03) 48 09c8                  OR RAX, RCX
0e1c2000 ffffffff810195d4 (01) c9                       LEAVE 
            load    0xffff8800019eeec8 0x00000000019eeec8 (8)
0e1c2000 ffffffff810195d5 (01) c3                       RET 
            load    0xffff8800019eeed0 0x00000000019eeed0 (8)
0e1c2000 ffffffff81018bc9 (01) 66                       DB 0x66 
0e1c2000 ffffffff81018bc9 (02) 66 90                    NOP 
0e1c2000 ffffffff81018bcb (07) 48 8b15 2e4d7800         MOV RDX, [RIP+0x784d2e]
            load    0xffffffff8179d900 0x000000000179d900 (8)
0e1c2000 ffffffff81018bd2 (01) c9                       LEAVE 
            load    0xffff8800019eeed8 0x00000000019eeed8 (8)
0e1c2000 ffffffff81018bd3 (03) 48 39d0                  CMP RAX, RDX
0e1c2000 ffffffff81018bd6 (04) 48 0f42c2                CMOVB RAX, RDX
0e1c2000 ffffffff81018bda (01) c3                       RET 
            load    0xffff8800019eeee0 0x00000000019eeee0 (8)
0e1c2000 ffffffff81082147 (07) 48 8b15 12fc8c00         MOV RDX, [RIP+0x8cfc12]
            load    0xffffffff81951d60 0x0000000001951d60 (8)
0e1c2000 ffffffff8108214e (07) 48 2b82 80000000         SUB RAX, [RDX+0x80]
            load    0xffffffff8179d900 0x000000000179d900 (8)
0e1c2000 ffffffff81082155 (03) 8b4a 40                  MOV ECX, [RDX+0x40]
            load    0xffffffff8179d8c0 0x000000000179d8c0 (4)
0e1c2000 ffffffff81082158 (04) 48 2342 38               AND RAX, [RDX+0x38]
            load    0xffffffff8179d8b8 0x000000000179d8b8 (8)
0e1c2000 ffffffff8108215c (04) 48 0fafc1                IMUL RAX, RCX
0e1c2000 ffffffff81082160 (03) 8b4a 48                  MOV ECX, [RDX+0x48]
            load    0xffffffff8179d8c8 0x000000000179d8c8 (4)
0e1c2000 ffffffff81082163 (03) 48 d3e8                  SHR RAX, CL
0e1c2000 ffffffff81082166 (06) 8b15 14307100            MOV EDX, [RIP+0x713014]
            load    0xffffffff81795180 0x0000000001795180 (4)
0e1c2000 ffffffff8108216c (03) 44 39e2                  CMP EDX, R12D
0e1c2000 ffffffff8108216f (02) 75 a7                    JNZ 0xffffffff81082118
0e1c2000 ffffffff81082171 (04) 48 0343 08               ADD RAX, [RBX+0x8]
            load    0xffff8800019eef30 0x00000000019eef30 (8)
0e1c2000 ffffffff81082175 (02) 31d2                     XOR EDX, EDX
0e1c2000 ffffffff81082177 (02) 31c9                     XOR ECX, ECX
0e1c2000 ffffffff81082179 (03) 48 8b33                  MOV RSI, [RBX]
            load    0xffff8800019eef28 0x00000000019eef28 (8)
0e1c2000 ffffffff8108217c (06) 48 3d ffc99a3b           CMP RAX, 0x3b9ac9ff
0e1c2000 ffffffff81082182 (02) 76 17                    JBE 0xffffffff8108219b
0e1c2000 ffffffff8108219b (03) 48 01f1                  ADD RCX, RSI
0e1c2000 ffffffff8108219e (04) 48 8943 08               MOV [RBX+0x8], RAX
            store   0xffff8800019eef30 0x00000000019eef30 (8)
0e1c2000 ffffffff810821a2 (03) 48 890b                  MOV [RBX], RCX
            store   0xffff8800019eef28 0x00000000019eef28 (8)
0e1c2000 ffffffff810821a5 (01) 5b                       POP RBX
            load    0xffff8800019eeee8 0x00000000019eeee8 (8)
0e1c2000 ffffffff810821a6 (02) 41 5c                    POP R12
            load    0xffff8800019eeef0 0x00000000019eeef0 (8)
0e1c2000 ffffffff810821a8 (01) c9                       LEAVE 
            load    0xffff8800019eeef8 0x00000000019eeef8 (8)
0e1c2000 ffffffff810821a9 (01) c3                       RET 
            load    0xffff8800019eef00 0x00000000019eef00 (8)
0e1c2000 ffffffff8107caa9 (07) 48 8b35 a0528d00         MOV RSI, [RIP+0x8d52a0]
            load    0xffffffff81951d50 0x0000000001951d50 (8)
0e1c2000 ffffffff8107cab0 (07) 48 8b15 a1528d00         MOV RDX, [RIP+0x8d52a1]
            load    0xffffffff81951d58 0x0000000001951d58 (8)
0e1c2000 ffffffff8107cab7 (06) 8b05 c3867100            MOV EAX, [RIP+0x7186c3]
            load    0xffffffff81795180 0x0000000001795180 (4)
0e1c2000 ffffffff8107cabd (03) 44 39e0                  CMP EAX, R12D
0e1c2000 ffffffff8107cac0 (02) 75 d6                    JNZ 0xffffffff8107ca98
0e1c2000 ffffffff8107cac2 (04) 48 0353 08               ADD RDX, [RBX+0x8]
            load    0xffff8800019eef30 0x00000000019eef30 (8)
0e1c2000 ffffffff8107cac6 (03) 48 0333                  ADD RSI, [RBX]
            load    0xffff8800019eef28 0x00000000019eef28 (8)
0e1c2000 ffffffff8107cac9 (03) 48 89df                  MOV RDI, RBX
0e1c2000 ffffffff8107cacc (05) e8 df6bfeff              CALL 0xffffffff810636b0
            store   0xffff8800019eef00 0x00000000019eef00 (8)
0e1c2000 ffffffff810636b0 (01) 55                       PUSH RBP
            store   0xffff8800019eeef8 0x00000000019eeef8 (8)
0e1c2000 ffffffff810636b1 (07) 48 81fa ffc99a3b         CMP RDX, 0x3b9ac9ff
0e1c2000 ffffffff810636b8 (03) 48 89e5                  MOV RBP, RSP
0e1c2000 ffffffff810636bb (02) 7e 17                    JLE 0xffffffff810636d4
0e1c2000 ffffffff810636bd (03) 0f1f00                   NOP DWORD [RAX]
0e1c2000 ffffffff810636c0 (07) 48 81ea 00ca9a3b         SUB RDX, 0x3b9aca00
0e1c2000 ffffffff810636c7 (04) 48 83c6 01               ADD RSI, 0x1
0e1c2000 ffffffff810636cb (07) 48 81fa ffc99a3b         CMP RDX, 0x3b9ac9ff
0e1c2000 ffffffff810636d2 (02) 7f ec                    JG 0xffffffff810636c0
0e1c2000 ffffffff810636d4 (03) 48 85d2                  TEST RDX, RDX
0e1c2000 ffffffff810636d7 (02) 79 14                    JNS 0xffffffff810636ed
0e1c2000 ffffffff810636ed (03) 48 8937                  MOV [RDI], RSI
            store   0xffff8800019eef28 0x00000000019eef28 (8)
0e1c2000 ffffffff810636f0 (04) 48 8957 08               MOV [RDI+0x8], RDX
            store   0xffff8800019eef30 0x00000000019eef30 (8)
0e1c2000 ffffffff810636f4 (01) c9                       LEAVE 
            load    0xffff8800019eeef8 0x00000000019eeef8 (8)
0e1c2000 ffffffff810636f5 (01) c3                       RET 
            load    0xffff8800019eef00 0x00000000019eef00 (8)
0e1c2000 ffffffff8107cad1 (01) 5b                       POP RBX
            load    0xffff8800019eef08 0x00000000019eef08 (8)
0e1c2000 ffffffff8107cad2 (02) 41 5c                    POP R12
            load    0xffff8800019eef10 0x00000000019eef10 (8)
0e1c2000 ffffffff8107cad4 (01) c9                       LEAVE 
            load    0xffff8800019eef18 0x00000000019eef18 (8)
0e1c2000 ffffffff8107cad5 (01) c3                       RET 
            load    0xffff8800019eef20 0x00000000019eef20 (8)
0e1c2000 ffffffff8107cb01 (04) 48 8b55 f0               MOV RDX, [RBP-0x10]
            load    0xffff8800019eef28 0x00000000019eef28 (8)
0e1c2000 ffffffff8107cb05 (10) 48 b9 037dc12502000000   MOV RCX, 0x225c17d03
0e1c2000 ffffffff8107cb0f (04) 48 8b45 f8               MOV RAX, [RBP-0x8]
            load    0xffff8800019eef30 0x00000000019eef30 (8)
0e1c2000 ffffffff8107cb13 (03) 48 39ca                  CMP RDX, RCX
0e1c2000 ffffffff8107cb16 (02) 7f 0d                    JG 0xffffffff8107cb25
0e1c2000 ffffffff8107cb18 (07) 48 69d2 00ca9a3b         IMUL RDX, RDX, 0x3b9aca00
0e1c2000 ffffffff8107cb1f (01) c9                       LEAVE 
            load    0xffff8800019eef38 0x00000000019eef38 (8)
0e1c2000 ffffffff8107cb20 (04) 48 8d0402                LEA RAX, [RDX+RAX]
0e1c2000 ffffffff8107cb24 (01) c3                       RET 
            load    0xffff8800019eef40 0x00000000019eef40 (8)
0e1c2000 ffffffff81087468 (07) 48 8983 b8000000         MOV [RBX+0xb8], RAX
            store   0xffff8800019fb318 0x00000000019fb318 (8)
0e1c2000 ffffffff8108746f (03) 48 89c7                  MOV RDI, RAX
0e1c2000 ffffffff81087472 (01) 9c                       PUSHF 
            store   0xffff8800019eef40 0x00000000019eef40 (8)
0e1c2000 ffffffff81087473 (01) 58                       POP RAX
            load    0xffff8800019eef40 0x00000000019eef40 (8)
0e1c2000 ffffffff81087474 (01) 66                       DB 0x66 
0e1c2000 ffffffff81087475 (01) 66                       DB 0x66 
0e1c2000 ffffffff81087475 (02) 66 90                    NOP 
0e1c2000 ffffffff81087477 (01) 66                       DB 0x66 
0e1c2000 ffffffff81087477 (02) 66 90                    NOP 
0e1c2000 ffffffff81087479 (03) 48 89c3                  MOV RBX, RAX
0e1c2000 ffffffff8108747c (01) fa                       CLI 
0e1c2000 ffffffff8108747d (01) 66                       DB 0x66 
0e1c2000 ffffffff8108747e (01) 66                       DB 0x66 
0e1c2000 ffffffff8108747e (02) 66 90                    NOP 
0e1c2000 ffffffff81087480 (01) 66                       DB 0x66 
0e1c2000 ffffffff81087481 (01) 66                       DB 0x66 
0e1c2000 ffffffff81087481 (02) 66 90                    NOP 
0e1c2000 ffffffff81087483 (05) e8 88faffff              CALL 0xffffffff81086f10
            store   0xffff8800019eef40 0x00000000019eef40 (8)
0e1c2000 ffffffff81086f10 (01) 55                       PUSH RBP
            store   0xffff8800019eef38 0x00000000019eef38 (8)
0e1c2000 ffffffff81086f11 (03) 48 89f8                  MOV RAX, RDI
0e1c2000 ffffffff81086f14 (03) 48 89e5                  MOV RBP, RSP
0e1c2000 ffffffff81086f17 (01) 53                       PUSH RBX
            store   0xffff8800019eef30 0x00000000019eef30 (8)
0e1c2000 ffffffff81086f18 (03) 48 89fb                  MOV RBX, RDI
0e1c2000 ffffffff81086f1b (04) 48 83ec 08               SUB RSP, 0x8
0e1c2000 ffffffff81086f1f (07) 48 2b05 92b08c00         SUB RAX, [RIP+0x8cb092]
            load    0xffffffff81951fb8 0x0000000001951fb8 (8)
0e1c2000 ffffffff81086f26 (07) 48 3b05 3bb08c00         CMP RAX, [RIP+0x8cb03b]
            load    0xffffffff81951f68 0x0000000001951f68 (8)
0e1c2000 ffffffff81086f2d (02) 7d 11                    JGE 0xffffffff81086f40
0e1c2000 ffffffff81086f40 (07) 48 c7c7 84517981         MOV RDI, -0x7e86ae7c
0e1c2000 ffffffff81086f47 (05) e8 f42a4a00              CALL 0xffffffff81529a40
            store   0xffff8800019eef20 0x00000000019eef20 (8)
0e1c2000 ffffffff81529a40 (01) 55                       PUSH RBP
            store   0xffff8800019eef18 0x00000000019eef18 (8)
0e1c2000 ffffffff81529a41 (03) 48 89e5                  MOV RBP, RSP
0e1c2000 ffffffff81529a44 (05) e8 37c9b0ff              CALL 0xffffffff81036380
            store   0xffff8800019eef10 0x00000000019eef10 (8)
0e1c2000 ffffffff81036380 (01) 55                       PUSH RBP
            store   0xffff8800019eef08 0x00000000019eef08 (8)
0e1c2000 ffffffff81036381 (05) b8 00010000              MOV EAX, 0x100
0e1c2000 ffffffff81036386 (03) 48 89e5                  MOV RBP, RSP
0e1c2000 ffffffff81036389 (01) 3e                       DB 0x3e 
0e1c2000 ffffffff81036389 (05) 3e 66 0fc107             XADD [RDI], AX
            load    0xffffffff81795184 0x0000000001795184 (2)
            store   0xffffffff81795184 0x0000000001795184 (2)
0e1c2000 ffffffff8103638e (02) 38e0                     CMP AL, AH
0e1c2000 ffffffff81036390 (02) 74 06                    JZ 0xffffffff81036398
0e1c2000 ffffffff81036398 (01) c9                       LEAVE 
            load    0xffff8800019eef08 0x00000000019eef08 (8)
0e1c2000 ffffffff81036399 (01) c3                       RET 
            load    0xffff8800019eef10 0x00000000019eef10 (8)
0e1c2000 ffffffff81529a49 (01) 66                       DB 0x66 
0e1c2000 ffffffff81529a49 (02) 66 90                    NOP 
0e1c2000 ffffffff81529a4b (01) c9                       LEAVE 
            load    0xffff8800019eef18 0x00000000019eef18 (8)
0e1c2000 ffffffff81529a4c (01) c3                       RET 
            load    0xffff8800019eef20 0x00000000019eef20 (8)
0e1c2000 ffffffff81086f4c (07) 8305 2de27000 01         ADD DWORD [RIP+0x70e22d], 0x1
            load    0xffffffff81795180 0x0000000001795180 (4)
            store   0xffffffff81795180 0x0000000001795180 (4)
0e1c2000 ffffffff81086f53 (07) 48 8b35 5eb08c00         MOV RSI, [RIP+0x8cb05e]
            load    0xffffffff81951fb8 0x0000000001951fb8 (8)
0e1c2000 ffffffff81086f5a (07) 48 8b0d 07b08c00         MOV RCX, [RIP+0x8cb007]
            load    0xffffffff81951f68 0x0000000001951f68 (8)
0e1c2000 ffffffff81086f61 (03) 48 29f3                  SUB RBX, RSI
0e1c2000 ffffffff81086f64 (03) 48 39cb                  CMP RBX, RCX
0e1c2000 ffffffff81086f67 (02) 7c 32                    JL 0xffffffff81086f9b
0e1c2000 ffffffff81086f69 (03) 48 29cb                  SUB RBX, RCX
0e1c2000 ffffffff81086f6c (04) 48 8d3431                LEA RSI, [RCX+RSI]
0e1c2000 ffffffff81086f70 (03) 48 39d9                  CMP RCX, RBX
0e1c2000 ffffffff81086f73 (07) 48 8935 3eb08c00         MOV [RIP+0x8cb03e], RSI
            store   0xffffffff81951fb8 0x0000000001951fb8 (8)
0e1c2000 ffffffff81086f7a (02) 7e 3b                    JLE 0xffffffff81086fb7
0e1c2000 ffffffff81086fb7 (03) 48 89da                  MOV RDX, RBX
0e1c2000 ffffffff81086fba (03) 48 89d8                  MOV RAX, RBX
0e1c2000 ffffffff81086fbd (04) 48 c1fa 3f               SAR RDX, 0x3f
0e1c2000 ffffffff81086fc1 (03) 48 f7f9                  IDIV RCX
0e1c2000 ffffffff81086fc4 (04) 48 0fafc8                IMUL RCX, RAX
0e1c2000 ffffffff81086fc8 (04) 48 8d78 01               LEA RDI, [RAX+0x1]
0e1c2000 ffffffff81086fcc (04) 48 8d3431                LEA RSI, [RCX+RSI]
0e1c2000 ffffffff81086fd0 (07) 48 8935 e1af8c00         MOV [RIP+0x8cafe1], RSI
            store   0xffffffff81951fb8 0x0000000001951fb8 (8)
0e1c2000 ffffffff81086fd7 (02) eb a8                    JMP 0xffffffff81086f81
0e1c2000 ffffffff81086f81 (05) e8 5a42feff              CALL 0xffffffff8106b1e0
            store   0xffff8800019eef20 0x00000000019eef20 (8)
0e1c2000 ffffffff8106b1e0 (01) 55                       PUSH RBP
            store   0xffff8800019eef18 0x00000000019eef18 (8)
0e1c2000 ffffffff8106b1e1 (07) 48 013d d8967b00         ADD [RIP+0x7b96d8], RDI
            load    0xffffffff818248c0 0x00000000018248c0 (8)
            store   0xffffffff818248c0 0x00000000018248c0 (8)
0e1c2000 ffffffff8106b1e8 (03) 48 89e5                  MOV RBP, RSP
0e1c2000 ffffffff8106b1eb (05) e8 d0750100              CALL 0xffffffff810827c0
            store   0xffff8800019eef10 0x00000000019eef10 (8)
0e1c2000 ffffffff810827c0 (01) 55                       PUSH RBP
            store   0xffff8800019eef08 0x00000000019eef08 (8)
0e1c2000 ffffffff810827c1 (03) 48 89e5                  MOV RBP, RSP
0e1c2000 ffffffff810827c4 (02) 41 55                    PUSH R13
            store   0xffff8800019eef00 0x00000000019eef00 (8)
0e1c2000 ffffffff810827c6 (02) 41 54                    PUSH R12
            store   0xffff8800019eeef8 0x00000000019eeef8 (8)
0e1c2000 ffffffff810827c8 (01) 53                       PUSH RBX
            store   0xffff8800019eeef0 0x00000000019eeef0 (8)
0e1c2000 ffffffff810827c9 (04) 48 83ec 08               SUB RSP, 0x8
0e1c2000 ffffffff810827cd (06) 8b0d edc87900            MOV ECX, [RIP+0x79c8ed]
            load    0xffffffff8181f0c0 0x000000000181f0c0 (4)
0e1c2000 ffffffff810827d3 (02) 85c9                     TEST ECX, ECX
0e1c2000 ffffffff810827d5 (06) 0f85 13020000            JNZ 0xffffffff810829ee
0e1c2000 ffffffff810827db (07) 48 8b05 7ef58c00         MOV RAX, [RIP+0x8cf57e]
            load    0xffffffff81951d60 0x0000000001951d60 (8)
0e1c2000 ffffffff810827e2 (03) 48 89c7                  MOV RDI, RAX
0e1c2000 ffffffff810827e5 (03) ff50 20                  CALL [RAX+0x20]
            load    0xffffffff8179d8a0 0x000000000179d8a0 (8)
            store   0xffff8800019eeee0 0x00000000019eeee0 (8)
0e1c2000 ffffffff81018bc0 (01) 55                       PUSH RBP
            store   0xffff8800019eeed8 0x00000000019eeed8 (8)
0e1c2000 ffffffff81018bc1 (03) 48 89e5                  MOV RBP, RSP
0e1c2000 ffffffff81018bc4 (05) e8 f7090000              CALL 0xffffffff810195c0
            store   0xffff8800019eeed0 0x00000000019eeed0 (8)
0e1c2000 ffffffff810195c0 (01) 55                       PUSH RBP
            store   0xffff8800019eeec8 0x00000000019eeec8 (8)
0e1c2000 ffffffff810195c1 (03) 48 89e5                  MOV RBP, RSP
0e1c2000 ffffffff810195c4 (02) 0f31                     RDTSC 
0e1c2000 ffffffff810195c6 (02) 89c1                     MOV ECX, EAX
0e1c2000 ffffffff810195c8 (03) 48 89d0                  MOV RAX, RDX
0e1c2000 ffffffff810195cb (04) 48 c1e0 20               SHL RAX, 0x20
0e1c2000 ffffffff810195cf (02) 89c9                     MOV ECX, ECX
0e1c2000 ffffffff810195d1 (03) 48 09c8                  OR RAX, RCX
0e1c2000 ffffffff810195d4 (01) c9                       LEAVE 
            load    0xffff8800019eeec8 0x00000000019eeec8 (8)
0e1c2000 ffffffff810195d5 (01) c3                       RET 
            load    0xffff8800019eeed0 0x00000000019eeed0 (8)
0e1c2000 ffffffff81018bc9 (01) 66                       DB 0x66 
0e1c2000 ffffffff81018bc9 (02) 66 90                    NOP 
0e1c2000 ffffffff81018bcb (07) 48 8b15 2e4d7800         MOV RDX, [RIP+0x784d2e]
            load    0xffffffff8179d900 0x000000000179d900 (8)
0e1c2000 ffffffff81018bd2 (01) c9                       LEAVE 
            load    0xffff8800019eeed8 0x00000000019eeed8 (8)
0e1c2000 ffffffff81018bd3 (03) 48 39d0                  CMP RAX, RDX
0e1c2000 ffffffff81018bd6 (04) 48 0f42c2                CMOVB RAX, RDX
0e1c2000 ffffffff81018bda (01) c3                       RET 
            load    0xffff8800019eeee0 0x00000000019eeee0 (8)
0e1c2000 ffffffff810827e8 (03) 48 89c3                  MOV RBX, RAX
0e1c2000 ffffffff810827eb (07) 48 8b05 6ef58c00         MOV RAX, [RIP+0x8cf56e]
            load    0xffffffff81951d60 0x0000000001951d60 (8)
0e1c2000 ffffffff810827f2 (07) 48 8b15 4ff58c00         MOV RDX, [RIP+0x8cf54f]
            load    0xffffffff81951d48 0x0000000001951d48 (8)
0e1c2000 ffffffff810827f9 (03) 8b48 48                  MOV ECX, [RAX+0x48]
            load    0xffffffff8179d8c8 0x000000000179d8c8 (4)
0e1c2000 ffffffff810827fc (07) 48 2b98 80000000         SUB RBX, [RAX+0x80]
            load    0xffffffff8179d900 0x000000000179d900 (8)
0e1c2000 ffffffff81082803 (04) 48 2358 38               AND RBX, [RAX+0x38]
            load    0xffffffff8179d8b8 0x000000000179d8b8 (8)
0e1c2000 ffffffff81082807 (03) 48 d3e2                  SHL RDX, CL
0e1c2000 ffffffff8108280a (07) 48 8990 88000000         MOV [RAX+0x88], RDX
            store   0xffffffff8179d908 0x000000000179d908 (8)
0e1c2000 ffffffff81082811 (07) 48 8b05 48f58c00         MOV RAX, [RIP+0x8cf548]
            load    0xffffffff81951d60 0x0000000001951d60 (8)
0e1c2000 ffffffff81082818 (04) 48 8b50 68               MOV RDX, [RAX+0x68]
            load    0xffffffff8179d8e8 0x000000000179d8e8 (8)
0e1c2000 ffffffff8108281c (03) 48 39d3                  CMP RBX, RDX
0e1c2000 ffffffff8108281f (06) 0f82 fb000000            JB 0xffffffff81082920
0e1c2000 ffffffff81082920 (03) 48 89df                  MOV RDI, RBX
0e1c2000 ffffffff81082923 (05) e8 68f5ffff              CALL 0xffffffff81081e90
            store   0xffff8800019eeee0 0x00000000019eeee0 (8)
0e1c2000 ffffffff81081e90 (07) 48 8b05 c9fe8c00         MOV RAX, [RIP+0x8cfec9]
            load    0xffffffff81951d60 0x0000000001951d60 (8)
0e1c2000 ffffffff81081e97 (01) 55                       PUSH RBP
            store   0xffff8800019eeed8 0x00000000019eeed8 (8)
0e1c2000 ffffffff81081e98 (05) b9 1f000000              MOV ECX, 0x1f
0e1c2000 ffffffff81081e9d (03) 48 89e5                  MOV RBP, RSP
0e1c2000 ffffffff81081ea0 (07) 4c 8b88 90000000         MOV R9, [RAX+0x90]
            load    0xffffffff8179d910 0x000000000179d910 (8)
0e1c2000 ffffffff81081ea7 (04) 44 8b40 48               MOV R8D, [RAX+0x48]
            load    0xffffffff8179d8c8 0x000000000179d8c8 (4)
0e1c2000 ffffffff81081eab (04) 48 8b50 68               MOV RDX, [RAX+0x68]
            load    0xffffffff8179d8e8 0x000000000179d8e8 (8)
0e1c2000 ffffffff81081eaf (03) 44 29c1                  SUB ECX, R8D
0e1c2000 ffffffff81081eb2 (03) 4d 89ca                  MOV R10, R9
0e1c2000 ffffffff81081eb5 (03) 49 d3fa                  SAR R10, CL
0e1c2000 ffffffff81081eb8 (03) 4c 39d2                  CMP RDX, R10
0e1c2000 ffffffff81081ebb (02) 7d 53                    JGE 0xffffffff81081f10
0e1c2000 ffffffff81081f10 (03) 48 89d6                  MOV RSI, RDX
0e1c2000 ffffffff81081f13 (03) 48 f7de                  NEG RSI
0e1c2000 ffffffff81081f16 (03) 49 39f2                  CMP R10, RSI
0e1c2000 ffffffff81081f19 (02) 7d f0                    JGE 0xffffffff81081f0b
0e1c2000 ffffffff81081f0b (01) c9                       LEAVE 
            load    0xffff8800019eeed8 0x00000000019eeed8 (8)
0e1c2000 ffffffff81081f0c (01) c3                       RET 
            load    0xffff8800019eeee0 0x00000000019eeee0 (8)
0e1c2000 ffffffff81082928 (07) 48 8b05 31f48c00         MOV RAX, [RIP+0x8cf431]
            load    0xffffffff81951d60 0x0000000001951d60 (8)
0e1c2000 ffffffff8108292f (07) 48 8b90 88000000         MOV RDX, [RAX+0x88]
            load    0xffffffff8179d908 0x000000000179d908 (8)
0e1c2000 ffffffff81082936 (03) 48 85d2                  TEST RDX, RDX
0e1c2000 ffffffff81082939 (06) 0f88 ba000000            JS 0xffffffff810829f9
0e1c2000 ffffffff8108293f (03) 8b48 48                  MOV ECX, [RAX+0x48]
            load    0xffffffff8179d8c8 0x000000000179d8c8 (4)
0e1c2000 ffffffff81082942 (03) 48 d3fa                  SAR RDX, CL
0e1c2000 ffffffff81082945 (04) 48 83c2 01               ADD RDX, 0x1
0e1c2000 ffffffff81082949 (07) 48 8915 f8f38c00         MOV [RIP+0x8cf3f8], RDX
            store   0xffffffff81951d48 0x0000000001951d48 (8)
0e1c2000 ffffffff81082950 (03) 8b48 48                  MOV ECX, [RAX+0x48]
            load    0xffffffff8179d8c8 0x000000000179d8c8 (4)
0e1c2000 ffffffff81082953 (03) 48 d3e2                  SHL RDX, CL
0e1c2000 ffffffff81082956 (07) 48 2990 88000000         SUB [RAX+0x88], RDX
            load    0xffffffff8179d908 0x000000000179d908 (8)
            store   0xffffffff8179d908 0x000000000179d908 (8)
0e1c2000 ffffffff8108295d (05) b9 20000000              MOV ECX, 0x20
0e1c2000 ffffffff81082962 (07) 48 8b05 f7f38c00         MOV RAX, [RIP+0x8cf3f7]
            load    0xffffffff81951d60 0x0000000001951d60 (8)
0e1c2000 ffffffff81082969 (03) 2b48 48                  SUB ECX, [RAX+0x48]
            load    0xffffffff8179d8c8 0x000000000179d8c8 (4)
0e1c2000 ffffffff8108296c (07) 48 8b90 88000000         MOV RDX, [RAX+0x88]
            load    0xffffffff8179d908 0x000000000179d908 (8)
0e1c2000 ffffffff81082973 (03) 48 d3e2                  SHL RDX, CL
0e1c2000 ffffffff81082976 (07) 48 0190 90000000         ADD [RAX+0x90], RDX
            load    0xffffffff8179d910 0x000000000179d910 (8)
            store   0xffffffff8179d910 0x000000000179d910 (8)
0e1c2000 ffffffff8108297d (07) 48 8b05 dcf38c00         MOV RAX, [RIP+0x8cf3dc]
            load    0xffffffff81951d60 0x0000000001951d60 (8)
0e1c2000 ffffffff81082984 (03) 8b50 40                  MOV EDX, [RAX+0x40]
            load    0xffffffff8179d8c0 0x000000000179d8c0 (4)
0e1c2000 ffffffff81082987 (03) 8b48 48                  MOV ECX, [RAX+0x48]
            load    0xffffffff8179d8c8 0x000000000179d8c8 (4)
0e1c2000 ffffffff8108298a (02) 31c0                     XOR EAX, EAX
0e1c2000 ffffffff8108298c (04) 48 0fafda                IMUL RBX, RDX
0e1c2000 ffffffff81082990 (02) 31d2                     XOR EDX, EDX
0e1c2000 ffffffff81082992 (03) 48 d3eb                  SHR RBX, CL
0e1c2000 ffffffff81082995 (07) 48 031d acf38c00         ADD RBX, [RIP+0x8cf3ac]
            load    0xffffffff81951d48 0x0000000001951d48 (8)
0e1c2000 ffffffff8108299c (07) 48 8b0d 9df38c00         MOV RCX, [RIP+0x8cf39d]
            load    0xffffffff81951d40 0x0000000001951d40 (8)
0e1c2000 ffffffff810829a3 (07) 48 81fb ffc99a3b         CMP RBX, 0x3b9ac9ff
0e1c2000 ffffffff810829aa (02) 76 19                    JBE 0xffffffff810829c5
0e1c2000 ffffffff810829c5 (03) 48 01ca                  ADD RDX, RCX
0e1c2000 ffffffff810829c8 (07) 48 891d a9f38c00         MOV [RIP+0x8cf3a9], RBX
            store   0xffffffff81951d78 0x0000000001951d78 (8)
0e1c2000 ffffffff810829cf (07) 48 8915 9af38c00         MOV [RIP+0x8cf39a], RDX
            store   0xffffffff81951d70 0x0000000001951d70 (8)
0e1c2000 ffffffff810829d6 (05) e8 b5fcffff              CALL 0xffffffff81082690
            store   0xffff8800019eeee0 0x00000000019eeee0 (8)
0e1c2000 ffffffff81082690 (01) 55                       PUSH RBP
            store   0xffff8800019eeed8 0x00000000019eeed8 (8)
0e1c2000 ffffffff81082691 (03) 48 89e5                  MOV RBP, RSP
0e1c2000 ffffffff81082694 (01) 53                       PUSH RBX
            store   0xffff8800019eeed0 0x00000000019eeed0 (8)
0e1c2000 ffffffff81082695 (04) 48 83ec 08               SUB RSP, 0x8
0e1c2000 ffffffff81082699 (05) e8 22150000              CALL 0xffffffff81083bc0
            store   0xffff8800019eeec0 0x00000000019eeec0 (8)
0e1c2000 ffffffff81083bc0 (01) 55                       PUSH RBP
            store   0xffff8800019eeeb8 0x00000000019eeeb8 (8)
0e1c2000 ffffffff81083bc1 (07) 48 c7c7 801e9581         MOV RDI, -0x7e6ae180
0e1c2000 ffffffff81083bc8 (03) 48 89e5                  MOV RBP, RSP
0e1c2000 ffffffff81083bcb (05) e8 705d4a00              CALL 0xffffffff81529940
            store   0xffff8800019eeeb0 0x00000000019eeeb0 (8)
0e1c2000 ffffffff81529940 (01) 55                       PUSH RBP
            store   0xffff8800019eeea8 0x00000000019eeea8 (8)
0e1c2000 ffffffff81529941 (03) 48 89e5                  MOV RBP, RSP
0e1c2000 ffffffff81529944 (04) 48 83ec 10               SUB RSP, 0x10
0e1c2000 ffffffff81529948 (04) 48 891c24                MOV [RSP], RBX
            store   0xffff8800019eee98 0x00000000019eee98 (8)
0e1c2000 ffffffff8152994c (05) 4c 896424 08             MOV [RSP+0x8], R12
            store   0xffff8800019eeea0 0x00000000019eeea0 (8)
0e1c2000 ffffffff81529951 (01) 9c                       PUSHF 
            store   0xffff8800019eee90 0x00000000019eee90 (8)
0e1c2000 ffffffff81529952 (01) 58                       POP RAX
            load    0xffff8800019eee90 0x00000000019eee90 (8)
0e1c2000 ffffffff81529953 (01) 66                       DB 0x66 
0e1c2000 ffffffff81529954 (01) 66                       DB 0x66 
0e1c2000 ffffffff81529954 (02) 66 90                    NOP 
0e1c2000 ffffffff81529956 (01) 66                       DB 0x66 
0e1c2000 ffffffff81529956 (02) 66 90                    NOP 
0e1c2000 ffffffff81529958 (03) 48 89c3                  MOV RBX, RAX
0e1c2000 ffffffff8152995b (01) fa                       CLI 
0e1c2000 ffffffff8152995c (01) 66                       DB 0x66 
0e1c2000 ffffffff8152995d (01) 66                       DB 0x66 
0e1c2000 ffffffff8152995d (02) 66 90                    NOP 
0e1c2000 ffffffff8152995f (01) 66                       DB 0x66 
0e1c2000 ffffffff81529960 (01) 66                       DB 0x66 
0e1c2000 ffffffff81529960 (02) 66 90                    NOP 
0e1c2000 ffffffff81529962 (03) 48 89de                  MOV RSI, RBX
0e1c2000 ffffffff81529965 (05) e8 a6cab0ff              CALL 0xffffffff81036410
            store   0xffff8800019eee90 0x00000000019eee90 (8)
0e1c2000 ffffffff81036410 (01) 55                       PUSH RBP
            store   0xffff8800019eee88 0x00000000019eee88 (8)
0e1c2000 ffffffff81036411 (03) 48 89e5                  MOV RBP, RSP
0e1c2000 ffffffff81036414 (05) e8 67ffffff              CALL 0xffffffff81036380
            store   0xffff8800019eee80 0x00000000019eee80 (8)
0e1c2000 ffffffff81036380 (01) 55                       PUSH RBP
            store   0xffff8800019eee78 0x00000000019eee78 (8)
0e1c2000 ffffffff81036381 (05) b8 00010000              MOV EAX, 0x100
0e1c2000 ffffffff81036386 (03) 48 89e5                  MOV RBP, RSP
0e1c2000 ffffffff81036389 (01) 3e                       DB 0x3e 
0e1c2000 ffffffff81036389 (05) 3e 66 0fc107             XADD [RDI], AX
            load    0xffffffff81951e80 0x0000000001951e80 (2)
            store   0xffffffff81951e80 0x0000000001951e80 (2)
0e1c2000 ffffffff8103638e (02) 38e0                     CMP AL, AH
0e1c2000 ffffffff81036390 (02) 74 06                    JZ 0xffffffff81036398
0e1c2000 ffffffff81036398 (01) c9                       LEAVE 
            load    0xffff8800019eee78 0x00000000019eee78 (8)
0e1c2000 ffffffff81036399 (01) c3                       RET 
            load    0xffff8800019eee80 0x00000000019eee80 (8)
0e1c2000 ffffffff81036419 (01) 66                       DB 0x66 
0e1c2000 ffffffff81036419 (02) 66 90                    NOP 
0e1c2000 ffffffff8103641b (01) c9                       LEAVE 
            load    0xffff8800019eee88 0x00000000019eee88 (8)
0e1c2000 ffffffff8103641c (01) c3                       RET 
            load    0xffff8800019eee90 0x00000000019eee90 (8)
0e1c2000 ffffffff8152996a (01) 66                       DB 0x66 
0e1c2000 ffffffff8152996a (02) 66 90                    NOP 
0e1c2000 ffffffff8152996c (03) 48 89d8                  MOV RAX, RBX
0e1c2000 ffffffff8152996f (05) 4c 8b6424 08             MOV R12, [RSP+0x8]
            load    0xffff8800019eeea0 0x00000000019eeea0 (8)
0e1c2000 ffffffff81529974 (04) 48 8b1c24                MOV RBX, [RSP]
            load    0xffff8800019eee98 0x00000000019eee98 (8)
0e1c2000 ffffffff81529978 (01) c9                       LEAVE 
            load    0xffff8800019eeea8 0x00000000019eeea8 (8)
0e1c2000 ffffffff81529979 (01) c3                       RET 
            load    0xffff8800019eeeb0 0x00000000019eeeb0 (8)
0e1c2000 ffffffff81083bd0 (07) 48 8b15 b1e28c00         MOV RDX, [RIP+0x8ce2b1]
            load    0xffffffff81951e88 0x0000000001951e88 (8)
0e1c2000 ffffffff81083bd7 (03) 48 85d2                  TEST RDX, RDX
0e1c2000 ffffffff81083bda (02) 74 1c                    JZ 0xffffffff81083bf8
0e1c2000 ffffffff81083bf8 (03) 48 89c6                  MOV RSI, RAX
0e1c2000 ffffffff81083bfb (07) 48 c7c7 801e9581         MOV RDI, -0x7e6ae180
0e1c2000 ffffffff81083c02 (05) e8 995e4a00              CALL 0xffffffff81529aa0
            store   0xffff8800019eeeb0 0x00000000019eeeb0 (8)
0e1c2000 ffffffff81529aa0 (01) 55                       PUSH RBP
            store   0xffff8800019eeea8 0x00000000019eeea8 (8)
0e1c2000 ffffffff81529aa1 (03) 48 89e5                  MOV RBP, RSP
0e1c2000 ffffffff81529aa4 (01) 53                       PUSH RBX
            store   0xffff8800019eeea0 0x00000000019eeea0 (8)
0e1c2000 ffffffff81529aa5 (03) 48 89f3                  MOV RBX, RSI
0e1c2000 ffffffff81529aa8 (05) e8 13c9b0ff              CALL 0xffffffff810363c0
            store   0xffff8800019eee98 0x00000000019eee98 (8)
0e1c2000 ffffffff810363c0 (01) 55                       PUSH RBP
            store   0xffff8800019eee90 0x00000000019eee90 (8)
0e1c2000 ffffffff810363c1 (03) 48 89e5                  MOV RBP, RSP
0e1c2000 ffffffff810363c4 (02) fe07                     INC BYTE [RDI]
            load    0xffffffff81951e80 0x0000000001951e80 (1)
            store   0xffffffff81951e80 0x0000000001951e80 (1)
0e1c2000 ffffffff810363c6 (01) c9                       LEAVE 
            load    0xffff8800019eee90 0x00000000019eee90 (8)
0e1c2000 ffffffff810363c7 (01) c3                       RET 
            load    0xffff8800019eee98 0x00000000019eee98 (8)
0e1c2000 ffffffff81529aad (01) 66                       DB 0x66 
0e1c2000 ffffffff81529aad (02) 66 90                    NOP 
0e1c2000 ffffffff81529aaf (03) 48 89df                  MOV RDI, RBX
0e1c2000 ffffffff81529ab2 (01) 57                       PUSH RDI
            store   0xffff8800019eee98 0x00000000019eee98 (8)
0e1c2000 ffffffff81529ab3 (01) 9d                       POPF 
            load    0xffff8800019eee98 0x00000000019eee98 (8)
0e1c2000 ffffffff81529ab4 (01) 66                       DB 0x66 
0e1c2000 ffffffff81529ab5 (01) 66                       DB 0x66 
0e1c2000 ffffffff81529ab5 (02) 66 90                    NOP 
0e1c2000 ffffffff81529ab7 (01) 66                       DB 0x66 
0e1c2000 ffffffff81529ab7 (02) 66 90                    NOP 
0e1c2000 ffffffff81529ab9 (01) 5b                       POP RBX
            load    0xffff8800019eeea0 0x00000000019eeea0 (8)
0e1c2000 ffffffff81529aba (01) c9                       LEAVE 
            load    0xffff8800019eeea8 0x00000000019eeea8 (8)
0e1c2000 ffffffff81529abb (01) c3                       RET 
            load    0xffff8800019eeeb0 0x00000000019eeeb0 (8)
0e1c2000 ffffffff81083c07 (07) 48 8b05 b2357200         MOV RAX, [RIP+0x7235b2]
            load    0xffffffff817a71c0 0x00000000017a71c0 (8)
0e1c2000 ffffffff81083c0e (01) c9                       LEAVE 
            load    0xffff8800019eeeb8 0x00000000019eeeb8 (8)
0e1c2000 ffffffff81083c0f (01) c3                       RET 
            load    0xffff8800019eeec0 0x00000000019eeec0 (8)
0e1c2000 ffffffff8108269e (07) 48 3b05 bbf68c00         CMP RAX, [RIP+0x8cf6bb]
            load    0xffffffff81951d60 0x0000000001951d60 (8)
0e1c2000 ffffffff810826a5 (03) 48 89c3                  MOV RBX, RAX
0e1c2000 ffffffff810826a8 (02) 74 1d                    JZ 0xffffffff810826c7
0e1c2000 ffffffff810826c7 (04) 48 83c4 08               ADD RSP, 0x8
0e1c2000 ffffffff810826cb (01) 5b                       POP RBX
            load    0xffff8800019eeed0 0x00000000019eeed0 (8)
0e1c2000 ffffffff810826cc (01) c9                       LEAVE 
            load    0xffff8800019eeed8 0x00000000019eeed8 (8)
0e1c2000 ffffffff810826cd (01) c3                       RET 
            load    0xffff8800019eeee0 0x00000000019eeee0 (8)
0e1c2000 ffffffff810829db (07) 48 8b35 7ef38c00         MOV RSI, [RIP+0x8cf37e]
            load    0xffffffff81951d60 0x0000000001951d60 (8)
0e1c2000 ffffffff810829e2 (07) 48 c7c7 401d9581         MOV RDI, -0x7e6ae2c0
0e1c2000 ffffffff810829e9 (05) e8 4246f9ff              CALL 0xffffffff81017030
            store   0xffff8800019eeee0 0x00000000019eeee0 (8)
0e1c2000 ffffffff81017030 (01) 55                       PUSH RBP
            store   0xffff8800019eeed8 0x00000000019eeed8 (8)
0e1c2000 ffffffff81017031 (03) 48 89e5                  MOV RBP, RSP
0e1c2000 ffffffff81017034 (04) 48 83ec 20               SUB RSP, 0x20
0e1c2000 ffffffff81017038 (04) 4c 8965 f0               MOV [RBP-0x10], R12
            store   0xffff8800019eeec8 0x00000000019eeec8 (8)
0e1c2000 ffffffff8101703c (04) 4c 896d f8               MOV [RBP-0x8], R13
            store   0xffff8800019eeed0 0x00000000019eeed0 (8)
0e1c2000 ffffffff81017040 (03) 49 89fc                  MOV R12, RDI
0e1c2000 ffffffff81017043 (04) 48 895d e8               MOV [RBP-0x18], RBX
            store   0xffff8800019eeec0 0x00000000019eeec0 (8)
0e1c2000 ffffffff81017047 (03) 49 89f5                  MOV R13, RSI
0e1c2000 ffffffff8101704a (01) 9c                       PUSHF 
            store   0xffff8800019eeeb0 0x00000000019eeeb0 (8)
0e1c2000 ffffffff8101704b (01) 58                       POP RAX
            load    0xffff8800019eeeb0 0x00000000019eeeb0 (8)
0e1c2000 ffffffff8101704c (01) 66                       DB 0x66 
0e1c2000 ffffffff8101704d (01) 66                       DB 0x66 
0e1c2000 ffffffff8101704d (02) 66 90                    NOP 
0e1c2000 ffffffff8101704f (01) 66                       DB 0x66 
0e1c2000 ffffffff8101704f (02) 66 90                    NOP 
0e1c2000 ffffffff81017051 (03) 48 89c3                  MOV RBX, RAX
0e1c2000 ffffffff81017054 (01) fa                       CLI 
0e1c2000 ffffffff81017055 (01) 66                       DB 0x66 
0e1c2000 ffffffff81017056 (01) 66                       DB 0x66 
0e1c2000 ffffffff81017056 (02) 66 90                    NOP 
0e1c2000 ffffffff81017058 (01) 66                       DB 0x66 
0e1c2000 ffffffff81017059 (01) 66                       DB 0x66 
0e1c2000 ffffffff81017059 (02) 66 90                    NOP 
0e1c2000 ffffffff8101705b (07) 48 c7c7 84418281         MOV RDI, -0x7e7dbe7c
0e1c2000 ffffffff81017062 (05) e8 d9295100              CALL 0xffffffff81529a40
            store   0xffff8800019eeeb0 0x00000000019eeeb0 (8)
0e1c2000 ffffffff81529a40 (01) 55                       PUSH RBP
            store   0xffff8800019eeea8 0x00000000019eeea8 (8)
0e1c2000 ffffffff81529a41 (03) 48 89e5                  MOV RBP, RSP
0e1c2000 ffffffff81529a44 (05) e8 37c9b0ff              CALL 0xffffffff81036380
            store   0xffff8800019eeea0 0x00000000019eeea0 (8)
0e1c2000 ffffffff81036380 (01) 55                       PUSH RBP
            store   0xffff8800019eee98 0x00000000019eee98 (8)
0e1c2000 ffffffff81036381 (05) b8 00010000              MOV EAX, 0x100
0e1c2000 ffffffff81036386 (03) 48 89e5                  MOV RBP, RSP
0e1c2000 ffffffff81036389 (01) 3e                       DB 0x3e 
0e1c2000 ffffffff81036389 (05) 3e 66 0fc107             XADD [RDI], AX
            load    0xffffffff81824184 0x0000000001824184 (2)
            store   0xffffffff81824184 0x0000000001824184 (2)
0e1c2000 ffffffff8103638e (02) 38e0                     CMP AL, AH
0e1c2000 ffffffff81036390 (02) 74 06                    JZ 0xffffffff81036398
0e1c2000 ffffffff81036398 (01) c9                       LEAVE 
            load    0xffff8800019eee98 0x00000000019eee98 (8)
0e1c2000 ffffffff81036399 (01) c3                       RET 
            load    0xffff8800019eeea0 0x00000000019eeea0 (8)
0e1c2000 ffffffff81529a49 (01) 66                       DB 0x66 
0e1c2000 ffffffff81529a49 (02) 66 90                    NOP 
0e1c2000 ffffffff81529a4b (01) c9                       LEAVE 
            load    0xffff8800019eeea8 0x00000000019eeea8 (8)
0e1c2000 ffffffff81529a4c (01) c3                       RET 
            load    0xffff8800019eeeb0 0x00000000019eeeb0 (8)
0e1c2000 ffffffff81017067 (07) 8305 12d18000 01         ADD DWORD [RIP+0x80d112], 0x1
            load    0xffffffff81824180 0x0000000001824180 (4)
            store   0xffffffff81824180 0x0000000001824180 (4)
0e1c2000 ffffffff8101706e (04) 49 8b45 58               MOV RAX, [R13+0x58]
            load    0xffffffff8179d8d8 0x000000000179d8d8 (8)
0e1c2000 ffffffff81017072 (07) 48 8905 27d18000         MOV [RIP+0x80d127], RAX
            store   0xffffffff818241a0 0x00000000018241a0 (8)
0e1c2000 ffffffff81017079 (07) 49 8b85 80000000         MOV RAX, [R13+0x80]
            load    0xffffffff8179d900 0x000000000179d900 (8)
0e1c2000 ffffffff81017080 (07) 48 8905 21d18000         MOV [RIP+0x80d121], RAX
            store   0xffffffff818241a8 0x00000000018241a8 (8)
0e1c2000 ffffffff81017087 (04) 49 8b45 38               MOV RAX, [R13+0x38]
            load    0xffffffff8179d8b8 0x000000000179d8b8 (8)
0e1c2000 ffffffff8101708b (07) 48 8905 1ed18000         MOV [RIP+0x80d11e], RAX
            store   0xffffffff818241b0 0x00000000018241b0 (8)
0e1c2000 ffffffff81017092 (04) 41 8b45 40               MOV EAX, [R13+0x40]
            load    0xffffffff8179d8c0 0x000000000179d8c0 (4)
0e1c2000 ffffffff81017096 (06) 8905 1cd18000            MOV [RIP+0x80d11c], EAX
            store   0xffffffff818241b8 0x00000000018241b8 (4)
0e1c2000 ffffffff8101709c (04) 41 8b45 48               MOV EAX, [R13+0x48]
            load    0xffffffff8179d8c8 0x000000000179d8c8 (4)
0e1c2000 ffffffff810170a0 (06) 8905 16d18000            MOV [RIP+0x80d116], EAX
            store   0xffffffff818241bc 0x00000000018241bc (4)
0e1c2000 ffffffff810170a6 (04) 49 8b0424                MOV RAX, [R12]
            load    0xffffffff81951d40 0x0000000001951d40 (8)
0e1c2000 ffffffff810170aa (07) 48 8905 d7d08000         MOV [RIP+0x80d0d7], RAX
            store   0xffffffff81824188 0x0000000001824188 (8)
0e1c2000 ffffffff810170b1 (05) 49 8b4424 08             MOV RAX, [R12+0x8]
            load    0xffffffff81951d48 0x0000000001951d48 (8)
0e1c2000 ffffffff810170b6 (06) 8905 d4d08000            MOV [RIP+0x80d0d4], EAX
            store   0xffffffff81824190 0x0000000001824190 (4)
0e1c2000 ffffffff810170bc (07) 48 8b05 8dac9300         MOV RAX, [RIP+0x93ac8d]
            load    0xffffffff81951d50 0x0000000001951d50 (8)
0e1c2000 ffffffff810170c3 (07) 48 8905 f6d08000         MOV [RIP+0x80d0f6], RAX
            store   0xffffffff818241c0 0x00000000018241c0 (8)
0e1c2000 ffffffff810170ca (07) 48 8b05 87ac9300         MOV RAX, [RIP+0x93ac87]
            load    0xffffffff81951d58 0x0000000001951d58 (8)
0e1c2000 ffffffff810170d1 (07) 48 8905 f0d08000         MOV [RIP+0x80d0f0], RAX
            store   0xffffffff818241c8 0x00000000018241c8 (8)
0e1c2000 ffffffff810170d8 (07) 48 c7c7 84418281         MOV RDI, -0x7e7dbe7c
0e1c2000 ffffffff810170df (07) 8305 9ad08000 01         ADD DWORD [RIP+0x80d09a], 0x1
            load    0xffffffff81824180 0x0000000001824180 (4)
            store   0xffffffff81824180 0x0000000001824180 (4)
0e1c2000 ffffffff810170e6 (05) e8 d5f20100              CALL 0xffffffff810363c0
            store   0xffff8800019eeeb0 0x00000000019eeeb0 (8)
0e1c2000 ffffffff810363c0 (01) 55                       PUSH RBP
            store   0xffff8800019eeea8 0x00000000019eeea8 (8)
0e1c2000 ffffffff810363c1 (03) 48 89e5                  MOV RBP, RSP
0e1c2000 ffffffff810363c4 (02) fe07                     INC BYTE [RDI]
            load    0xffffffff81824184 0x0000000001824184 (1)
            store   0xffffffff81824184 0x0000000001824184 (1)
0e1c2000 ffffffff810363c6 (01) c9                       LEAVE 
            load    0xffff8800019eeea8 0x00000000019eeea8 (8)
0e1c2000 ffffffff810363c7 (01) c3                       RET 
            load    0xffff8800019eeeb0 0x00000000019eeeb0 (8)
0e1c2000 ffffffff810170eb (01) 66                       DB 0x66 
0e1c2000 ffffffff810170eb (02) 66 90                    NOP 
0e1c2000 ffffffff810170ed (03) 48 89df                  MOV RDI, RBX
0e1c2000 ffffffff810170f0 (01) 57                       PUSH RDI
            store   0xffff8800019eeeb0 0x00000000019eeeb0 (8)
0e1c2000 ffffffff810170f1 (01) 9d                       POPF 
            load    0xffff8800019eeeb0 0x00000000019eeeb0 (8)
0e1c2000 ffffffff810170f2 (01) 66                       DB 0x66 
0e1c2000 ffffffff810170f3 (01) 66                       DB 0x66 
0e1c2000 ffffffff810170f3 (02) 66 90                    NOP 
0e1c2000 ffffffff810170f5 (01) 66                       DB 0x66 
0e1c2000 ffffffff810170f5 (02) 66 90                    NOP 
0e1c2000 ffffffff810170f7 (04) 48 8b5d e8               MOV RBX, [RBP-0x18]
            load    0xffff8800019eeec0 0x00000000019eeec0 (8)
0e1c2000 ffffffff810170fb (04) 4c 8b65 f0               MOV R12, [RBP-0x10]
            load    0xffff8800019eeec8 0x00000000019eeec8 (8)
0e1c2000 ffffffff810170ff (04) 4c 8b6d f8               MOV R13, [RBP-0x8]
            load    0xffff8800019eeed0 0x00000000019eeed0 (8)
0e1c2000 ffffffff81017103 (01) c9                       LEAVE 
            load    0xffff8800019eeed8 0x00000000019eeed8 (8)
0e1c2000 ffffffff81017104 (01) c3                       RET 
            load    0xffff8800019eeee0 0x00000000019eeee0 (8)
0e1c2000 ffffffff810829ee (04) 48 83c4 08               ADD RSP, 0x8
0e1c2000 ffffffff810829f2 (01) 5b                       POP RBX
            load    0xffff8800019eeef0 0x00000000019eeef0 (8)
0e1c2000 ffffffff810829f3 (02) 41 5c                    POP R12
            load    0xffff8800019eeef8 0x00000000019eeef8 (8)
0e1c2000 ffffffff810829f5 (02) 41 5d                    POP R13
            load    0xffff8800019eef00 0x00000000019eef00 (8)
0e1c2000 ffffffff810829f7 (01) c9                       LEAVE 
            load    0xffff8800019eef08 0x00000000019eef08 (8)
0e1c2000 ffffffff810829f8 (01) c3                       RET 
            load    0xffff8800019eef10 0x00000000019eef10 (8)
0e1c2000 ffffffff8106b1f0 (05) e8 5ba6fdff              CALL 0xffffffff81045850
            store   0xffff8800019eef10 0x00000000019eef10 (8)
0e1c2000 ffffffff81045850 (07) 48 8b35 11908c00         MOV RSI, [RIP+0x8c9011]
            load    0xffffffff8190e868 0x000000000190e868 (8)
0e1c2000 ffffffff81045857 (07) 48 8b15 62f07d00         MOV RDX, [RIP+0x7df062]
            load    0xffffffff818248c0 0x00000000018248c0 (8)
0e1c2000 ffffffff8104585e (01) 55                       PUSH RBP
            store   0xffff8800019eef08 0x00000000019eef08 (8)
0e1c2000 ffffffff8104585f (04) 48 8d46 0a               LEA RAX, [RSI+0xa]
0e1c2000 ffffffff81045863 (03) 48 89e5                  MOV RBP, RSP
0e1c2000 ffffffff81045866 (03) 48 39c2                  CMP RDX, RAX
0e1c2000 ffffffff81045869 (06) 0f88 9e000000            JS 0xffffffff8104590d
0e1c2000 ffffffff8104590d (01) c9                       LEAVE 
            load    0xffff8800019eef08 0x00000000019eef08 (8)
0e1c2000 ffffffff8104590e (01) c3                       RET 
            load    0xffff8800019eef10 0x00000000019eef10 (8)
0e1c2000 ffffffff8106b1f5 (01) c9                       LEAVE 
            load    0xffff8800019eef18 0x00000000019eef18 (8)
0e1c2000 ffffffff8106b1f6 (01) c3                       RET 
            load    0xffff8800019eef20 0x00000000019eef20 (8)
0e1c2000 ffffffff81086f86 (07) 48 8b05 dbaf8c00         MOV RAX, [RIP+0x8cafdb]
            load    0xffffffff81951f68 0x0000000001951f68 (8)
0e1c2000 ffffffff81086f8d (07) 48 0305 24b08c00         ADD RAX, [RIP+0x8cb024]
            load    0xffffffff81951fb8 0x0000000001951fb8 (8)
0e1c2000 ffffffff81086f94 (07) 48 8905 c5af8c00         MOV [RIP+0x8cafc5], RAX
            store   0xffffffff81951f60 0x0000000001951f60 (8)
0e1c2000 ffffffff81086f9b (07) 8305 dee17000 01         ADD DWORD [RIP+0x70e1de], 0x1
            load    0xffffffff81795180 0x0000000001795180 (4)
            store   0xffffffff81795180 0x0000000001795180 (4)
0e1c2000 ffffffff81086fa2 (07) 48 c7c7 84517981         MOV RDI, -0x7e86ae7c
0e1c2000 ffffffff81086fa9 (05) e8 12f4faff              CALL 0xffffffff810363c0
            store   0xffff8800019eef20 0x00000000019eef20 (8)
0e1c2000 ffffffff810363c0 (01) 55                       PUSH RBP
            store   0xffff8800019eef18 0x00000000019eef18 (8)
0e1c2000 ffffffff810363c1 (03) 48 89e5                  MOV RBP, RSP
0e1c2000 ffffffff810363c4 (02) fe07                     INC BYTE [RDI]
            load    0xffffffff81795184 0x0000000001795184 (1)
            store   0xffffffff81795184 0x0000000001795184 (1)
0e1c2000 ffffffff810363c6 (01) c9                       LEAVE 
            load    0xffff8800019eef18 0x00000000019eef18 (8)
0e1c2000 ffffffff810363c7 (01) c3                       RET 
            load    0xffff8800019eef20 0x00000000019eef20 (8)
0e1c2000 ffffffff81086fae (01) 66                       DB 0x66 
0e1c2000 ffffffff81086fae (02) 66 90                    NOP 
0e1c2000 ffffffff81086fb0 (04) 48 83c4 08               ADD RSP, 0x8
0e1c2000 ffffffff81086fb4 (01) 5b                       POP RBX
            load    0xffff8800019eef30 0x00000000019eef30 (8)
0e1c2000 ffffffff81086fb5 (01) c9                       LEAVE 
            load    0xffff8800019eef38 0x00000000019eef38 (8)
0e1c2000 ffffffff81086fb6 (01) c3                       RET 
            load    0xffff8800019eef40 0x00000000019eef40 (8)
0e1c2000 ffffffff81087488 (03) 48 89df                  MOV RDI, RBX
0e1c2000 ffffffff8108748b (01) 57                       PUSH RDI
            store   0xffff8800019eef40 0x00000000019eef40 (8)
0e1c2000 ffffffff8108748c (01) 9d                       POPF 
            load    0xffff8800019eef40 0x00000000019eef40 (8)
0e1c2000 ffffffff8108748d (01) 66                       DB 0x66 
0e1c2000 ffffffff8108748e (01) 66                       DB 0x66 
0e1c2000 ffffffff8108748e (02) 66 90                    NOP 
0e1c2000 ffffffff81087490 (01) 66                       DB 0x66 
0e1c2000 ffffffff81087490 (02) 66 90                    NOP 
0e1c2000 ffffffff81087492 (05) e8 c9bd0200              CALL 0xffffffff810b3260
            store   0xffff8800019eef40 0x00000000019eef40 (8)
0e1c2000 ffffffff810b3260 (01) 55                       PUSH RBP
            store   0xffff8800019eef38 0x00000000019eef38 (8)
0e1c2000 ffffffff810b3261 (07) 48 c7c0 f0030100         MOV RAX, 0x103f0
0e1c2000 ffffffff810b3268 (09) 65 48 8b1425 60e30000    MOV RDX, GS:[0xe360]
            load    0xffff8800019f9360 0x00000000019f9360 (8)
0e1c2000 ffffffff810b3271 (03) 48 89e5                  MOV RBP, RSP
0e1c2000 ffffffff810b3274 (08) 48 c70402 00000000       MOV QWORD [RDX+RAX], 0x0
            store   0xffff8800019fb3f0 0x00000000019fb3f0 (8)
0e1c2000 ffffffff810b327c (01) c9                       LEAVE 
            load    0xffff8800019eef38 0x00000000019eef38 (8)
0e1c2000 ffffffff810b327d (01) c3                       RET 
            load    0xffff8800019eef40 0x00000000019eef40 (8)
0e1c2000 ffffffff81087497 (04) 48 83c4 08               ADD RSP, 0x8
0e1c2000 ffffffff8108749b (01) 5b                       POP RBX
            load    0xffff8800019eef50 0x00000000019eef50 (8)
0e1c2000 ffffffff8108749c (01) c9                       LEAVE 
            load    0xffff8800019eef58 0x00000000019eef58 (8)
0e1c2000 ffffffff8108749d (01) c3                       RET 
            load    0xffff8800019eef60 0x00000000019eef60 (8)
0e1c2000 ffffffff81065271 (04) 48 83c4 08               ADD RSP, 0x8
0e1c2000 ffffffff81065275 (01) 5b                       POP RBX
            load    0xffff8800019eef70 0x00000000019eef70 (8)
0e1c2000 ffffffff81065276 (01) c9                       LEAVE 
            load    0xffff8800019eef78 0x00000000019eef78 (8)
0e1c2000 ffffffff81065277 (01) c3                       RET 
            load    0xffff8800019eef80 0x00000000019eef80 (8)
0e1c2000 ffffffff810140ce (03) 41 f7d4                  NOT R12D
0e1c2000 ffffffff810140d1 (07) 48 c7c0 e0c60000         MOV RAX, 0xc6e0
0e1c2000 ffffffff810140d8 (03) 4c 89f6                  MOV RSI, R14
0e1c2000 ffffffff810140db (03) 44 89e1                  MOV ECX, R12D
0e1c2000 ffffffff810140de (09) 65 48 8b1425 60e30000    MOV RDX, GS:[0xe360]
            load    0xffff8800019f9360 0x00000000019f9360 (8)
0e1c2000 ffffffff810140e7 (04) 48 8d148a                LEA RDX, [RDX+RCX*4]
0e1c2000 ffffffff810140eb (04) 44 8b2c02                MOV R13D, [RDX+RAX]
            load    0xffff8800019f77a4 0x00000000019f77a4 (4)
0e1c2000 ffffffff810140ef (03) 44 89ef                  MOV EDI, R13D
0e1c2000 ffffffff810140f2 (05) e8 090b0000              CALL 0xffffffff81014c00
            store   0xffff8800019eef80 0x00000000019eef80 (8)
0e1c2000 ffffffff81014c00 (01) 55                       PUSH RBP
            store   0xffff8800019eef78 0x00000000019eef78 (8)
0e1c2000 ffffffff81014c01 (03) 48 89e5                  MOV RBP, RSP
0e1c2000 ffffffff81014c04 (01) 53                       PUSH RBX
            store   0xffff8800019eef70 0x00000000019eef70 (8)
0e1c2000 ffffffff81014c05 (02) 89fb                     MOV EBX, EDI
0e1c2000 ffffffff81014c07 (04) 48 83ec 08               SUB RSP, 0x8
0e1c2000 ffffffff81014c0b (05) e8 90ec0900              CALL 0xffffffff810b38a0
            store   0xffff8800019eef60 0x00000000019eef60 (8)
0e1c2000 ffffffff810b38a0 (01) 55                       PUSH RBP
            store   0xffff8800019eef58 0x00000000019eef58 (8)
0e1c2000 ffffffff810b38a1 (07) 48 8b05 80c87600         MOV RAX, [RIP+0x76c880]
            load    0xffffffff81820128 0x0000000001820128 (8)
0e1c2000 ffffffff810b38a8 (03) 48 89e5                  MOV RBP, RSP
0e1c2000 ffffffff810b38ab (03) 48 85c0                  TEST RAX, RAX
0e1c2000 ffffffff810b38ae (02) 75 08                    JNZ 0xffffffff810b38b8
0e1c2000 ffffffff810b38b8 (06) 393d 825f6f00            CMP [RIP+0x6f5f82], EDI
            load    0xffffffff817a9840 0x00000000017a9840 (4)
0e1c2000 ffffffff810b38be (02) 76 f0                    JBE 0xffffffff810b38b0
0e1c2000 ffffffff810b38c0 (02) 89ff                     MOV EDI, EDI
0e1c2000 ffffffff810b38c2 (04) 48 8b04f8                MOV RAX, [RAX+RDI*8]
            load    0xffff88000f404008 0x000000000f404008 (8)
0e1c2000 ffffffff810b38c6 (01) c9                       LEAVE 
            load    0xffff8800019eef58 0x00000000019eef58 (8)
0e1c2000 ffffffff810b38c7 (01) c3                       RET 
            load    0xffff8800019eef60 0x00000000019eef60 (8)
0e1c2000 ffffffff81014c10 (03) 48 85c0                  TEST RAX, RAX
0e1c2000 ffffffff81014c13 (02) 74 0d                    JZ 0xffffffff81014c22
0e1c2000 ffffffff81014c15 (03) 48 89c6                  MOV RSI, RAX
0e1c2000 ffffffff81014c18 (02) 89df                     MOV EDI, EBX
0e1c2000 ffffffff81014c1a (03) ff50 18                  CALL [RAX+0x18]
            load    0xffffffff81795318 0x0000000001795318 (8)
            store   0xffff8800019eef60 0x00000000019eef60 (8)
0e1c2000 ffffffff810b5910 (01) 55                       PUSH RBP
            store   0xffff8800019eef58 0x00000000019eef58 (8)
0e1c2000 ffffffff810b5911 (03) 48 89e5                  MOV RBP, RSP
0e1c2000 ffffffff810b5914 (02) 41 57                    PUSH R15
            store   0xffff8800019eef50 0x00000000019eef50 (8)
0e1c2000 ffffffff810b5916 (02) 41 56                    PUSH R14
            store   0xffff8800019eef48 0x00000000019eef48 (8)
0e1c2000 ffffffff810b5918 (03) 41 89fe                  MOV R14D, EDI
0e1c2000 ffffffff810b591b (02) 41 55                    PUSH R13
            store   0xffff8800019eef40 0x00000000019eef40 (8)
0e1c2000 ffffffff810b591d (04) 4c 8d6e 64               LEA R13, [RSI+0x64]
0e1c2000 ffffffff810b5921 (02) 41 54                    PUSH R12
            store   0xffff8800019eef38 0x00000000019eef38 (8)
0e1c2000 ffffffff810b5923 (03) 4c 89ef                  MOV RDI, R13
0e1c2000 ffffffff810b5926 (01) 53                       PUSH RBX
            store   0xffff8800019eef30 0x00000000019eef30 (8)
0e1c2000 ffffffff810b5927 (03) 48 89f3                  MOV RBX, RSI
0e1c2000 ffffffff810b592a (04) 48 83ec 08               SUB RSP, 0x8
0e1c2000 ffffffff810b592e (05) e8 0d414700              CALL 0xffffffff81529a40
            store   0xffff8800019eef20 0x00000000019eef20 (8)
0e1c2000 ffffffff81529a40 (01) 55                       PUSH RBP
            store   0xffff8800019eef18 0x00000000019eef18 (8)
0e1c2000 ffffffff81529a41 (03) 48 89e5                  MOV RBP, RSP
0e1c2000 ffffffff81529a44 (05) e8 37c9b0ff              CALL 0xffffffff81036380
            store   0xffff8800019eef10 0x00000000019eef10 (8)
0e1c2000 ffffffff81036380 (01) 55                       PUSH RBP
            store   0xffff8800019eef08 0x00000000019eef08 (8)
0e1c2000 ffffffff81036381 (05) b8 00010000              MOV EAX, 0x100
0e1c2000 ffffffff81036386 (03) 48 89e5                  MOV RBP, RSP
0e1c2000 ffffffff81036389 (01) 3e                       DB 0x3e 
0e1c2000 ffffffff81036389 (05) 3e 66 0fc107             XADD [RDI], AX
            load    0xffffffff81795364 0x0000000001795364 (2)
            store   0xffffffff81795364 0x0000000001795364 (2)
0e1c2000 ffffffff8103638e (02) 38e0                     CMP AL, AH
0e1c2000 ffffffff81036390 (02) 74 06                    JZ 0xffffffff81036398
0e1c2000 ffffffff81036398 (01) c9                       LEAVE 
            load    0xffff8800019eef08 0x00000000019eef08 (8)
0e1c2000 ffffffff81036399 (01) c3                       RET 
            load    0xffff8800019eef10 0x00000000019eef10 (8)
0e1c2000 ffffffff81529a49 (01) 66                       DB 0x66 
0e1c2000 ffffffff81529a49 (02) 66 90                    NOP 
0e1c2000 ffffffff81529a4b (01) c9                       LEAVE 
            load    0xffff8800019eef18 0x00000000019eef18 (8)
0e1c2000 ffffffff81529a4c (01) c3                       RET 
            load    0xffff8800019eef20 0x00000000019eef20 (8)
0e1c2000 ffffffff810b5933 (03) 8b43 48                  MOV EAX, [RBX+0x48]
            load    0xffffffff81795348 0x0000000001795348 (4)
0e1c2000 ffffffff810b5936 (02) 89c2                     MOV EDX, EAX
0e1c2000 ffffffff810b5938 (03) 80e6 d7                  AND DH, 0xd7
0e1c2000 ffffffff810b593b (03) f6c4 03                  TEST AH, 0x3
0e1c2000 ffffffff810b593e (03) 8953 48                  MOV [RBX+0x48], EDX
            store   0xffffffff81795348 0x0000000001795348 (4)
0e1c2000 ffffffff810b5941 (06) 0f85 f9000000            JNZ 0xffffffff810b5a40
0e1c2000 ffffffff810b5947 (05) 48 837b 40 00            CMP QWORD [RBX+0x40], 0x0
            load    0xffffffff81795340 0x0000000001795340 (8)
0e1c2000 ffffffff810b594c (06) 0f84 ee000000            JZ 0xffffffff810b5a40
0e1c2000 ffffffff810b5952 (08) 65 8b0425 68e30000       MOV EAX, GS:[0xe368]
            load    0xffff8800019f9368 0x00000000019f9368 (4)
0e1c2000 ffffffff810b595a (02) 48 98                    CDQE 
0e1c2000 ffffffff810b595c (04) 48 c1e0 02               SHL RAX, 0x2
0e1c2000 ffffffff810b5960 (04) 48 0343 10               ADD RAX, [RBX+0x10]
            load    0xffffffff81795310 0x0000000001795310 (8)
0e1c2000 ffffffff810b5964 (03) 8300 01                  ADD DWORD [RAX], 0x1
            load    0xffff88000f402004 0x000000000f402004 (4)
            store   0xffff88000f402004 0x000000000f402004 (4)
0e1c2000 ffffffff810b5967 (04) 48 8b43 20               MOV RAX, [RBX+0x20]
            load    0xffffffff81795320 0x0000000001795320 (8)
0e1c2000 ffffffff810b596b (04) 48 8b40 28               MOV RAX, [RAX+0x28]
            load    0xffffffff8181ec68 0x000000000181ec68 (8)
0e1c2000 ffffffff810b596f (03) 48 85c0                  TEST RAX, RAX
0e1c2000 ffffffff810b5972 (02) 74 05                    JZ 0xffffffff810b5979
0e1c2000 ffffffff810b5974 (03) 44 89f7                  MOV EDI, R14D
0e1c2000 ffffffff810b5977 (02) ffd0                     CALL RAX
            store   0xffff8800019eef20 0x00000000019eef20 (8)
0e1c2000 ffffffff8102f630 (01) 55                       PUSH RBP
            store   0xffff8800019eef18 0x00000000019eef18 (8)
0e1c2000 ffffffff8102f631 (03) 48 89e5                  MOV RBP, RSP
0e1c2000 ffffffff8102f634 (01) 53                       PUSH RBX
            store   0xffff8800019eef10 0x00000000019eef10 (8)
0e1c2000 ffffffff8102f635 (02) 89fb                     MOV EBX, EDI
0e1c2000 ffffffff8102f637 (04) 48 83ec 18               SUB RSP, 0x18
0e1c2000 ffffffff8102f63b (05) e8 60420800              CALL 0xffffffff810b38a0
            store   0xffff8800019eeef0 0x00000000019eeef0 (8)
0e1c2000 ffffffff810b38a0 (01) 55                       PUSH RBP
            store   0xffff8800019eeee8 0x00000000019eeee8 (8)
0e1c2000 ffffffff810b38a1 (07) 48 8b05 80c87600         MOV RAX, [RIP+0x76c880]
            load    0xffffffff81820128 0x0000000001820128 (8)
0e1c2000 ffffffff810b38a8 (03) 48 89e5                  MOV RBP, RSP
0e1c2000 ffffffff810b38ab (03) 48 85c0                  TEST RAX, RAX
0e1c2000 ffffffff810b38ae (02) 75 08                    JNZ 0xffffffff810b38b8
0e1c2000 ffffffff810b38b8 (06) 393d 825f6f00            CMP [RIP+0x6f5f82], EDI
            load    0xffffffff817a9840 0x00000000017a9840 (4)
0e1c2000 ffffffff810b38be (02) 76 f0                    JBE 0xffffffff810b38b0
0e1c2000 ffffffff810b38c0 (02) 89ff                     MOV EDI, EDI
0e1c2000 ffffffff810b38c2 (04) 48 8b04f8                MOV RAX, [RAX+RDI*8]
            load    0xffff88000f404008 0x000000000f404008 (8)
0e1c2000 ffffffff810b38c6 (01) c9                       LEAVE 
            load    0xffff8800019eeee8 0x00000000019eeee8 (8)
0e1c2000 ffffffff810b38c7 (01) c3                       RET 
            load    0xffff8800019eeef0 0x00000000019eeef0 (8)
0e1c2000 ffffffff8102f640 (04) 48 8d7d e8               LEA RDI, [RBP-0x18]
0e1c2000 ffffffff8102f644 (04) 48 8945 e8               MOV [RBP-0x18], RAX
            store   0xffff8800019eef00 0x00000000019eef00 (8)
0e1c2000 ffffffff8102f648 (05) e8 33f7ffff              CALL 0xffffffff8102ed80
            store   0xffff8800019eeef0 0x00000000019eeef0 (8)
0e1c2000 ffffffff8102ed80 (01) 55                       PUSH RBP
            store   0xffff8800019eeee8 0x00000000019eeee8 (8)
0e1c2000 ffffffff8102ed81 (03) 48 89e5                  MOV RBP, RSP
0e1c2000 ffffffff8102ed84 (01) 53                       PUSH RBX
            store   0xffff8800019eeee0 0x00000000019eeee0 (8)
0e1c2000 ffffffff8102ed85 (04) 48 83ec 18               SUB RSP, 0x18
0e1c2000 ffffffff8102ed89 (03) 48 8b07                  MOV RAX, [RDI]
            load    0xffff8800019eef00 0x00000000019eef00 (8)
0e1c2000 ffffffff8102ed8c (04) 48 8b58 38               MOV RBX, [RAX+0x38]
            load    0xffffffff81795338 0x0000000001795338 (8)
0e1c2000 ffffffff8102ed90 (04) f643 1d 01               TEST BYTE [RBX+0x1d], 0x1
            load    0xffffffff8179fc5d 0x000000000179fc5d (1)
0e1c2000 ffffffff8102ed94 (02) 75 07                    JNZ 0xffffffff8102ed9d
0e1c2000 ffffffff8102ed96 (04) 48 83c4 18               ADD RSP, 0x18
0e1c2000 ffffffff8102ed9a (01) 5b                       POP RBX
            load    0xffff8800019eeee0 0x00000000019eeee0 (8)
0e1c2000 ffffffff8102ed9b (01) c9                       LEAVE 
            load    0xffff8800019eeee8 0x00000000019eeee8 (8)
0e1c2000 ffffffff8102ed9c (01) c3                       RET 
            load    0xffff8800019eeef0 0x00000000019eeef0 (8)
0e1c2000 ffffffff8102f64d (02) 89df                     MOV EDI, EBX
0e1c2000 ffffffff8102f64f (05) e8 3c770800              CALL 0xffffffff810b6d90
            store   0xffff8800019eeef0 0x00000000019eeef0 (8)
0e1c2000 ffffffff810b6d90 (01) 55                       PUSH RBP
            store   0xffff8800019eeee8 0x00000000019eeee8 (8)
0e1c2000 ffffffff810b6d91 (03) 48 89e5                  MOV RBP, RSP
0e1c2000 ffffffff810b6d94 (01) 53                       PUSH RBX
            store   0xffff8800019eeee0 0x00000000019eeee0 (8)
0e1c2000 ffffffff810b6d95 (02) 89fb                     MOV EBX, EDI
0e1c2000 ffffffff810b6d97 (04) 48 83ec 18               SUB RSP, 0x18
0e1c2000 ffffffff810b6d9b (05) e8 00cbffff              CALL 0xffffffff810b38a0
            store   0xffff8800019eeec0 0x00000000019eeec0 (8)
0e1c2000 ffffffff810b38a0 (01) 55                       PUSH RBP
            store   0xffff8800019eeeb8 0x00000000019eeeb8 (8)
0e1c2000 ffffffff810b38a1 (07) 48 8b05 80c87600         MOV RAX, [RIP+0x76c880]
            load    0xffffffff81820128 0x0000000001820128 (8)
0e1c2000 ffffffff810b38a8 (03) 48 89e5                  MOV RBP, RSP
0e1c2000 ffffffff810b38ab (03) 48 85c0                  TEST RAX, RAX
0e1c2000 ffffffff810b38ae (02) 75 08                    JNZ 0xffffffff810b38b8
0e1c2000 ffffffff810b38b8 (06) 393d 825f6f00            CMP [RIP+0x6f5f82], EDI
            load    0xffffffff817a9840 0x00000000017a9840 (4)
0e1c2000 ffffffff810b38be (02) 76 f0                    JBE 0xffffffff810b38b0
0e1c2000 ffffffff810b38c0 (02) 89ff                     MOV EDI, EDI
0e1c2000 ffffffff810b38c2 (04) 48 8b04f8                MOV RAX, [RAX+RDI*8]
            load    0xffff88000f404008 0x000000000f404008 (8)
0e1c2000 ffffffff810b38c6 (01) c9                       LEAVE 
            load    0xffff8800019eeeb8 0x00000000019eeeb8 (8)
0e1c2000 ffffffff810b38c7 (01) c3                       RET 
            load    0xffff8800019eeec0 0x00000000019eeec0 (8)
0e1c2000 ffffffff810b6da0 (03) 8b50 48                  MOV EDX, [RAX+0x48]
            load    0xffffffff81795348 0x0000000001795348 (4)
0e1c2000 ffffffff810b6da3 (06) f7c2 00002000            TEST EDX, 0x200000
0e1c2000 ffffffff810b6da9 (02) 75 07                    JNZ 0xffffffff810b6db2
0e1c2000 ffffffff810b6dab (04) 48 83c4 18               ADD RSP, 0x18
0e1c2000 ffffffff810b6daf (01) 5b                       POP RBX
            load    0xffff8800019eeee0 0x00000000019eeee0 (8)
0e1c2000 ffffffff810b6db0 (01) c9                       LEAVE 
            load    0xffff8800019eeee8 0x00000000019eeee8 (8)
0e1c2000 ffffffff810b6db1 (01) c3                       RET 
            load    0xffff8800019eeef0 0x00000000019eeef0 (8)
0e1c2000 ffffffff8102f654 (07) 48 8b05 c5f57e00         MOV RAX, [RIP+0x7ef5c5]
            load    0xffffffff8181ec20 0x000000000181ec20 (8)
0e1c2000 ffffffff8102f65b (02) 31f6                     XOR ESI, ESI
0e1c2000 ffffffff8102f65d (05) bf b0000000              MOV EDI, 0xb0
0e1c2000 ffffffff8102f662 (06) ff90 38010000            CALL [RAX+0x138]
            load    0xffffffff8179ff58 0x000000000179ff58 (8)
            store   0xffff8800019eeef0 0x00000000019eeef0 (8)
0e1c2000 ffffffff810303c0 (01) 55                       PUSH RBP
            store   0xffff8800019eeee8 0x00000000019eeee8 (8)
0e1c2000 ffffffff810303c1 (02) 89ff                     MOV EDI, EDI
0e1c2000 ffffffff810303c3 (03) 48 89e5                  MOV RBP, RSP
0e1c2000 ffffffff810303c6 (06) 89b7 00c05fff            MOV [RDI-0xa04000], ESI
            store   0xffffffffff5fc0b0 0x00000000fee000b0 (4)
0e1c2000 ffffffff810303cc (01) c9                       LEAVE 
            load    0xffff8800019eeee8 0x00000000019eeee8 (8)
0e1c2000 ffffffff810303cd (01) c3                       RET 
            load    0xffff8800019eeef0 0x00000000019eeef0 (8)
0e1c2000 ffffffff8102f668 (04) 48 83c4 18               ADD RSP, 0x18
0e1c2000 ffffffff8102f66c (01) 5b                       POP RBX
            load    0xffff8800019eef10 0x00000000019eef10 (8)
0e1c2000 ffffffff8102f66d (01) c9                       LEAVE 
            load    0xffff8800019eef18 0x00000000019eef18 (8)
0e1c2000 ffffffff8102f66e (01) c3                       RET 
            load    0xffff8800019eef20 0x00000000019eef20 (8)
0e1c2000 ffffffff810b5979 (07) 814b 48 00010000         OR DWORD [RBX+0x48], 0x100
            load    0xffffffff81795348 0x0000000001795348 (4)
            store   0xffffffff81795348 0x0000000001795348 (4)
0e1c2000 ffffffff810b5980 (02) eb 26                    JMP 0xffffffff810b59a8
0e1c2000 ffffffff810b59a8 (04) 4c 8b63 40               MOV R12, [RBX+0x40]
            load    0xffffffff81795340 0x0000000001795340 (8)
0e1c2000 ffffffff810b59ac (03) 4d 85e4                  TEST R12, R12
0e1c2000 ffffffff810b59af (02) 74 6e                    JZ 0xffffffff810b5a1f
0e1c2000 ffffffff810b59b1 (03) 8b43 48                  MOV EAX, [RBX+0x48]
            load    0xffffffff81795348 0x0000000001795348 (4)
0e1c2000 ffffffff810b59b4 (02) 89c2                     MOV EDX, EAX
0e1c2000 ffffffff810b59b6 (06) 81e2 00860000            AND EDX, 0x8600
0e1c2000 ffffffff810b59bc (06) 81fa 00840000            CMP EDX, 0x8400
0e1c2000 ffffffff810b59c2 (02) 74 67                    JZ 0xffffffff810b5a2b
0e1c2000 ffffffff810b59c4 (03) 80e4 fb                  AND AH, 0xfb
0e1c2000 ffffffff810b59c7 (03) 4c 89ef                  MOV RDI, R13
0e1c2000 ffffffff810b59ca (03) 8943 48                  MOV [RBX+0x48], EAX
            store   0xffffffff81795348 0x0000000001795348 (4)
0e1c2000 ffffffff810b59cd (05) e8 ee09f8ff              CALL 0xffffffff810363c0
            store   0xffff8800019eef20 0x00000000019eef20 (8)
0e1c2000 ffffffff810363c0 (01) 55                       PUSH RBP
            store   0xffff8800019eef18 0x00000000019eef18 (8)
0e1c2000 ffffffff810363c1 (03) 48 89e5                  MOV RBP, RSP
0e1c2000 ffffffff810363c4 (02) fe07                     INC BYTE [RDI]
            load    0xffffffff81795364 0x0000000001795364 (1)
            store   0xffffffff81795364 0x0000000001795364 (1)
0e1c2000 ffffffff810363c6 (01) c9                       LEAVE 
            load    0xffff8800019eef18 0x00000000019eef18 (8)
0e1c2000 ffffffff810363c7 (01) c3                       RET 
            load    0xffff8800019eef20 0x00000000019eef20 (8)
0e1c2000 ffffffff810b59d2 (01) 66                       DB 0x66 
0e1c2000 ffffffff810b59d2 (02) 66 90                    NOP 
0e1c2000 ffffffff810b59d4 (03) 4c 89e6                  MOV RSI, R12
0e1c2000 ffffffff810b59d7 (03) 44 89f7                  MOV EDI, R14D
0e1c2000 ffffffff810b59da (05) e8 71dfffff              CALL 0xffffffff810b3950
            store   0xffff8800019eef20 0x00000000019eef20 (8)
0e1c2000 ffffffff810b3950 (01) 55                       PUSH RBP
            store   0xffff8800019eef18 0x00000000019eef18 (8)
0e1c2000 ffffffff810b3951 (03) 48 89e5                  MOV RBP, RSP
0e1c2000 ffffffff810b3954 (02) 41 57                    PUSH R15
            store   0xffff8800019eef10 0x00000000019eef10 (8)
0e1c2000 ffffffff810b3956 (02) 41 56                    PUSH R14
            store   0xffff8800019eef08 0x00000000019eef08 (8)
0e1c2000 ffffffff810b3958 (03) 41 89fe                  MOV R14D, EDI
0e1c2000 ffffffff810b395b (02) 41 55                    PUSH R13
            store   0xffff8800019eef00 0x00000000019eef00 (8)
0e1c2000 ffffffff810b395d (02) 41 54                    PUSH R12
            store   0xffff8800019eeef8 0x00000000019eeef8 (8)
0e1c2000 ffffffff810b395f (01) 53                       PUSH RBX
            store   0xffff8800019eeef0 0x00000000019eeef0 (8)
0e1c2000 ffffffff810b3960 (03) 48 89f3                  MOV RBX, RSI
0e1c2000 ffffffff810b3963 (04) 48 83ec 18               SUB RSP, 0x18
0e1c2000 ffffffff810b3967 (04) f646 08 20               TEST BYTE [RSI+0x8], 0x20
            load    0xffff88000d975f68 0x000000000d975f68 (1)
0e1c2000 ffffffff810b396b (02) 75 07                    JNZ 0xffffffff810b3974
0e1c2000 ffffffff810b396d (01) fb                       STI 
0e1c2000 ffffffff810b396e (01) 66                       DB 0x66 
0e1c2000 ffffffff810b396f (01) 66                       DB 0x66 
0e1c2000 ffffffff810b396f (02) 66 90                    NOP 
0e1c2000 ffffffff810b3971 (01) 66                       DB 0x66 
0e1c2000 ffffffff810b3972 (01) 66                       DB 0x66 
0e1c2000 ffffffff810b3972 (02) 66 90                    NOP 
0e1c2000 ffffffff810b3974 (03) 45 31ed                  XOR R13D, R13D
0e1c2000 ffffffff810b3977 (03) 45 31e4                  XOR R12D, R12D
0e1c2000 ffffffff810b397a (02) eb 15                    JMP 0xffffffff810b3991
0e1c2000 ffffffff810b3991 (06) 8b0d 31677600            MOV ECX, [RIP+0x766731]
            load    0xffffffff8181a0c8 0x000000000181a0c8 (4)
0e1c2000 ffffffff810b3997 (02) 85c9                     TEST ECX, ECX
0e1c2000 ffffffff810b3999 (06) 0f85 af000000            JNZ 0xffffffff810b3a4e
0e1c2000 ffffffff810b399f (04) 48 8b73 20               MOV RSI, [RBX+0x20]
            load    0xffff88000d975f80 0x000000000d975f80 (8)
0e1c2000 ffffffff810b39a3 (03) 44 89f7                  MOV EDI, R14D
0e1c2000 ffffffff810b39a6 (02) ff13                     CALL [RBX]
            load    0xffff88000d975f60 0x000000000d975f60 (8)
            store   0xffff8800019eeed0 0x00000000019eeed0 (8)
0e1c2000 ffffffff813c2ac0 (01) 55                       PUSH RBP
            store   0xffff8800019eeec8 0x00000000019eeec8 (8)
0e1c2000 ffffffff813c2ac1 (03) 48 89e5                  MOV RBP, RSP
0e1c2000 ffffffff813c2ac4 (04) 48 83ec 40               SUB RSP, 0x40
0e1c2000 ffffffff813c2ac8 (04) 4c 897d f8               MOV [RBP-0x8], R15
            store   0xffff8800019eeec0 0x00000000019eeec0 (8)
0e1c2000 ffffffff813c2acc (03) 41 89ff                  MOV R15D, EDI
0e1c2000 ffffffff813c2acf (07) 48 c7c7 40b09d81         MOV RDI, -0x7e624fc0
0e1c2000 ffffffff813c2ad6 (04) 48 895d d8               MOV [RBP-0x28], RBX
            store   0xffff8800019eeea0 0x00000000019eeea0 (8)
0e1c2000 ffffffff813c2ada (04) 4c 8965 e0               MOV [RBP-0x20], R12
            store   0xffff8800019eeea8 0x00000000019eeea8 (8)
0e1c2000 ffffffff813c2ade (04) 4c 896d e8               MOV [RBP-0x18], R13
            store   0xffff8800019eeeb0 0x00000000019eeeb0 (8)
0e1c2000 ffffffff813c2ae2 (04) 4c 8975 f0               MOV [RBP-0x10], R14
            store   0xffff8800019eeeb8 0x00000000019eeeb8 (8)
0e1c2000 ffffffff813c2ae6 (05) e8 556e1600              CALL 0xffffffff81529940
            store   0xffff8800019eee80 0x00000000019eee80 (8)
0e1c2000 ffffffff81529940 (01) 55                       PUSH RBP
            store   0xffff8800019eee78 0x00000000019eee78 (8)
0e1c2000 ffffffff81529941 (03) 48 89e5                  MOV RBP, RSP
0e1c2000 ffffffff81529944 (04) 48 83ec 10               SUB RSP, 0x10
0e1c2000 ffffffff81529948 (04) 48 891c24                MOV [RSP], RBX
            store   0xffff8800019eee68 0x00000000019eee68 (8)
0e1c2000 ffffffff8152994c (05) 4c 896424 08             MOV [RSP+0x8], R12
            store   0xffff8800019eee70 0x00000000019eee70 (8)
0e1c2000 ffffffff81529951 (01) 9c                       PUSHF 
            store   0xffff8800019eee60 0x00000000019eee60 (8)
0e1c2000 ffffffff81529952 (01) 58                       POP RAX
            load    0xffff8800019eee60 0x00000000019eee60 (8)
0e1c2000 ffffffff81529953 (01) 66                       DB 0x66 
0e1c2000 ffffffff81529954 (01) 66                       DB 0x66 
0e1c2000 ffffffff81529954 (02) 66 90                    NOP 
0e1c2000 ffffffff81529956 (01) 66                       DB 0x66 
0e1c2000 ffffffff81529956 (02) 66 90                    NOP 
0e1c2000 ffffffff81529958 (03) 48 89c3                  MOV RBX, RAX
0e1c2000 ffffffff8152995b (01) fa                       CLI 
0e1c2000 ffffffff8152995c (01) 66                       DB 0x66 
0e1c2000 ffffffff8152995d (01) 66                       DB 0x66 
0e1c2000 ffffffff8152995d (02) 66 90                    NOP 
0e1c2000 ffffffff8152995f (01) 66                       DB 0x66 
0e1c2000 ffffffff81529960 (01) 66                       DB 0x66 
0e1c2000 ffffffff81529960 (02) 66 90                    NOP 
0e1c2000 ffffffff81529962 (03) 48 89de                  MOV RSI, RBX
0e1c2000 ffffffff81529965 (05) e8 a6cab0ff              CALL 0xffffffff81036410
            store   0xffff8800019eee60 0x00000000019eee60 (8)
0e1c2000 ffffffff81036410 (01) 55                       PUSH RBP
            store   0xffff8800019eee58 0x00000000019eee58 (8)
0e1c2000 ffffffff81036411 (03) 48 89e5                  MOV RBP, RSP
0e1c2000 ffffffff81036414 (05) e8 67ffffff              CALL 0xffffffff81036380
            store   0xffff8800019eee50 0x00000000019eee50 (8)
0e1c2000 ffffffff81036380 (01) 55                       PUSH RBP
            store   0xffff8800019eee48 0x00000000019eee48 (8)
0e1c2000 ffffffff81036381 (05) b8 00010000              MOV EAX, 0x100
0e1c2000 ffffffff81036386 (03) 48 89e5                  MOV RBP, RSP
0e1c2000 ffffffff81036389 (01) 3e                       DB 0x3e 
0e1c2000 ffffffff81036389 (05) 3e 66 0fc107             XADD [RDI], AX
            load    0xffffffff819db040 0x00000000019db040 (2)
            store   0xffffffff819db040 0x00000000019db040 (2)
0e1c2000 ffffffff8103638e (02) 38e0                     CMP AL, AH
0e1c2000 ffffffff81036390 (02) 74 06                    JZ 0xffffffff81036398
0e1c2000 ffffffff81036398 (01) c9                       LEAVE 
            load    0xffff8800019eee48 0x00000000019eee48 (8)
0e1c2000 ffffffff81036399 (01) c3                       RET 
            load    0xffff8800019eee50 0x00000000019eee50 (8)
0e1c2000 ffffffff81036419 (01) 66                       DB 0x66 
0e1c2000 ffffffff81036419 (02) 66 90                    NOP 
0e1c2000 ffffffff8103641b (01) c9                       LEAVE 
            load    0xffff8800019eee58 0x00000000019eee58 (8)
0e1c2000 ffffffff8103641c (01) c3                       RET 
            load    0xffff8800019eee60 0x00000000019eee60 (8)
0e1c2000 ffffffff8152996a (01) 66                       DB 0x66 
0e1c2000 ffffffff8152996a (02) 66 90                    NOP 
0e1c2000 ffffffff8152996c (03) 48 89d8                  MOV RAX, RBX
0e1c2000 ffffffff8152996f (05) 4c 8b6424 08             MOV R12, [RSP+0x8]
            load    0xffff8800019eee70 0x00000000019eee70 (8)
0e1c2000 ffffffff81529974 (04) 48 8b1c24                MOV RBX, [RSP]
            load    0xffff8800019eee68 0x00000000019eee68 (8)
0e1c2000 ffffffff81529978 (01) c9                       LEAVE 
            load    0xffff8800019eee78 0x00000000019eee78 (8)
0e1c2000 ffffffff81529979 (01) c3                       RET 
            load    0xffff8800019eee80 0x00000000019eee80 (8)
0e1c2000 ffffffff813c2aeb (06) 8b15 93f64200            MOV EDX, [RIP+0x42f693]
            load    0xffffffff817f2184 0x00000000017f2184 (4)
0e1c2000 ffffffff813c2af1 (03) 48 89c6                  MOV RSI, RAX
0e1c2000 ffffffff813c2af4 (01) ec                       IN AL, DX
0e1c2000 ffffffff813c2af5 (04) 44 0fb6e0                MOVZX R12D, AL
0e1c2000 ffffffff813c2af9 (03) 41 89c6                  MOV R14D, EAX
0e1c2000 ffffffff813c2afc (04) 41 f6c4 01               TEST R12B, 0x1
0e1c2000 ffffffff813c2b00 (06) 0f84 4e010000            JZ 0xffffffff813c2c54
0e1c2000 ffffffff813c2b06 (06) 8b15 74f64200            MOV EDX, [RIP+0x42f674]
            load    0xffffffff817f2180 0x00000000017f2180 (4)
0e1c2000 ffffffff813c2b0c (01) ec                       IN AL, DX
0e1c2000 ffffffff813c2b0d (07) 48 c7c7 40b09d81         MOV RDI, -0x7e624fc0
0e1c2000 ffffffff813c2b14 (03) 41 89c5                  MOV R13D, EAX
0e1c2000 ffffffff813c2b17 (05) e8 846f1600              CALL 0xffffffff81529aa0
            store   0xffff8800019eee80 0x00000000019eee80 (8)
0e1c2000 ffffffff81529aa0 (01) 55                       PUSH RBP
            store   0xffff8800019eee78 0x00000000019eee78 (8)
0e1c2000 ffffffff81529aa1 (03) 48 89e5                  MOV RBP, RSP
0e1c2000 ffffffff81529aa4 (01) 53                       PUSH RBX
            store   0xffff8800019eee70 0x00000000019eee70 (8)
0e1c2000 ffffffff81529aa5 (03) 48 89f3                  MOV RBX, RSI
0e1c2000 ffffffff81529aa8 (05) e8 13c9b0ff              CALL 0xffffffff810363c0
            store   0xffff8800019eee68 0x00000000019eee68 (8)
0e1c2000 ffffffff810363c0 (01) 55                       PUSH RBP
            store   0xffff8800019eee60 0x00000000019eee60 (8)
0e1c2000 ffffffff810363c1 (03) 48 89e5                  MOV RBP, RSP
0e1c2000 ffffffff810363c4 (02) fe07                     INC BYTE [RDI]
            load    0xffffffff819db040 0x00000000019db040 (1)
            store   0xffffffff819db040 0x00000000019db040 (1)
0e1c2000 ffffffff810363c6 (01) c9                       LEAVE 
            load    0xffff8800019eee60 0x00000000019eee60 (8)
0e1c2000 ffffffff810363c7 (01) c3                       RET 
            load    0xffff8800019eee68 0x00000000019eee68 (8)
0e1c2000 ffffffff81529aad (01) 66                       DB 0x66 
0e1c2000 ffffffff81529aad (02) 66 90                    NOP 
0e1c2000 ffffffff81529aaf (03) 48 89df                  MOV RDI, RBX
0e1c2000 ffffffff81529ab2 (01) 57                       PUSH RDI
            store   0xffff8800019eee68 0x00000000019eee68 (8)
0e1c2000 ffffffff81529ab3 (01) 9d                       POPF 
            load    0xffff8800019eee68 0x00000000019eee68 (8)
0e1c2000 ffffffff81529ab4 (01) 66                       DB 0x66 
0e1c2000 ffffffff81529ab5 (01) 66                       DB 0x66 
0e1c2000 ffffffff81529ab5 (02) 66 90                    NOP 
0e1c2000 ffffffff81529ab7 (01) 66                       DB 0x66 
0e1c2000 ffffffff81529ab7 (02) 66 90                    NOP 
0e1c2000 ffffffff81529ab9 (01) 5b                       POP RBX
            load    0xffff8800019eee70 0x00000000019eee70 (8)
0e1c2000 ffffffff81529aba (01) c9                       LEAVE 
            load    0xffff8800019eee78 0x00000000019eee78 (8)
0e1c2000 ffffffff81529abb (01) c3                       RET 
            load    0xffff8800019eee80 0x00000000019eee80 (8)
0e1c2000 ffffffff813c2b1c (07) 803d 5f866100 00         CMP BYTE [RIP+0x61865f], 0x0
            load    0xffffffff819db182 0x00000000019db182 (1)
0e1c2000 ffffffff813c2b23 (06) 0f85 87000000            JNZ 0xffffffff813c2bb0
0e1c2000 ffffffff813c2b29 (03) 44 89e0                  MOV EAX, R12D
0e1c2000 ffffffff813c2b2c (03) 83e0 20                  AND EAX, 0x20
0e1c2000 ffffffff813c2b2f (03) 44 89f3                  MOV EBX, R14D
0e1c2000 ffffffff813c2b32 (04) 41 c1ec 06               SHR R12D, 0x6
0e1c2000 ffffffff813c2b36 (03) c1eb 06                  SHR EBX, 0x6
0e1c2000 ffffffff813c2b39 (04) 41 83e4 01               AND R12D, 0x1
0e1c2000 ffffffff813c2b3d (03) 83e3 02                  AND EBX, 0x2
0e1c2000 ffffffff813c2b40 (03) 44 09e3                  OR EBX, R12D
0e1c2000 ffffffff813c2b43 (03) 45 31e4                  XOR R12D, R12D
0e1c2000 ffffffff813c2b46 (02) 85c0                     TEST EAX, EAX
0e1c2000 ffffffff813c2b48 (06) 8b05 3a856100            MOV EAX, [RIP+0x61853a]
            load    0xffffffff819db088 0x00000000019db088 (4)
0e1c2000 ffffffff813c2b4e (04) 41 0f95c4                SETNZ R12B
0e1c2000 ffffffff813c2b52 (02) 85c0                     TEST EAX, EAX
0e1c2000 ffffffff813c2b54 (06) 0f85 1f010000            JNZ 0xffffffff813c2c79
0e1c2000 ffffffff813c2b5a (07) 0fb605 24866100          MOVZX EAX, BYTE [RIP+0x618624]
            load    0xffffffff819db185 0x00000000019db185 (1)
0e1c2000 ffffffff813c2b61 (02) 84c0                     TEST AL, AL
0e1c2000 ffffffff813c2b63 (06) 0f85 62010000            JNZ 0xffffffff813c2ccb
0e1c2000 ffffffff813c2b69 (03) 45 89e4                  MOV R12D, R12D
0e1c2000 ffffffff813c2b6c (04) 49 c1e4 04               SHL R12, 0x4
0e1c2000 ffffffff813c2b70 (09) 41 80bc24 2cb19d81 00    CMP BYTE [R12-0x7e624ed4], 0x0
            load    0xffffffff819db12c 0x00000000019db12c (1)
0e1c2000 ffffffff813c2b79 (02) 74 13                    JZ 0xffffffff813c2b8e
0e1c2000 ffffffff813c2b7b (08) 49 8bbc24 20b19d81       MOV RDI, [R12-0x7e624ee0]
            load    0xffffffff819db120 0x00000000019db120 (8)
0e1c2000 ffffffff813c2b83 (04) 41 0fb6f5                MOVZX ESI, R13B
0e1c2000 ffffffff813c2b87 (02) 89da                     MOV EDX, EBX
0e1c2000 ffffffff813c2b89 (05) e8 42f2ffff              CALL 0xffffffff813c1dd0
            store   0xffff8800019eee80 0x00000000019eee80 (8)
0e1c2000 ffffffff813c1dd0 (01) 55                       PUSH RBP
            store   0xffff8800019eee78 0x00000000019eee78 (8)
0e1c2000 ffffffff813c1dd1 (03) 48 89e5                  MOV RBP, RSP
0e1c2000 ffffffff813c1dd4 (04) 48 83ec 30               SUB RSP, 0x30
0e1c2000 ffffffff813c1dd8 (04) 4c 8965 e0               MOV [RBP-0x20], R12
            store   0xffff8800019eee58 0x00000000019eee58 (8)
0e1c2000 ffffffff813c1ddc (04) 4c 8d67 50               LEA R12, [RDI+0x50]
0e1c2000 ffffffff813c1de0 (04) 48 895d d8               MOV [RBP-0x28], RBX
            store   0xffff8800019eee50 0x00000000019eee50 (8)
0e1c2000 ffffffff813c1de4 (03) 48 89fb                  MOV RBX, RDI
0e1c2000 ffffffff813c1de7 (04) 4c 896d e8               MOV [RBP-0x18], R13
            store   0xffff8800019eee60 0x00000000019eee60 (8)
0e1c2000 ffffffff813c1deb (04) 4c 8975 f0               MOV [RBP-0x10], R14
            store   0xffff8800019eee68 0x00000000019eee68 (8)
0e1c2000 ffffffff813c1def (03) 4c 89e7                  MOV RDI, R12
0e1c2000 ffffffff813c1df2 (04) 4c 897d f8               MOV [RBP-0x8], R15
            store   0xffff8800019eee70 0x00000000019eee70 (8)
0e1c2000 ffffffff813c1df6 (03) 41 89d6                  MOV R14D, EDX
0e1c2000 ffffffff813c1df9 (03) 41 89f7                  MOV R15D, ESI
0e1c2000 ffffffff813c1dfc (05) e8 3f7b1600              CALL 0xffffffff81529940
            store   0xffff8800019eee40 0x00000000019eee40 (8)
0e1c2000 ffffffff81529940 (01) 55                       PUSH RBP
            store   0xffff8800019eee38 0x00000000019eee38 (8)
0e1c2000 ffffffff81529941 (03) 48 89e5                  MOV RBP, RSP
0e1c2000 ffffffff81529944 (04) 48 83ec 10               SUB RSP, 0x10
0e1c2000 ffffffff81529948 (04) 48 891c24                MOV [RSP], RBX
            store   0xffff8800019eee28 0x00000000019eee28 (8)
0e1c2000 ffffffff8152994c (05) 4c 896424 08             MOV [RSP+0x8], R12
            store   0xffff8800019eee30 0x00000000019eee30 (8)
0e1c2000 ffffffff81529951 (01) 9c                       PUSHF 
            store   0xffff8800019eee20 0x00000000019eee20 (8)
0e1c2000 ffffffff81529952 (01) 58                       POP RAX
            load    0xffff8800019eee20 0x00000000019eee20 (8)
0e1c2000 ffffffff81529953 (01) 66                       DB 0x66 
0e1c2000 ffffffff81529954 (01) 66                       DB 0x66 
0e1c2000 ffffffff81529954 (02) 66 90                    NOP 
0e1c2000 ffffffff81529956 (01) 66                       DB 0x66 
0e1c2000 ffffffff81529956 (02) 66 90                    NOP 
0e1c2000 ffffffff81529958 (03) 48 89c3                  MOV RBX, RAX
0e1c2000 ffffffff8152995b (01) fa                       CLI 
0e1c2000 ffffffff8152995c (01) 66                       DB 0x66 
0e1c2000 ffffffff8152995d (01) 66                       DB 0x66 
0e1c2000 ffffffff8152995d (02) 66 90                    NOP 
0e1c2000 ffffffff8152995f (01) 66                       DB 0x66 
0e1c2000 ffffffff81529960 (01) 66                       DB 0x66 
0e1c2000 ffffffff81529960 (02) 66 90                    NOP 
0e1c2000 ffffffff81529962 (03) 48 89de                  MOV RSI, RBX
0e1c2000 ffffffff81529965 (05) e8 a6cab0ff              CALL 0xffffffff81036410
            store   0xffff8800019eee20 0x00000000019eee20 (8)
0e1c2000 ffffffff81036410 (01) 55                       PUSH RBP
            store   0xffff8800019eee18 0x00000000019eee18 (8)
0e1c2000 ffffffff81036411 (03) 48 89e5                  MOV RBP, RSP
0e1c2000 ffffffff81036414 (05) e8 67ffffff              CALL 0xffffffff81036380
            store   0xffff8800019eee10 0x00000000019eee10 (8)
0e1c2000 ffffffff81036380 (01) 55                       PUSH RBP
            store   0xffff8800019eee08 0x00000000019eee08 (8)
0e1c2000 ffffffff81036381 (05) b8 00010000              MOV EAX, 0x100
0e1c2000 ffffffff81036386 (03) 48 89e5                  MOV RBP, RSP
0e1c2000 ffffffff81036389 (01) 3e                       DB 0x3e 
0e1c2000 ffffffff81036389 (05) 3e 66 0fc107             XADD [RDI], AX
            load    0xffff88000da33050 0x000000000da33050 (2)
            store   0xffff88000da33050 0x000000000da33050 (2)
0e1c2000 ffffffff8103638e (02) 38e0                     CMP AL, AH
0e1c2000 ffffffff81036390 (02) 74 06                    JZ 0xffffffff81036398
0e1c2000 ffffffff81036398 (01) c9                       LEAVE 
            load    0xffff8800019eee08 0x00000000019eee08 (8)
0e1c2000 ffffffff81036399 (01) c3                       RET 
            load    0xffff8800019eee10 0x00000000019eee10 (8)
0e1c2000 ffffffff81036419 (01) 66                       DB 0x66 
0e1c2000 ffffffff81036419 (02) 66 90                    NOP 
0e1c2000 ffffffff8103641b (01) c9                       LEAVE 
            load    0xffff8800019eee18 0x00000000019eee18 (8)
0e1c2000 ffffffff8103641c (01) c3                       RET 
            load    0xffff8800019eee20 0x00000000019eee20 (8)
0e1c2000 ffffffff8152996a (01) 66                       DB 0x66 
0e1c2000 ffffffff8152996a (02) 66 90                    NOP 
0e1c2000 ffffffff8152996c (03) 48 89d8                  MOV RAX, RBX
0e1c2000 ffffffff8152996f (05) 4c 8b6424 08             MOV R12, [RSP+0x8]
            load    0xffff8800019eee30 0x00000000019eee30 (8)
0e1c2000 ffffffff81529974 (04) 48 8b1c24                MOV RBX, [RSP]
            load    0xffff8800019eee28 0x00000000019eee28 (8)
0e1c2000 ffffffff81529978 (01) c9                       LEAVE 
            load    0xffff8800019eee38 0x00000000019eee38 (8)
0e1c2000 ffffffff81529979 (01) c3                       RET 
            load    0xffff8800019eee40 0x00000000019eee40 (8)
0e1c2000 ffffffff813c1e01 (03) 49 89c5                  MOV R13, RAX
0e1c2000 ffffffff813c1e04 (07) 48 8b83 98000000         MOV RAX, [RBX+0x98]
            load    0xffff88000da33098 0x000000000da33098 (8)
0e1c2000 ffffffff813c1e0b (03) 48 85c0                  TEST RAX, RAX
0e1c2000 ffffffff813c1e0e (02) 74 32                    JZ 0xffffffff813c1e42
0e1c2000 ffffffff813c1e10 (03) 48 89df                  MOV RDI, RBX
0e1c2000 ffffffff813c1e13 (04) 41 0fb6f7                MOVZX ESI, R15B
0e1c2000 ffffffff813c1e17 (03) 44 89f2                  MOV EDX, R14D
0e1c2000 ffffffff813c1e1a (03) ff50 28                  CALL [RAX+0x28]
            load    0xffffffff817f2ca8 0x00000000017f2ca8 (8)
            store   0xffff8800019eee40 0x00000000019eee40 (8)
0e1c2000 ffffffff813cb870 (01) 55                       PUSH RBP
            store   0xffff8800019eee38 0x00000000019eee38 (8)
0e1c2000 ffffffff813cb871 (03) 48 89e5                  MOV RBP, RSP
0e1c2000 ffffffff813cb874 (04) 48 83ec 60               SUB RSP, 0x60
0e1c2000 ffffffff813cb878 (04) 4c 896d e8               MOV [RBP-0x18], R13
            store   0xffff8800019eee20 0x00000000019eee20 (8)
0e1c2000 ffffffff813cb87c (04) 4c 8975 f0               MOV [RBP-0x10], R14
            store   0xffff8800019eee28 0x00000000019eee28 (8)
0e1c2000 ffffffff813cb880 (03) 49 89fd                  MOV R13, RDI
0e1c2000 ffffffff813cb883 (04) 48 895d d8               MOV [RBP-0x28], RBX
            store   0xffff8800019eee10 0x00000000019eee10 (8)
0e1c2000 ffffffff813cb887 (04) 4c 8965 e0               MOV [RBP-0x20], R12
            store   0xffff8800019eee18 0x00000000019eee18 (8)
0e1c2000 ffffffff813cb88b (03) 41 89f6                  MOV R14D, ESI
0e1c2000 ffffffff813cb88e (04) 4c 897d f8               MOV [RBP-0x8], R15
            store   0xffff8800019eee30 0x00000000019eee30 (8)
0e1c2000 ffffffff813cb892 (07) 48 8b9f 48010000         MOV RBX, [RDI+0x148]
            load    0xffff88000da33148 0x000000000da33148 (8)
0e1c2000 ffffffff813cb899 (04) 48 8b43 40               MOV RAX, [RBX+0x40]
            load    0xffff88000f28b840 0x000000000f28b840 (8)
0e1c2000 ffffffff813cb89d (04) 4c 8b7b 50               MOV R15, [RBX+0x50]
            load    0xffff88000f28b850 0x000000000f28b850 (8)
0e1c2000 ffffffff813cb8a1 (02) a8 01                    TEST AL, 0x1
0e1c2000 ffffffff813cb8a3 (06) 0f85 2e060000            JNZ 0xffffffff813cbed7
0e1c2000 ffffffff813cb8a9 (02) a8 02                    TEST AL, 0x2
0e1c2000 ffffffff813cb8ab (06) 0f85 43060000            JNZ 0xffffffff813cbef4
0e1c2000 ffffffff813cb8b1 (07) 80bb 07050000 00         CMP BYTE [RBX+0x507], 0x0
            load    0xffff88000f28bd07 0x000000000f28bd07 (1)
0e1c2000 ffffffff813cb8b8 (02) 75 1e                    JNZ 0xffffffff813cb8d8
0e1c2000 ffffffff813cb8d8 (04) 41 0fb6c6                MOVZX EAX, R14B
0e1c2000 ffffffff813cb8dc (05) ba 03000000              MOV EDX, 0x3
0e1c2000 ffffffff813cb8e1 (05) be 04000000              MOV ESI, 0x4
0e1c2000 ffffffff813cb8e6 (02) 89c1                     MOV ECX, EAX
0e1c2000 ffffffff813cb8e8 (03) 4c 89ff                  MOV RDI, R15
0e1c2000 ffffffff813cb8eb (03) 8945 b0                  MOV [RBP-0x50], EAX
            store   0xffff8800019eede8 0x00000000019eede8 (4)
0e1c2000 ffffffff813cb8ee (05) e8 7dafffff              CALL 0xffffffff813c6870
            store   0xffff8800019eedd0 0x00000000019eedd0 (8)
0e1c2000 ffffffff813c6870 (01) 55                       PUSH RBP
            store   0xffff8800019eedc8 0x00000000019eedc8 (8)
0e1c2000 ffffffff813c6871 (03) 48 89e5                  MOV RBP, RSP
0e1c2000 ffffffff813c6874 (04) 48 83ec 40               SUB RSP, 0x40
0e1c2000 ffffffff813c6878 (03) 83fe 1f                  CMP ESI, 0x1f
0e1c2000 ffffffff813c687b (04) 48 895d d8               MOV [RBP-0x28], RBX
            store   0xffff8800019eeda0 0x00000000019eeda0 (8)
0e1c2000 ffffffff813c687f (04) 4c 8965 e0               MOV [RBP-0x20], R12
            store   0xffff8800019eeda8 0x00000000019eeda8 (8)
0e1c2000 ffffffff813c6883 (02) 89f3                     MOV EBX, ESI
0e1c2000 ffffffff813c6885 (04) 4c 896d e8               MOV [RBP-0x18], R13
            store   0xffff8800019eedb0 0x00000000019eedb0 (8)
0e1c2000 ffffffff813c6889 (04) 4c 8975 f0               MOV [RBP-0x10], R14
            store   0xffff8800019eedb8 0x00000000019eedb8 (8)
0e1c2000 ffffffff813c688d (03) 49 89fc                  MOV R12, RDI
0e1c2000 ffffffff813c6890 (04) 4c 897d f8               MOV [RBP-0x8], R15
            store   0xffff8800019eedc0 0x00000000019eedc0 (8)
0e1c2000 ffffffff813c6894 (03) 41 89d5                  MOV R13D, EDX
0e1c2000 ffffffff813c6897 (02) 77 0a                    JA 0xffffffff813c68a3
0e1c2000 ffffffff813c6899 (04) 0fa377 20                BT [RDI+0x20], ESI
            load    0xffff88000d9ac020 0x000000000d9ac020 (4)
0e1c2000 ffffffff813c689d (02) 19c0                     SBB EAX, EAX
0e1c2000 ffffffff813c689f (02) 85c0                     TEST EAX, EAX
0e1c2000 ffffffff813c68a1 (02) 75 1d                    JNZ 0xffffffff813c68c0
0e1c2000 ffffffff813c68c0 (07) 4c 8db7 00080000         LEA R14, [RDI+0x800]
0e1c2000 ffffffff813c68c7 (03) 894d c8                  MOV [RBP-0x38], ECX
            store   0xffff8800019eed90 0x00000000019eed90 (4)
0e1c2000 ffffffff813c68ca (03) 4c 89f7                  MOV RDI, R14
0e1c2000 ffffffff813c68cd (05) e8 6e301600              CALL 0xffffffff81529940
            store   0xffff8800019eed80 0x00000000019eed80 (8)
0e1c2000 ffffffff81529940 (01) 55                       PUSH RBP
            store   0xffff8800019eed78 0x00000000019eed78 (8)
0e1c2000 ffffffff81529941 (03) 48 89e5                  MOV RBP, RSP
0e1c2000 ffffffff81529944 (04) 48 83ec 10               SUB RSP, 0x10
0e1c2000 ffffffff81529948 (04) 48 891c24                MOV [RSP], RBX
            store   0xffff8800019eed68 0x00000000019eed68 (8)
0e1c2000 ffffffff8152994c (05) 4c 896424 08             MOV [RSP+0x8], R12
            store   0xffff8800019eed70 0x00000000019eed70 (8)
0e1c2000 ffffffff81529951 (01) 9c                       PUSHF 
            store   0xffff8800019eed60 0x00000000019eed60 (8)
0e1c2000 ffffffff81529952 (01) 58                       POP RAX
            load    0xffff8800019eed60 0x00000000019eed60 (8)
0e1c2000 ffffffff81529953 (01) 66                       DB 0x66 
0e1c2000 ffffffff81529954 (01) 66                       DB 0x66 
0e1c2000 ffffffff81529954 (02) 66 90                    NOP 
0e1c2000 ffffffff81529956 (01) 66                       DB 0x66 
0e1c2000 ffffffff81529956 (02) 66 90                    NOP 
0e1c2000 ffffffff81529958 (03) 48 89c3                  MOV RBX, RAX
0e1c2000 ffffffff8152995b (01) fa                       CLI 
0e1c2000 ffffffff8152995c (01) 66                       DB 0x66 
0e1c2000 ffffffff8152995d (01) 66                       DB 0x66 
0e1c2000 ffffffff8152995d (02) 66 90                    NOP 
0e1c2000 ffffffff8152995f (01) 66                       DB 0x66 
0e1c2000 ffffffff81529960 (01) 66                       DB 0x66 
0e1c2000 ffffffff81529960 (02) 66 90                    NOP 
0e1c2000 ffffffff81529962 (03) 48 89de                  MOV RSI, RBX
0e1c2000 ffffffff81529965 (05) e8 a6cab0ff              CALL 0xffffffff81036410
            store   0xffff8800019eed60 0x00000000019eed60 (8)
0e1c2000 ffffffff81036410 (01) 55                       PUSH RBP
            store   0xffff8800019eed58 0x00000000019eed58 (8)
0e1c2000 ffffffff81036411 (03) 48 89e5                  MOV RBP, RSP
0e1c2000 ffffffff81036414 (05) e8 67ffffff              CALL 0xffffffff81036380
            store   0xffff8800019eed50 0x00000000019eed50 (8)
0e1c2000 ffffffff81036380 (01) 55                       PUSH RBP
            store   0xffff8800019eed48 0x00000000019eed48 (8)
0e1c2000 ffffffff81036381 (05) b8 00010000              MOV EAX, 0x100
0e1c2000 ffffffff81036386 (03) 48 89e5                  MOV RBP, RSP
0e1c2000 ffffffff81036389 (01) 3e                       DB 0x3e 
0e1c2000 ffffffff81036389 (05) 3e 66 0fc107             XADD [RDI], AX
            load    0xffff88000d9ac800 0x000000000d9ac800 (2)
            store   0xffff88000d9ac800 0x000000000d9ac800 (2)
0e1c2000 ffffffff8103638e (02) 38e0                     CMP AL, AH
0e1c2000 ffffffff81036390 (02) 74 06                    JZ 0xffffffff81036398
0e1c2000 ffffffff81036398 (01) c9                       LEAVE 
            load    0xffff8800019eed48 0x00000000019eed48 (8)
0e1c2000 ffffffff81036399 (01) c3                       RET 
            load    0xffff8800019eed50 0x00000000019eed50 (8)
0e1c2000 ffffffff81036419 (01) 66                       DB 0x66 
0e1c2000 ffffffff81036419 (02) 66 90                    NOP 
0e1c2000 ffffffff8103641b (01) c9                       LEAVE 
            load    0xffff8800019eed58 0x00000000019eed58 (8)
0e1c2000 ffffffff8103641c (01) c3                       RET 
            load    0xffff8800019eed60 0x00000000019eed60 (8)
0e1c2000 ffffffff8152996a (01) 66                       DB 0x66 
0e1c2000 ffffffff8152996a (02) 66 90                    NOP 
0e1c2000 ffffffff8152996c (03) 48 89d8                  MOV RAX, RBX
0e1c2000 ffffffff8152996f (05) 4c 8b6424 08             MOV R12, [RSP+0x8]
            load    0xffff8800019eed70 0x00000000019eed70 (8)
0e1c2000 ffffffff81529974 (04) 48 8b1c24                MOV RBX, [RSP]
            load    0xffff8800019eed68 0x00000000019eed68 (8)
0e1c2000 ffffffff81529978 (01) c9                       LEAVE 
            load    0xffff8800019eed78 0x00000000019eed78 (8)
0e1c2000 ffffffff81529979 (01) c3                       RET 
            load    0xffff8800019eed80 0x00000000019eed80 (8)
0e1c2000 ffffffff813c68d2 (03) 8b4d c8                  MOV ECX, [RBP-0x38]
            load    0xffff8800019eed90 0x00000000019eed90 (4)
0e1c2000 ffffffff813c68d5 (03) 44 89ee                  MOV ESI, R13D
0e1c2000 ffffffff813c68d8 (02) 89df                     MOV EDI, EBX
0e1c2000 ffffffff813c68da (03) 49 89c7                  MOV R15, RAX
0e1c2000 ffffffff813c68dd (02) 89ca                     MOV EDX, ECX
0e1c2000 ffffffff813c68df (05) e8 aca1f2ff              CALL 0xffffffff812f0a90
            store   0xffff8800019eed80 0x00000000019eed80 (8)
0e1c2000 ffffffff812f0a90 (07) 0fb605 a9f96d00          MOVZX EAX, BYTE [RIP+0x6df9a9]
            load    0xffffffff819d0440 0x00000000019d0440 (1)
0e1c2000 ffffffff812f0a97 (01) 55                       PUSH RBP
            store   0xffff8800019eed78 0x00000000019eed78 (8)
0e1c2000 ffffffff812f0a98 (03) 48 89e5                  MOV RBP, RSP
0e1c2000 ffffffff812f0a9b (02) 39d0                     CMP EAX, EDX
0e1c2000 ffffffff812f0a9d (02) 74 20                    JZ 0xffffffff812f0abf
0e1c2000 ffffffff812f0a9f (03) c1e7 04                  SHL EDI, 0x4
0e1c2000 ffffffff812f0aa2 (06) 8815 98f96d00            MOV [RIP+0x6df998], DL
            store   0xffffffff819d0440 0x00000000019d0440 (1)
0e1c2000 ffffffff812f0aa8 (02) 31f7                     XOR EDI, ESI
0e1c2000 ffffffff812f0aaa (03) c1ee 04                  SHR ESI, 0x4
0e1c2000 ffffffff812f0aad (02) 31d7                     XOR EDI, EDX
0e1c2000 ffffffff812f0aaf (02) 31f7                     XOR EDI, ESI
0e1c2000 ffffffff812f0ab1 (02) 89fe                     MOV ESI, EDI
0e1c2000 ffffffff812f0ab3 (07) 48 c7c7 60049d81         MOV RDI, -0x7e62fba0
0e1c2000 ffffffff812f0aba (05) e8 91feffff              CALL 0xffffffff812f0950
            store   0xffff8800019eed70 0x00000000019eed70 (8)
0e1c2000 ffffffff812f0950 (01) 55                       PUSH RBP
            store   0xffff8800019eed68 0x00000000019eed68 (8)
0e1c2000 ffffffff812f0951 (03) 48 89e5                  MOV RBP, RSP
0e1c2000 ffffffff812f0954 (02) 41 54                    PUSH R12
            store   0xffff8800019eed60 0x00000000019eed60 (8)
0e1c2000 ffffffff812f0956 (03) 41 89f4                  MOV R12D, ESI
0e1c2000 ffffffff812f0959 (01) 53                       PUSH RBX
            store   0xffff8800019eed58 0x00000000019eed58 (8)
0e1c2000 ffffffff812f095a (03) 48 89fb                  MOV RBX, RDI
0e1c2000 ffffffff812f095d (04) 48 83ec 20               SUB RSP, 0x20
0e1c2000 ffffffff812f0961 (06) 8b05 89004e00            MOV EAX, [RIP+0x4e0089]
            load    0xffffffff817d09f0 0x00000000017d09f0 (4)
0e1c2000 ffffffff812f0967 (06) 3b05 d3075300            CMP EAX, [RIP+0x5307d3]
            load    0xffffffff81821140 0x0000000001821140 (4)
0e1c2000 ffffffff812f096d (02) 7e 27                    JLE 0xffffffff812f0996
0e1c2000 ffffffff812f0996 (07) 48 8b05 233f5300         MOV RAX, [RIP+0x533f23]
            load    0xffffffff818248c0 0x00000000018248c0 (8)
0e1c2000 ffffffff812f099d (04) 48 8945 d8               MOV [RBP-0x28], RAX
            store   0xffff8800019eed40 0x00000000019eed40 (8)
0e1c2000 ffffffff812f09a1 (05) e8 1a8cd2ff              CALL 0xffffffff810195c0
            store   0xffff8800019eed30 0x00000000019eed30 (8)
0e1c2000 ffffffff810195c0 (01) 55                       PUSH RBP
            store   0xffff8800019eed28 0x00000000019eed28 (8)
0e1c2000 ffffffff810195c1 (03) 48 89e5                  MOV RBP, RSP
0e1c2000 ffffffff810195c4 (02) 0f31                     RDTSC 
0e1c2000 ffffffff810195c6 (02) 89c1                     MOV ECX, EAX
0e1c2000 ffffffff810195c8 (03) 48 89d0                  MOV RAX, RDX
0e1c2000 ffffffff810195cb (04) 48 c1e0 20               SHL RAX, 0x20
0e1c2000 ffffffff810195cf (02) 89c9                     MOV ECX, ECX
0e1c2000 ffffffff810195d1 (03) 48 09c8                  OR RAX, RCX
0e1c2000 ffffffff810195d4 (01) c9                       LEAVE 
            load    0xffff8800019eed28 0x00000000019eed28 (8)
0e1c2000 ffffffff810195d5 (01) c3                       RET 
            load    0xffff8800019eed30 0x00000000019eed30 (8)
0e1c2000 ffffffff812f09a6 (01) 66                       DB 0x66 
0e1c2000 ffffffff812f09a6 (02) 66 90                    NOP 
0e1c2000 ffffffff812f09a8 (04) 48 8d75 d0               LEA RSI, [RBP-0x30]
0e1c2000 ffffffff812f09ac (02) 31c9                     XOR ECX, ECX
0e1c2000 ffffffff812f09ae (05) ba 18000000              MOV EDX, 0x18
0e1c2000 ffffffff812f09b3 (07) 48 c7c7 c0097d81         MOV RDI, -0x7e82f640
0e1c2000 ffffffff812f09ba (04) 48 8945 d0               MOV [RBP-0x30], RAX
            store   0xffff8800019eed38 0x00000000019eed38 (8)
0e1c2000 ffffffff812f09be (04) 44 8965 e0               MOV [RBP-0x20], R12D
            store   0xffff8800019eed48 0x00000000019eed48 (4)
0e1c2000 ffffffff812f09c2 (05) e8 89fbffff              CALL 0xffffffff812f0550
            store   0xffff8800019eed30 0x00000000019eed30 (8)
0e1c2000 ffffffff812f0550 (01) 55                       PUSH RBP
            store   0xffff8800019eed28 0x00000000019eed28 (8)
0e1c2000 ffffffff812f0551 (03) 41 89d2                  MOV R10D, EDX
0e1c2000 ffffffff812f0554 (03) 48 89e5                  MOV RBP, RSP
0e1c2000 ffffffff812f0557 (02) 41 57                    PUSH R15
            store   0xffff8800019eed20 0x00000000019eed20 (8)
0e1c2000 ffffffff812f0559 (02) 41 56                    PUSH R14
            store   0xffff8800019eed18 0x00000000019eed18 (8)
0e1c2000 ffffffff812f055b (02) 41 55                    PUSH R13
            store   0xffff8800019eed10 0x00000000019eed10 (8)
0e1c2000 ffffffff812f055d (02) 41 54                    PUSH R12
            store   0xffff8800019eed08 0x00000000019eed08 (8)
0e1c2000 ffffffff812f055f (03) 49 89cc                  MOV R12, RCX
0e1c2000 ffffffff812f0562 (01) 53                       PUSH RBX
            store   0xffff8800019eed00 0x00000000019eed00 (8)
0e1c2000 ffffffff812f0563 (03) 48 89fb                  MOV RBX, RDI
0e1c2000 ffffffff812f0566 (04) 48 83ec 48               SUB RSP, 0x48
0e1c2000 ffffffff812f056a (03) 48 8b07                  MOV RAX, [RDI]
            load    0xffffffff817d09c0 0x00000000017d09c0 (8)
0e1c2000 ffffffff812f056d (02) 8b10                     MOV EDX, [RAX]
            load    0xffffffff817d0b40 0x00000000017d0b40 (4)
0e1c2000 ffffffff812f056f (03) 83ea 01                  SUB EDX, 0x1
0e1c2000 ffffffff812f0572 (03) 8955 b4                  MOV [RBP-0x4c], EDX
            store   0xffff8800019eecdc 0x00000000019eecdc (4)
0e1c2000 ffffffff812f0575 (04) 48 6350 04               MOVSXD RDX, [RAX+0x4]
            load    0xffffffff817d0b44 0x00000000017d0b44 (4)
0e1c2000 ffffffff812f0579 (04) 4c 6378 08               MOVSXD R15, [RAX+0x8]
            load    0xffffffff817d0b48 0x00000000017d0b48 (4)
0e1c2000 ffffffff812f057d (04) 4c 6370 0c               MOVSXD R14, [RAX+0xc]
            load    0xffffffff817d0b4c 0x00000000017d0b4c (4)
0e1c2000 ffffffff812f0581 (04) 4c 6368 10               MOVSXD R13, [RAX+0x10]
            load    0xffffffff817d0b50 0x00000000017d0b50 (4)
0e1c2000 ffffffff812f0585 (04) 48 6340 14               MOVSXD RAX, [RAX+0x14]
            load    0xffffffff817d0b54 0x00000000017d0b54 (4)
0e1c2000 ffffffff812f0589 (04) 48 8975 98               MOV [RBP-0x68], RSI
            store   0xffff8800019eecc0 0x00000000019eecc0 (8)
0e1c2000 ffffffff812f058d (04) 44 8955 90               MOV [RBP-0x70], R10D
            store   0xffff8800019eecb8 0x00000000019eecb8 (4)
0e1c2000 ffffffff812f0591 (04) 48 8955 a0               MOV [RBP-0x60], RDX
            store   0xffff8800019eecc8 0x00000000019eecc8 (8)
0e1c2000 ffffffff812f0595 (04) 48 8945 c0               MOV [RBP-0x40], RAX
            store   0xffff8800019eece8 0x00000000019eece8 (8)
0e1c2000 ffffffff812f0599 (04) 48 8d47 28               LEA RAX, [RDI+0x28]
0e1c2000 ffffffff812f059d (03) 48 89c7                  MOV RDI, RAX
0e1c2000 ffffffff812f05a0 (04) 48 8945 b8               MOV [RBP-0x48], RAX
            store   0xffff8800019eece0 0x00000000019eece0 (8)
0e1c2000 ffffffff812f05a4 (05) e8 97932300              CALL 0xffffffff81529940
            store   0xffff8800019eecb0 0x00000000019eecb0 (8)
0e1c2000 ffffffff81529940 (01) 55                       PUSH RBP
            store   0xffff8800019eeca8 0x00000000019eeca8 (8)
0e1c2000 ffffffff81529941 (03) 48 89e5                  MOV RBP, RSP
0e1c2000 ffffffff81529944 (04) 48 83ec 10               SUB RSP, 0x10
0e1c2000 ffffffff81529948 (04) 48 891c24                MOV [RSP], RBX
            store   0xffff8800019eec98 0x00000000019eec98 (8)
0e1c2000 ffffffff8152994c (05) 4c 896424 08             MOV [RSP+0x8], R12
            store   0xffff8800019eeca0 0x00000000019eeca0 (8)
0e1c2000 ffffffff81529951 (01) 9c                       PUSHF 
            store   0xffff8800019eec90 0x00000000019eec90 (8)
0e1c2000 ffffffff81529952 (01) 58                       POP RAX
            load    0xffff8800019eec90 0x00000000019eec90 (8)
0e1c2000 ffffffff81529953 (01) 66                       DB 0x66 
0e1c2000 ffffffff81529954 (01) 66                       DB 0x66 
0e1c2000 ffffffff81529954 (02) 66 90                    NOP 
0e1c2000 ffffffff81529956 (01) 66                       DB 0x66 
0e1c2000 ffffffff81529956 (02) 66 90                    NOP 
0e1c2000 ffffffff81529958 (03) 48 89c3                  MOV RBX, RAX
0e1c2000 ffffffff8152995b (01) fa                       CLI 
0e1c2000 ffffffff8152995c (01) 66                       DB 0x66 
0e1c2000 ffffffff8152995d (01) 66                       DB 0x66 
0e1c2000 ffffffff8152995d (02) 66 90                    NOP 
0e1c2000 ffffffff8152995f (01) 66                       DB 0x66 
0e1c2000 ffffffff81529960 (01) 66                       DB 0x66 
0e1c2000 ffffffff81529960 (02) 66 90                    NOP 
0e1c2000 ffffffff81529962 (03) 48 89de                  MOV RSI, RBX
0e1c2000 ffffffff81529965 (05) e8 a6cab0ff              CALL 0xffffffff81036410
            store   0xffff8800019eec90 0x00000000019eec90 (8)
0e1c2000 ffffffff81036410 (01) 55                       PUSH RBP
            store   0xffff8800019eec88 0x00000000019eec88 (8)
0e1c2000 ffffffff81036411 (03) 48 89e5                  MOV RBP, RSP
0e1c2000 ffffffff81036414 (05) e8 67ffffff              CALL 0xffffffff81036380
            store   0xffff8800019eec80 0x00000000019eec80 (8)
0e1c2000 ffffffff81036380 (01) 55                       PUSH RBP
            store   0xffff8800019eec78 0x00000000019eec78 (8)
0e1c2000 ffffffff81036381 (05) b8 00010000              MOV EAX, 0x100
0e1c2000 ffffffff81036386 (03) 48 89e5                  MOV RBP, RSP
0e1c2000 ffffffff81036389 (01) 3e                       DB 0x3e 
0e1c2000 ffffffff81036389 (05) 3e 66 0fc107             XADD [RDI], AX
            load    0xffffffff817d09e8 0x00000000017d09e8 (2)
            store   0xffffffff817d09e8 0x00000000017d09e8 (2)
0e1c2000 ffffffff8103638e (02) 38e0                     CMP AL, AH
0e1c2000 ffffffff81036390 (02) 74 06                    JZ 0xffffffff81036398
0e1c2000 ffffffff81036398 (01) c9                       LEAVE 
            load    0xffff8800019eec78 0x00000000019eec78 (8)
0e1c2000 ffffffff81036399 (01) c3                       RET 
            load    0xffff8800019eec80 0x00000000019eec80 (8)
0e1c2000 ffffffff81036419 (01) 66                       DB 0x66 
0e1c2000 ffffffff81036419 (02) 66 90                    NOP 
0e1c2000 ffffffff8103641b (01) c9                       LEAVE 
            load    0xffff8800019eec88 0x00000000019eec88 (8)
0e1c2000 ffffffff8103641c (01) c3                       RET 
            load    0xffff8800019eec90 0x00000000019eec90 (8)
0e1c2000 ffffffff8152996a (01) 66                       DB 0x66 
0e1c2000 ffffffff8152996a (02) 66 90                    NOP 
0e1c2000 ffffffff8152996c (03) 48 89d8                  MOV RAX, RBX
0e1c2000 ffffffff8152996f (05) 4c 8b6424 08             MOV R12, [RSP+0x8]
            load    0xffff8800019eeca0 0x00000000019eeca0 (8)
0e1c2000 ffffffff81529974 (04) 48 8b1c24                MOV RBX, [RSP]
            load    0xffff8800019eec98 0x00000000019eec98 (8)
0e1c2000 ffffffff81529978 (01) c9                       LEAVE 
            load    0xffff8800019eeca8 0x00000000019eeca8 (8)
0e1c2000 ffffffff81529979 (01) c3                       RET 
            load    0xffff8800019eecb0 0x00000000019eecb0 (8)
0e1c2000 ffffffff812f05a9 (04) 44 8b55 90               MOV R10D, [RBP-0x70]
            load    0xffff8800019eecb8 0x00000000019eecb8 (4)
0e1c2000 ffffffff812f05ad (04) 48 8945 a8               MOV [RBP-0x58], RAX
            store   0xffff8800019eecd0 0x00000000019eecd0 (8)
0e1c2000 ffffffff812f05b1 (04) 44 8b4b 34               MOV R9D, [RBX+0x34]
            load    0xffffffff817d09f4 0x00000000017d09f4 (4)
0e1c2000 ffffffff812f05b5 (03) 8b73 2c                  MOV ESI, [RBX+0x2c]
            load    0xffffffff817d09ec 0x00000000017d09ec (4)
0e1c2000 ffffffff812f05b8 (04) 48 8b55 a0               MOV RDX, [RBP-0x60]
            load    0xffff8800019eecc8 0x00000000019eecc8 (8)
0e1c2000 ffffffff812f05bc (04) 4c 8b45 98               MOV R8, [RBP-0x68]
            load    0xffff8800019eecc0 0x00000000019eecc0 (8)
0e1c2000 ffffffff812f05c0 (03) 45 85d2                  TEST R10D, R10D
0e1c2000 ffffffff812f05c3 (06) 0f84 a9000000            JZ 0xffffffff812f0672
0e1c2000 ffffffff812f05c9 (04) 41 83ea 01               SUB R10D, 0x1
0e1c2000 ffffffff812f05cd (04) 48 637d b4               MOVSXD RDI, [RBP-0x4c]
            load    0xffff8800019eecdc 0x00000000019eecdc (4)
0e1c2000 ffffffff812f05d1 (05) 4f 8d5410 01             LEA R10, [R8+R10+0x1]
0e1c2000 ffffffff812f05d6 (04) 4c 8955 c8               MOV [RBP-0x38], R10
            store   0xffff8800019eecf0 0x00000000019eecf0 (8)
0e1c2000 ffffffff812f05da (04) 4c 8b55 c0               MOV R10, [RBP-0x40]
            load    0xffff8800019eece8 0x00000000019eece8 (8)
0e1c2000 ffffffff812f05de (04) 4c 8965 c0               MOV [RBP-0x40], R12
            store   0xffff8800019eece8 0x00000000019eece8 (8)
0e1c2000 ffffffff812f05e2 (06) 66 0f1f4400 00           NOP WORD [RAX+RAX+0x0]
0e1c2000 ffffffff812f05e8 (04) 41 0fbe00                MOVSX EAX, BYTE [R8]
            load    0xffff8800019eed38 0x00000000019eed38 (1)
0e1c2000 ffffffff812f05ec (03) 44 89c9                  MOV ECX, R9D
0e1c2000 ffffffff812f05ef (04) 48 83ee 01               SUB RSI, 0x1
0e1c2000 ffffffff812f05f3 (03) 83e1 1f                  AND ECX, 0x1f
0e1c2000 ffffffff812f05f6 (03) 48 21fe                  AND RSI, RDI
0e1c2000 ffffffff812f05f9 (04) 49 83c0 01               ADD R8, 0x1
0e1c2000 ffffffff812f05fd (04) 4c 8d1c16                LEA R11, [RSI+RDX]
0e1c2000 ffffffff812f0601 (02) d3c0                     ROL EAX, CL
0e1c2000 ffffffff812f0603 (04) 48 8b4b 08               MOV RCX, [RBX+0x8]
            load    0xffffffff817d09c8 0x00000000017d09c8 (8)
0e1c2000 ffffffff812f0607 (03) 49 21fb                  AND R11, RDI
0e1c2000 ffffffff812f060a (04) 4c 8d24b1                LEA R12, [RCX+RSI*4]
0e1c2000 ffffffff812f060e (04) 41 330424                XOR EAX, [R12]
            load    0xffffffff819d0624 0x00000000019d0624 (4)
0e1c2000 ffffffff812f0612 (04) 42 330499                XOR EAX, [RCX+R11*4]
            load    0xffffffff819d05c0 0x00000000019d05c0 (4)
0e1c2000 ffffffff812f0616 (04) 4e 8d1c3e                LEA R11, [RSI+R15]
0e1c2000 ffffffff812f061a (03) 49 21fb                  AND R11, RDI
0e1c2000 ffffffff812f061d (04) 42 330499                XOR EAX, [RCX+R11*4]
            load    0xffffffff819d0554 0x00000000019d0554 (4)
0e1c2000 ffffffff812f0621 (04) 4e 8d1c36                LEA R11, [RSI+R14]
0e1c2000 ffffffff812f0625 (03) 49 21fb                  AND R11, RDI
0e1c2000 ffffffff812f0628 (04) 42 330499                XOR EAX, [RCX+R11*4]
            load    0xffffffff819d06f0 0x00000000019d06f0 (4)
0e1c2000 ffffffff812f062c (04) 4e 8d1c2e                LEA R11, [RSI+R13]
0e1c2000 ffffffff812f0630 (03) 49 21fb                  AND R11, RDI
0e1c2000 ffffffff812f0633 (04) 42 330499                XOR EAX, [RCX+R11*4]
            load    0xffffffff819d0688 0x00000000019d0688 (4)
0e1c2000 ffffffff812f0637 (04) 4e 8d1c16                LEA R11, [RSI+R10]
0e1c2000 ffffffff812f063b (03) 49 21fb                  AND R11, RDI
0e1c2000 ffffffff812f063e (04) 42 330499                XOR EAX, [RCX+R11*4]
            load    0xffffffff819d0628 0x00000000019d0628 (4)
0e1c2000 ffffffff812f0642 (03) 48 89c1                  MOV RCX, RAX
0e1c2000 ffffffff812f0645 (03) c1e8 03                  SHR EAX, 0x3
0e1c2000 ffffffff812f0648 (03) 83e1 07                  AND ECX, 0x7
0e1c2000 ffffffff812f064b (07) 33048d 401b5781          XOR EAX, [RCX*4-0x7ea8e4c0]
            load    0xffffffff81571b40 0x0000000001571b40 (4)
0e1c2000 ffffffff812f0652 (04) 48 83fe 01               CMP RSI, 0x1
0e1c2000 ffffffff812f0656 (04) 41 890424                MOV [R12], EAX
            store   0xffffffff819d0624 0x00000000019d0624 (4)
0e1c2000 ffffffff812f065a (02) 19c0                     SBB EAX, EAX
0e1c2000 ffffffff812f065c (03) 83e0 07                  AND EAX, 0x7
0e1c2000 ffffffff812f065f (04) 4c 3b45 c8               CMP R8, [RBP-0x38]
            load    0xffff8800019eecf0 0x00000000019eecf0 (8)
0e1c2000 ffffffff812f0663 (05) 45 8d4c01 07             LEA R9D, [R9+RAX+0x7]
0e1c2000 ffffffff812f0668 (06) 0f85 7affffff            JNZ 0xffffffff812f05e8
0e1c2000 ffffffff812f05e8 (04) 41 0fbe00                MOVSX EAX, BYTE [R8]
            load    0xffff8800019eed39 0x00000000019eed39 (1)
0e1c2000 ffffffff812f05ec (03) 44 89c9                  MOV ECX, R9D
0e1c2000 ffffffff812f05ef (04) 48 83ee 01               SUB RSI, 0x1
0e1c2000 ffffffff812f05f3 (03) 83e1 1f                  AND ECX, 0x1f
0e1c2000 ffffffff812f05f6 (03) 48 21fe                  AND RSI, RDI
0e1c2000 ffffffff812f05f9 (04) 49 83c0 01               ADD R8, 0x1
0e1c2000 ffffffff812f05fd (04) 4c 8d1c16                LEA R11, [RSI+RDX]
0e1c2000 ffffffff812f0601 (02) d3c0                     ROL EAX, CL
0e1c2000 ffffffff812f0603 (04) 48 8b4b 08               MOV RCX, [RBX+0x8]
            load    0xffffffff817d09c8 0x00000000017d09c8 (8)
0e1c2000 ffffffff812f0607 (03) 49 21fb                  AND R11, RDI
0e1c2000 ffffffff812f060a (04) 4c 8d24b1                LEA R12, [RCX+RSI*4]
0e1c2000 ffffffff812f060e (04) 41 330424                XOR EAX, [R12]
            load    0xffffffff819d0620 0x00000000019d0620 (4)
0e1c2000 ffffffff812f0612 (04) 42 330499                XOR EAX, [RCX+R11*4]
            load    0xffffffff819d05bc 0x00000000019d05bc (4)
0e1c2000 ffffffff812f0616 (04) 4e 8d1c3e                LEA R11, [RSI+R15]
0e1c2000 ffffffff812f061a (03) 49 21fb                  AND R11, RDI
0e1c2000 ffffffff812f061d (04) 42 330499                XOR EAX, [RCX+R11*4]
            load    0xffffffff819d0550 0x00000000019d0550 (4)
0e1c2000 ffffffff812f0621 (04) 4e 8d1c36                LEA R11, [RSI+R14]
0e1c2000 ffffffff812f0625 (03) 49 21fb                  AND R11, RDI
0e1c2000 ffffffff812f0628 (04) 42 330499                XOR EAX, [RCX+R11*4]
            load    0xffffffff819d06ec 0x00000000019d06ec (4)
0e1c2000 ffffffff812f062c (04) 4e 8d1c2e                LEA R11, [RSI+R13]
0e1c2000 ffffffff812f0630 (03) 49 21fb                  AND R11, RDI
0e1c2000 ffffffff812f0633 (04) 42 330499                XOR EAX, [RCX+R11*4]
            load    0xffffffff819d0684 0x00000000019d0684 (4)
0e1c2000 ffffffff812f0637 (04) 4e 8d1c16                LEA R11, [RSI+R10]
0e1c2000 ffffffff812f063b (03) 49 21fb                  AND R11, RDI
0e1c2000 ffffffff812f063e (04) 42 330499                XOR EAX, [RCX+R11*4]
            load    0xffffffff819d0624 0x00000000019d0624 (4)
0e1c2000 ffffffff812f0642 (03) 48 89c1                  MOV RCX, RAX
0e1c2000 ffffffff812f0645 (03) c1e8 03                  SHR EAX, 0x3
0e1c2000 ffffffff812f0648 (03) 83e1 07                  AND ECX, 0x7
0e1c2000 ffffffff812f064b (07) 33048d 401b5781          XOR EAX, [RCX*4-0x7ea8e4c0]
            load    0xffffffff81571b44 0x0000000001571b44 (4)
0e1c2000 ffffffff812f0652 (04) 48 83fe 01               CMP RSI, 0x1
0e1c2000 ffffffff812f0656 (04) 41 890424                MOV [R12], EAX
            store   0xffffffff819d0620 0x00000000019d0620 (4)
0e1c2000 ffffffff812f065a (02) 19c0                     SBB EAX, EAX
0e1c2000 ffffffff812f065c (03) 83e0 07                  AND EAX, 0x7
0e1c2000 ffffffff812f065f (04) 4c 3b45 c8               CMP R8, [RBP-0x38]
            load    0xffff8800019eecf0 0x00000000019eecf0 (8)
0e1c2000 ffffffff812f0663 (05) 45 8d4c01 07             LEA R9D, [R9+RAX+0x7]
0e1c2000 ffffffff812f0668 (06) 0f85 7affffff            JNZ 0xffffffff812f05e8
0e1c2000 ffffffff812f05e8 (04) 41 0fbe00                MOVSX EAX, BYTE [R8]
            load    0xffff8800019eed3a 0x00000000019eed3a (1)
0e1c2000 ffffffff812f05ec (03) 44 89c9                  MOV ECX, R9D
0e1c2000 ffffffff812f05ef (04) 48 83ee 01               SUB RSI, 0x1
0e1c2000 ffffffff812f05f3 (03) 83e1 1f                  AND ECX, 0x1f
0e1c2000 ffffffff812f05f6 (03) 48 21fe                  AND RSI, RDI
0e1c2000 ffffffff812f05f9 (04) 49 83c0 01               ADD R8, 0x1
0e1c2000 ffffffff812f05fd (04) 4c 8d1c16                LEA R11, [RSI+RDX]
0e1c2000 ffffffff812f0601 (02) d3c0                     ROL EAX, CL
0e1c2000 ffffffff812f0603 (04) 48 8b4b 08               MOV RCX, [RBX+0x8]
            load    0xffffffff817d09c8 0x00000000017d09c8 (8)
0e1c2000 ffffffff812f0607 (03) 49 21fb                  AND R11, RDI
0e1c2000 ffffffff812f060a (04) 4c 8d24b1                LEA R12, [RCX+RSI*4]
0e1c2000 ffffffff812f060e (04) 41 330424                XOR EAX, [R12]
            load    0xffffffff819d061c 0x00000000019d061c (4)
0e1c2000 ffffffff812f0612 (04) 42 330499                XOR EAX, [RCX+R11*4]
            load    0xffffffff819d05b8 0x00000000019d05b8 (4)
0e1c2000 ffffffff812f0616 (04) 4e 8d1c3e                LEA R11, [RSI+R15]
0e1c2000 ffffffff812f061a (03) 49 21fb                  AND R11, RDI
0e1c2000 ffffffff812f061d (04) 42 330499                XOR EAX, [RCX+R11*4]
            load    0xffffffff819d054c 0x00000000019d054c (4)
0e1c2000 ffffffff812f0621 (04) 4e 8d1c36                LEA R11, [RSI+R14]
0e1c2000 ffffffff812f0625 (03) 49 21fb                  AND R11, RDI
0e1c2000 ffffffff812f0628 (04) 42 330499                XOR EAX, [RCX+R11*4]
            load    0xffffffff819d06e8 0x00000000019d06e8 (4)
0e1c2000 ffffffff812f062c (04) 4e 8d1c2e                LEA R11, [RSI+R13]
0e1c2000 ffffffff812f0630 (03) 49 21fb                  AND R11, RDI
0e1c2000 ffffffff812f0633 (04) 42 330499                XOR EAX, [RCX+R11*4]
            load    0xffffffff819d0680 0x00000000019d0680 (4)
0e1c2000 ffffffff812f0637 (04) 4e 8d1c16                LEA R11, [RSI+R10]
0e1c2000 ffffffff812f063b (03) 49 21fb                  AND R11, RDI
0e1c2000 ffffffff812f063e (04) 42 330499                XOR EAX, [RCX+R11*4]
            load    0xffffffff819d0620 0x00000000019d0620 (4)
0e1c2000 ffffffff812f0642 (03) 48 89c1                  MOV RCX, RAX
0e1c2000 ffffffff812f0645 (03) c1e8 03                  SHR EAX, 0x3
0e1c2000 ffffffff812f0648 (03) 83e1 07                  AND ECX, 0x7
0e1c2000 ffffffff812f064b (07) 33048d 401b5781          XOR EAX, [RCX*4-0x7ea8e4c0]
            load    0xffffffff81571b4c 0x0000000001571b4c (4)
0e1c2000 ffffffff812f0652 (04) 48 83fe 01               CMP RSI, 0x1
0e1c2000 ffffffff812f0656 (04) 41 890424                MOV [R12], EAX
            store   0xffffffff819d061c 0x00000000019d061c (4)
0e1c2000 ffffffff812f065a (02) 19c0                     SBB EAX, EAX
0e1c2000 ffffffff812f065c (03) 83e0 07                  AND EAX, 0x7
0e1c2000 ffffffff812f065f (04) 4c 3b45 c8               CMP R8, [RBP-0x38]
            load    0xffff8800019eecf0 0x00000000019eecf0 (8)
0e1c2000 ffffffff812f0663 (05) 45 8d4c01 07             LEA R9D, [R9+RAX+0x7]
0e1c2000 ffffffff812f0668 (06) 0f85 7affffff            JNZ 0xffffffff812f05e8
0e1c2000 ffffffff812f05e8 (04) 41 0fbe00                MOVSX EAX, BYTE [R8]
            load    0xffff8800019eed3b 0x00000000019eed3b (1)
0e1c2000 ffffffff812f05ec (03) 44 89c9                  MOV ECX, R9D
0e1c2000 ffffffff812f05ef (04) 48 83ee 01               SUB RSI, 0x1
0e1c2000 ffffffff812f05f3 (03) 83e1 1f                  AND ECX, 0x1f
0e1c2000 ffffffff812f05f6 (03) 48 21fe                  AND RSI, RDI
0e1c2000 ffffffff812f05f9 (04) 49 83c0 01               ADD R8, 0x1
0e1c2000 ffffffff812f05fd (04) 4c 8d1c16                LEA R11, [RSI+RDX]
0e1c2000 ffffffff812f0601 (02) d3c0                     ROL EAX, CL
0e1c2000 ffffffff812f0603 (04) 48 8b4b 08               MOV RCX, [RBX+0x8]
            load    0xffffffff817d09c8 0x00000000017d09c8 (8)
0e1c2000 ffffffff812f0607 (03) 49 21fb                  AND R11, RDI
0e1c2000 ffffffff812f060a (04) 4c 8d24b1                LEA R12, [RCX+RSI*4]
0e1c2000 ffffffff812f060e (04) 41 330424                XOR EAX, [R12]
            load    0xffffffff819d0618 0x00000000019d0618 (4)
0e1c2000 ffffffff812f0612 (04) 42 330499                XOR EAX, [RCX+R11*4]
            load    0xffffffff819d05b4 0x00000000019d05b4 (4)
0e1c2000 ffffffff812f0616 (04) 4e 8d1c3e                LEA R11, [RSI+R15]
0e1c2000 ffffffff812f061a (03) 49 21fb                  AND R11, RDI
0e1c2000 ffffffff812f061d (04) 42 330499                XOR EAX, [RCX+R11*4]
            load    0xffffffff819d0548 0x00000000019d0548 (4)
0e1c2000 ffffffff812f0621 (04) 4e 8d1c36                LEA R11, [RSI+R14]
0e1c2000 ffffffff812f0625 (03) 49 21fb                  AND R11, RDI
0e1c2000 ffffffff812f0628 (04) 42 330499                XOR EAX, [RCX+R11*4]
            load    0xffffffff819d06e4 0x00000000019d06e4 (4)
0e1c2000 ffffffff812f062c (04) 4e 8d1c2e                LEA R11, [RSI+R13]
0e1c2000 ffffffff812f0630 (03) 49 21fb                  AND R11, RDI
0e1c2000 ffffffff812f0633 (04) 42 330499                XOR EAX, [RCX+R11*4]
            load    0xffffffff819d067c 0x00000000019d067c (4)
0e1c2000 ffffffff812f0637 (04) 4e 8d1c16                LEA R11, [RSI+R10]
0e1c2000 ffffffff812f063b (03) 49 21fb                  AND R11, RDI
0e1c2000 ffffffff812f063e (04) 42 330499                XOR EAX, [RCX+R11*4]
            load    0xffffffff819d061c 0x00000000019d061c (4)
0e1c2000 ffffffff812f0642 (03) 48 89c1                  MOV RCX, RAX
0e1c2000 ffffffff812f0645 (03) c1e8 03                  SHR EAX, 0x3
0e1c2000 ffffffff812f0648 (03) 83e1 07                  AND ECX, 0x7
0e1c2000 ffffffff812f064b (07) 33048d 401b5781          XOR EAX, [RCX*4-0x7ea8e4c0]
            load    0xffffffff81571b44 0x0000000001571b44 (4)
0e1c2000 ffffffff812f0652 (04) 48 83fe 01               CMP RSI, 0x1
0e1c2000 ffffffff812f0656 (04) 41 890424                MOV [R12], EAX
            store   0xffffffff819d0618 0x00000000019d0618 (4)
0e1c2000 ffffffff812f065a (02) 19c0                     SBB EAX, EAX
0e1c2000 ffffffff812f065c (03) 83e0 07                  AND EAX, 0x7
0e1c2000 ffffffff812f065f (04) 4c 3b45 c8               CMP R8, [RBP-0x38]
            load    0xffff8800019eecf0 0x00000000019eecf0 (8)
0e1c2000 ffffffff812f0663 (05) 45 8d4c01 07             LEA R9D, [R9+RAX+0x7]
0e1c2000 ffffffff812f0668 (06) 0f85 7affffff            JNZ 0xffffffff812f05e8
0e1c2000 ffffffff812f05e8 (04) 41 0fbe00                MOVSX EAX, BYTE [R8]
            load    0xffff8800019eed3c 0x00000000019eed3c (1)
0e1c2000 ffffffff812f05ec (03) 44 89c9                  MOV ECX, R9D
0e1c2000 ffffffff812f05ef (04) 48 83ee 01               SUB RSI, 0x1
0e1c2000 ffffffff812f05f3 (03) 83e1 1f                  AND ECX, 0x1f
0e1c2000 ffffffff812f05f6 (03) 48 21fe                  AND RSI, RDI
0e1c2000 ffffffff812f05f9 (04) 49 83c0 01               ADD R8, 0x1
0e1c2000 ffffffff812f05fd (04) 4c 8d1c16                LEA R11, [RSI+RDX]
0e1c2000 ffffffff812f0601 (02) d3c0                     ROL EAX, CL
0e1c2000 ffffffff812f0603 (04) 48 8b4b 08               MOV RCX, [RBX+0x8]
            load    0xffffffff817d09c8 0x00000000017d09c8 (8)
0e1c2000 ffffffff812f0607 (03) 49 21fb                  AND R11, RDI
0e1c2000 ffffffff812f060a (04) 4c 8d24b1                LEA R12, [RCX+RSI*4]
0e1c2000 ffffffff812f060e (04) 41 330424                XOR EAX, [R12]
            load    0xffffffff819d0614 0x00000000019d0614 (4)
0e1c2000 ffffffff812f0612 (04) 42 330499                XOR EAX, [RCX+R11*4]
            load    0xffffffff819d05b0 0x00000000019d05b0 (4)
0e1c2000 ffffffff812f0616 (04) 4e 8d1c3e                LEA R11, [RSI+R15]
0e1c2000 ffffffff812f061a (03) 49 21fb                  AND R11, RDI
0e1c2000 ffffffff812f061d (04) 42 330499                XOR EAX, [RCX+R11*4]
            load    0xffffffff819d0544 0x00000000019d0544 (4)
0e1c2000 ffffffff812f0621 (04) 4e 8d1c36                LEA R11, [RSI+R14]
0e1c2000 ffffffff812f0625 (03) 49 21fb                  AND R11, RDI
0e1c2000 ffffffff812f0628 (04) 42 330499                XOR EAX, [RCX+R11*4]
            load    0xffffffff819d06e0 0x00000000019d06e0 (4)
0e1c2000 ffffffff812f062c (04) 4e 8d1c2e                LEA R11, [RSI+R13]
0e1c2000 ffffffff812f0630 (03) 49 21fb                  AND R11, RDI
0e1c2000 ffffffff812f0633 (04) 42 330499                XOR EAX, [RCX+R11*4]
            load    0xffffffff819d0678 0x00000000019d0678 (4)
0e1c2000 ffffffff812f0637 (04) 4e 8d1c16                LEA R11, [RSI+R10]
0e1c2000 ffffffff812f063b (03) 49 21fb                  AND R11, RDI
0e1c2000 ffffffff812f063e (04) 42 330499                XOR EAX, [RCX+R11*4]
            load    0xffffffff819d0618 0x00000000019d0618 (4)
0e1c2000 ffffffff812f0642 (03) 48 89c1                  MOV RCX, RAX
0e1c2000 ffffffff812f0645 (03) c1e8 03                  SHR EAX, 0x3
0e1c2000 ffffffff812f0648 (03) 83e1 07                  AND ECX, 0x7
0e1c2000 ffffffff812f064b (07) 33048d 401b5781          XOR EAX, [RCX*4-0x7ea8e4c0]
            load    0xffffffff81571b48 0x0000000001571b48 (4)
0e1c2000 ffffffff812f0652 (04) 48 83fe 01               CMP RSI, 0x1
0e1c2000 ffffffff812f0656 (04) 41 890424                MOV [R12], EAX
            store   0xffffffff819d0614 0x00000000019d0614 (4)
0e1c2000 ffffffff812f065a (02) 19c0                     SBB EAX, EAX
0e1c2000 ffffffff812f065c (03) 83e0 07                  AND EAX, 0x7
0e1c2000 ffffffff812f065f (04) 4c 3b45 c8               CMP R8, [RBP-0x38]
            load    0xffff8800019eecf0 0x00000000019eecf0 (8)
0e1c2000 ffffffff812f0663 (05) 45 8d4c01 07             LEA R9D, [R9+RAX+0x7]
0e1c2000 ffffffff812f0668 (06) 0f85 7affffff            JNZ 0xffffffff812f05e8
0e1c2000 ffffffff812f05e8 (04) 41 0fbe00                MOVSX EAX, BYTE [R8]
            load    0xffff8800019eed3d 0x00000000019eed3d (1)
0e1c2000 ffffffff812f05ec (03) 44 89c9                  MOV ECX, R9D
0e1c2000 ffffffff812f05ef (04) 48 83ee 01               SUB RSI, 0x1
0e1c2000 ffffffff812f05f3 (03) 83e1 1f                  AND ECX, 0x1f
0e1c2000 ffffffff812f05f6 (03) 48 21fe                  AND RSI, RDI
0e1c2000 ffffffff812f05f9 (04) 49 83c0 01               ADD R8, 0x1
0e1c2000 ffffffff812f05fd (04) 4c 8d1c16                LEA R11, [RSI+RDX]
0e1c2000 ffffffff812f0601 (02) d3c0                     ROL EAX, CL
0e1c2000 ffffffff812f0603 (04) 48 8b4b 08               MOV RCX, [RBX+0x8]
            load    0xffffffff817d09c8 0x00000000017d09c8 (8)
0e1c2000 ffffffff812f0607 (03) 49 21fb                  AND R11, RDI
0e1c2000 ffffffff812f060a (04) 4c 8d24b1                LEA R12, [RCX+RSI*4]
0e1c2000 ffffffff812f060e (04) 41 330424                XOR EAX, [R12]
            load    0xffffffff819d0610 0x00000000019d0610 (4)
0e1c2000 ffffffff812f0612 (04) 42 330499                XOR EAX, [RCX+R11*4]
            load    0xffffffff819d05ac 0x00000000019d05ac (4)
0e1c2000 ffffffff812f0616 (04) 4e 8d1c3e                LEA R11, [RSI+R15]
0e1c2000 ffffffff812f061a (03) 49 21fb                  AND R11, RDI
0e1c2000 ffffffff812f061d (04) 42 330499                XOR EAX, [RCX+R11*4]
            load    0xffffffff819d0540 0x00000000019d0540 (4)
0e1c2000 ffffffff812f0621 (04) 4e 8d1c36                LEA R11, [RSI+R14]
0e1c2000 ffffffff812f0625 (03) 49 21fb                  AND R11, RDI
0e1c2000 ffffffff812f0628 (04) 42 330499                XOR EAX, [RCX+R11*4]
            load    0xffffffff819d06dc 0x00000000019d06dc (4)
0e1c2000 ffffffff812f062c (04) 4e 8d1c2e                LEA R11, [RSI+R13]
0e1c2000 ffffffff812f0630 (03) 49 21fb                  AND R11, RDI
0e1c2000 ffffffff812f0633 (04) 42 330499                XOR EAX, [RCX+R11*4]
            load    0xffffffff819d0674 0x00000000019d0674 (4)
0e1c2000 ffffffff812f0637 (04) 4e 8d1c16                LEA R11, [RSI+R10]
0e1c2000 ffffffff812f063b (03) 49 21fb                  AND R11, RDI
0e1c2000 ffffffff812f063e (04) 42 330499                XOR EAX, [RCX+R11*4]
            load    0xffffffff819d0614 0x00000000019d0614 (4)
0e1c2000 ffffffff812f0642 (03) 48 89c1                  MOV RCX, RAX
0e1c2000 ffffffff812f0645 (03) c1e8 03                  SHR EAX, 0x3
0e1c2000 ffffffff812f0648 (03) 83e1 07                  AND ECX, 0x7
0e1c2000 ffffffff812f064b (07) 33048d 401b5781          XOR EAX, [RCX*4-0x7ea8e4c0]
            load    0xffffffff81571b4c 0x0000000001571b4c (4)
0e1c2000 ffffffff812f0652 (04) 48 83fe 01               CMP RSI, 0x1
0e1c2000 ffffffff812f0656 (04) 41 890424                MOV [R12], EAX
            store   0xffffffff819d0610 0x00000000019d0610 (4)
0e1c2000 ffffffff812f065a (02) 19c0                     SBB EAX, EAX
0e1c2000 ffffffff812f065c (03) 83e0 07                  AND EAX, 0x7
0e1c2000 ffffffff812f065f (04) 4c 3b45 c8               CMP R8, [RBP-0x38]
            load    0xffff8800019eecf0 0x00000000019eecf0 (8)
0e1c2000 ffffffff812f0663 (05) 45 8d4c01 07             LEA R9D, [R9+RAX+0x7]
0e1c2000 ffffffff812f0668 (06) 0f85 7affffff            JNZ 0xffffffff812f05e8
0e1c2000 ffffffff812f05e8 (04) 41 0fbe00                MOVSX EAX, BYTE [R8]
            load    0xffff8800019eed3e 0x00000000019eed3e (1)
0e1c2000 ffffffff812f05ec (03) 44 89c9                  MOV ECX, R9D
0e1c2000 ffffffff812f05ef (04) 48 83ee 01               SUB RSI, 0x1
0e1c2000 ffffffff812f05f3 (03) 83e1 1f                  AND ECX, 0x1f
0e1c2000 ffffffff812f05f6 (03) 48 21fe                  AND RSI, RDI
0e1c2000 ffffffff812f05f9 (04) 49 83c0 01               ADD R8, 0x1
0e1c2000 ffffffff812f05fd (04) 4c 8d1c16                LEA R11, [RSI+RDX]
0e1c2000 ffffffff812f0601 (02) d3c0                     ROL EAX, CL
0e1c2000 ffffffff812f0603 (04) 48 8b4b 08               MOV RCX, [RBX+0x8]
            load    0xffffffff817d09c8 0x00000000017d09c8 (8)
0e1c2000 ffffffff812f0607 (03) 49 21fb                  AND R11, RDI
0e1c2000 ffffffff812f060a (04) 4c 8d24b1                LEA R12, [RCX+RSI*4]
0e1c2000 ffffffff812f060e (04) 41 330424                XOR EAX, [R12]
            load    0xffffffff819d060c 0x00000000019d060c (4)
0e1c2000 ffffffff812f0612 (04) 42 330499                XOR EAX, [RCX+R11*4]
            load    0xffffffff819d05a8 0x00000000019d05a8 (4)
0e1c2000 ffffffff812f0616 (04) 4e 8d1c3e                LEA R11, [RSI+R15]
0e1c2000 ffffffff812f061a (03) 49 21fb                  AND R11, RDI
0e1c2000 ffffffff812f061d (04) 42 330499                XOR EAX, [RCX+R11*4]
            load    0xffffffff819d053c 0x00000000019d053c (4)
0e1c2000 ffffffff812f0621 (04) 4e 8d1c36                LEA R11, [RSI+R14]
0e1c2000 ffffffff812f0625 (03) 49 21fb                  AND R11, RDI
0e1c2000 ffffffff812f0628 (04) 42 330499                XOR EAX, [RCX+R11*4]
            load    0xffffffff819d06d8 0x00000000019d06d8 (4)
0e1c2000 ffffffff812f062c (04) 4e 8d1c2e                LEA R11, [RSI+R13]
0e1c2000 ffffffff812f0630 (03) 49 21fb                  AND R11, RDI
0e1c2000 ffffffff812f0633 (04) 42 330499                XOR EAX, [RCX+R11*4]
            load    0xffffffff819d0670 0x00000000019d0670 (4)
0e1c2000 ffffffff812f0637 (04) 4e 8d1c16                LEA R11, [RSI+R10]
0e1c2000 ffffffff812f063b (03) 49 21fb                  AND R11, RDI
0e1c2000 ffffffff812f063e (04) 42 330499                XOR EAX, [RCX+R11*4]
            load    0xffffffff819d0610 0x00000000019d0610 (4)
0e1c2000 ffffffff812f0642 (03) 48 89c1                  MOV RCX, RAX
0e1c2000 ffffffff812f0645 (03) c1e8 03                  SHR EAX, 0x3
0e1c2000 ffffffff812f0648 (03) 83e1 07                  AND ECX, 0x7
0e1c2000 ffffffff812f064b (07) 33048d 401b5781          XOR EAX, [RCX*4-0x7ea8e4c0]
            load    0xffffffff81571b50 0x0000000001571b50 (4)
0e1c2000 ffffffff812f0652 (04) 48 83fe 01               CMP RSI, 0x1
0e1c2000 ffffffff812f0656 (04) 41 890424                MOV [R12], EAX
            store   0xffffffff819d060c 0x00000000019d060c (4)
0e1c2000 ffffffff812f065a (02) 19c0                     SBB EAX, EAX
0e1c2000 ffffffff812f065c (03) 83e0 07                  AND EAX, 0x7
0e1c2000 ffffffff812f065f (04) 4c 3b45 c8               CMP R8, [RBP-0x38]
            load    0xffff8800019eecf0 0x00000000019eecf0 (8)
0e1c2000 ffffffff812f0663 (05) 45 8d4c01 07             LEA R9D, [R9+RAX+0x7]
0e1c2000 ffffffff812f0668 (06) 0f85 7affffff            JNZ 0xffffffff812f05e8
0e1c2000 ffffffff812f05e8 (04) 41 0fbe00                MOVSX EAX, BYTE [R8]
            load    0xffff8800019eed3f 0x00000000019eed3f (1)
0e1c2000 ffffffff812f05ec (03) 44 89c9                  MOV ECX, R9D
0e1c2000 ffffffff812f05ef (04) 48 83ee 01               SUB RSI, 0x1
0e1c2000 ffffffff812f05f3 (03) 83e1 1f                  AND ECX, 0x1f
0e1c2000 ffffffff812f05f6 (03) 48 21fe                  AND RSI, RDI
0e1c2000 ffffffff812f05f9 (04) 49 83c0 01               ADD R8, 0x1
0e1c2000 ffffffff812f05fd (04) 4c 8d1c16                LEA R11, [RSI+RDX]
0e1c2000 ffffffff812f0601 (02) d3c0                     ROL EAX, CL
0e1c2000 ffffffff812f0603 (04) 48 8b4b 08               MOV RCX, [RBX+0x8]
            load    0xffffffff817d09c8 0x00000000017d09c8 (8)
0e1c2000 ffffffff812f0607 (03) 49 21fb                  AND R11, RDI
0e1c2000 ffffffff812f060a (04) 4c 8d24b1                LEA R12, [RCX+RSI*4]
0e1c2000 ffffffff812f060e (04) 41 330424                XOR EAX, [R12]
            load    0xffffffff819d0608 0x00000000019d0608 (4)
0e1c2000 ffffffff812f0612 (04) 42 330499                XOR EAX, [RCX+R11*4]
            load    0xffffffff819d05a4 0x00000000019d05a4 (4)
0e1c2000 ffffffff812f0616 (04) 4e 8d1c3e                LEA R11, [RSI+R15]
0e1c2000 ffffffff812f061a (03) 49 21fb                  AND R11, RDI
0e1c2000 ffffffff812f061d (04) 42 330499                XOR EAX, [RCX+R11*4]
            load    0xffffffff819d0538 0x00000000019d0538 (4)
0e1c2000 ffffffff812f0621 (04) 4e 8d1c36                LEA R11, [RSI+R14]
0e1c2000 ffffffff812f0625 (03) 49 21fb                  AND R11, RDI
0e1c2000 ffffffff812f0628 (04) 42 330499                XOR EAX, [RCX+R11*4]
            load    0xffffffff819d06d4 0x00000000019d06d4 (4)
0e1c2000 ffffffff812f062c (04) 4e 8d1c2e                LEA R11, [RSI+R13]
0e1c2000 ffffffff812f0630 (03) 49 21fb                  AND R11, RDI
0e1c2000 ffffffff812f0633 (04) 42 330499                XOR EAX, [RCX+R11*4]
            load    0xffffffff819d066c 0x00000000019d066c (4)
0e1c2000 ffffffff812f0637 (04) 4e 8d1c16                LEA R11, [RSI+R10]
0e1c2000 ffffffff812f063b (03) 49 21fb                  AND R11, RDI
0e1c2000 ffffffff812f063e (04) 42 330499                XOR EAX, [RCX+R11*4]
            load    0xffffffff819d060c 0x00000000019d060c (4)
0e1c2000 ffffffff812f0642 (03) 48 89c1                  MOV RCX, RAX
0e1c2000 ffffffff812f0645 (03) c1e8 03                  SHR EAX, 0x3
0e1c2000 ffffffff812f0648 (03) 83e1 07                  AND ECX, 0x7
0e1c2000 ffffffff812f064b (07) 33048d 401b5781          XOR EAX, [RCX*4-0x7ea8e4c0]
            load    0xffffffff81571b54 0x0000000001571b54 (4)
0e1c2000 ffffffff812f0652 (04) 48 83fe 01               CMP RSI, 0x1
0e1c2000 ffffffff812f0656 (04) 41 890424                MOV [R12], EAX
            store   0xffffffff819d0608 0x00000000019d0608 (4)
0e1c2000 ffffffff812f065a (02) 19c0                     SBB EAX, EAX
0e1c2000 ffffffff812f065c (03) 83e0 07                  AND EAX, 0x7
0e1c2000 ffffffff812f065f (04) 4c 3b45 c8               CMP R8, [RBP-0x38]
            load    0xffff8800019eecf0 0x00000000019eecf0 (8)
0e1c2000 ffffffff812f0663 (05) 45 8d4c01 07             LEA R9D, [R9+RAX+0x7]
0e1c2000 ffffffff812f0668 (06) 0f85 7affffff            JNZ 0xffffffff812f05e8
0e1c2000 ffffffff812f05e8 (04) 41 0fbe00                MOVSX EAX, BYTE [R8]
            load    0xffff8800019eed40 0x00000000019eed40 (1)
0e1c2000 ffffffff812f05ec (03) 44 89c9                  MOV ECX, R9D
0e1c2000 ffffffff812f05ef (04) 48 83ee 01               SUB RSI, 0x1
0e1c2000 ffffffff812f05f3 (03) 83e1 1f                  AND ECX, 0x1f
0e1c2000 ffffffff812f05f6 (03) 48 21fe                  AND RSI, RDI
0e1c2000 ffffffff812f05f9 (04) 49 83c0 01               ADD R8, 0x1
0e1c2000 ffffffff812f05fd (04) 4c 8d1c16                LEA R11, [RSI+RDX]
0e1c2000 ffffffff812f0601 (02) d3c0                     ROL EAX, CL
0e1c2000 ffffffff812f0603 (04) 48 8b4b 08               MOV RCX, [RBX+0x8]
            load    0xffffffff817d09c8 0x00000000017d09c8 (8)
0e1c2000 ffffffff812f0607 (03) 49 21fb                  AND R11, RDI
0e1c2000 ffffffff812f060a (04) 4c 8d24b1                LEA R12, [RCX+RSI*4]
0e1c2000 ffffffff812f060e (04) 41 330424                XOR EAX, [R12]
            load    0xffffffff819d0604 0x00000000019d0604 (4)
0e1c2000 ffffffff812f0612 (04) 42 330499                XOR EAX, [RCX+R11*4]
            load    0xffffffff819d05a0 0x00000000019d05a0 (4)
0e1c2000 ffffffff812f0616 (04) 4e 8d1c3e                LEA R11, [RSI+R15]
0e1c2000 ffffffff812f061a (03) 49 21fb                  AND R11, RDI
0e1c2000 ffffffff812f061d (04) 42 330499                XOR EAX, [RCX+R11*4]
            load    0xffffffff819d0534 0x00000000019d0534 (4)
0e1c2000 ffffffff812f0621 (04) 4e 8d1c36                LEA R11, [RSI+R14]
0e1c2000 ffffffff812f0625 (03) 49 21fb                  AND R11, RDI
0e1c2000 ffffffff812f0628 (04) 42 330499                XOR EAX, [RCX+R11*4]
            load    0xffffffff819d06d0 0x00000000019d06d0 (4)
0e1c2000 ffffffff812f062c (04) 4e 8d1c2e                LEA R11, [RSI+R13]
0e1c2000 ffffffff812f0630 (03) 49 21fb                  AND R11, RDI
0e1c2000 ffffffff812f0633 (04) 42 330499                XOR EAX, [RCX+R11*4]
            load    0xffffffff819d0668 0x00000000019d0668 (4)
0e1c2000 ffffffff812f0637 (04) 4e 8d1c16                LEA R11, [RSI+R10]
0e1c2000 ffffffff812f063b (03) 49 21fb                  AND R11, RDI
0e1c2000 ffffffff812f063e (04) 42 330499                XOR EAX, [RCX+R11*4]
            load    0xffffffff819d0608 0x00000000019d0608 (4)
0e1c2000 ffffffff812f0642 (03) 48 89c1                  MOV RCX, RAX
0e1c2000 ffffffff812f0645 (03) c1e8 03                  SHR EAX, 0x3
0e1c2000 ffffffff812f0648 (03) 83e1 07                  AND ECX, 0x7
0e1c2000 ffffffff812f064b (07) 33048d 401b5781          XOR EAX, [RCX*4-0x7ea8e4c0]
            load    0xffffffff81571b48 0x0000000001571b48 (4)
0e1c2000 ffffffff812f0652 (04) 48 83fe 01               CMP RSI, 0x1
0e1c2000 ffffffff812f0656 (04) 41 890424                MOV [R12], EAX
            store   0xffffffff819d0604 0x00000000019d0604 (4)
0e1c2000 ffffffff812f065a (02) 19c0                     SBB EAX, EAX
0e1c2000 ffffffff812f065c (03) 83e0 07                  AND EAX, 0x7
0e1c2000 ffffffff812f065f (04) 4c 3b45 c8               CMP R8, [RBP-0x38]
            load    0xffff8800019eecf0 0x00000000019eecf0 (8)
0e1c2000 ffffffff812f0663 (05) 45 8d4c01 07             LEA R9D, [R9+RAX+0x7]
0e1c2000 ffffffff812f0668 (06) 0f85 7affffff            JNZ 0xffffffff812f05e8
0e1c2000 ffffffff812f05e8 (04) 41 0fbe00                MOVSX EAX, BYTE [R8]
            load    0xffff8800019eed41 0x00000000019eed41 (1)
0e1c2000 ffffffff812f05ec (03) 44 89c9                  MOV ECX, R9D
0e1c2000 ffffffff812f05ef (04) 48 83ee 01               SUB RSI, 0x1
0e1c2000 ffffffff812f05f3 (03) 83e1 1f                  AND ECX, 0x1f
0e1c2000 ffffffff812f05f6 (03) 48 21fe                  AND RSI, RDI
0e1c2000 ffffffff812f05f9 (04) 49 83c0 01               ADD R8, 0x1
0e1c2000 ffffffff812f05fd (04) 4c 8d1c16                LEA R11, [RSI+RDX]
0e1c2000 ffffffff812f0601 (02) d3c0                     ROL EAX, CL
0e1c2000 ffffffff812f0603 (04) 48 8b4b 08               MOV RCX, [RBX+0x8]
            load    0xffffffff817d09c8 0x00000000017d09c8 (8)
0e1c2000 ffffffff812f0607 (03) 49 21fb                  AND R11, RDI
0e1c2000 ffffffff812f060a (04) 4c 8d24b1                LEA R12, [RCX+RSI*4]
0e1c2000 ffffffff812f060e (04) 41 330424                XOR EAX, [R12]
            load    0xffffffff819d0600 0x00000000019d0600 (4)
0e1c2000 ffffffff812f0612 (04) 42 330499                XOR EAX, [RCX+R11*4]
            load    0xffffffff819d059c 0x00000000019d059c (4)
0e1c2000 ffffffff812f0616 (04) 4e 8d1c3e                LEA R11, [RSI+R15]
0e1c2000 ffffffff812f061a (03) 49 21fb                  AND R11, RDI
0e1c2000 ffffffff812f061d (04) 42 330499                XOR EAX, [RCX+R11*4]
            load    0xffffffff819d0530 0x00000000019d0530 (4)
0e1c2000 ffffffff812f0621 (04) 4e 8d1c36                LEA R11, [RSI+R14]
0e1c2000 ffffffff812f0625 (03) 49 21fb                  AND R11, RDI
0e1c2000 ffffffff812f0628 (04) 42 330499                XOR EAX, [RCX+R11*4]
            load    0xffffffff819d06cc 0x00000000019d06cc (4)
0e1c2000 ffffffff812f062c (04) 4e 8d1c2e                LEA R11, [RSI+R13]
0e1c2000 ffffffff812f0630 (03) 49 21fb                  AND R11, RDI
0e1c2000 ffffffff812f0633 (04) 42 330499                XOR EAX, [RCX+R11*4]
            load    0xffffffff819d0664 0x00000000019d0664 (4)
0e1c2000 ffffffff812f0637 (04) 4e 8d1c16                LEA R11, [RSI+R10]
0e1c2000 ffffffff812f063b (03) 49 21fb                  AND R11, RDI
0e1c2000 ffffffff812f063e (04) 42 330499                XOR EAX, [RCX+R11*4]
            load    0xffffffff819d0604 0x00000000019d0604 (4)
0e1c2000 ffffffff812f0642 (03) 48 89c1                  MOV RCX, RAX
0e1c2000 ffffffff812f0645 (03) c1e8 03                  SHR EAX, 0x3
0e1c2000 ffffffff812f0648 (03) 83e1 07                  AND ECX, 0x7
0e1c2000 ffffffff812f064b (07) 33048d 401b5781          XOR EAX, [RCX*4-0x7ea8e4c0]
            load    0xffffffff81571b54 0x0000000001571b54 (4)
0e1c2000 ffffffff812f0652 (04) 48 83fe 01               CMP RSI, 0x1
0e1c2000 ffffffff812f0656 (04) 41 890424                MOV [R12], EAX
            store   0xffffffff819d0600 0x00000000019d0600 (4)
0e1c2000 ffffffff812f065a (02) 19c0                     SBB EAX, EAX
0e1c2000 ffffffff812f065c (03) 83e0 07                  AND EAX, 0x7
0e1c2000 ffffffff812f065f (04) 4c 3b45 c8               CMP R8, [RBP-0x38]
            load    0xffff8800019eecf0 0x00000000019eecf0 (8)
0e1c2000 ffffffff812f0663 (05) 45 8d4c01 07             LEA R9D, [R9+RAX+0x7]
0e1c2000 ffffffff812f0668 (06) 0f85 7affffff            JNZ 0xffffffff812f05e8
0e1c2000 ffffffff812f05e8 (04) 41 0fbe00                MOVSX EAX, BYTE [R8]
            load    0xffff8800019eed42 0x00000000019eed42 (1)
0e1c2000 ffffffff812f05ec (03) 44 89c9                  MOV ECX, R9D
0e1c2000 ffffffff812f05ef (04) 48 83ee 01               SUB RSI, 0x1
0e1c2000 ffffffff812f05f3 (03) 83e1 1f                  AND ECX, 0x1f
0e1c2000 ffffffff812f05f6 (03) 48 21fe                  AND RSI, RDI
0e1c2000 ffffffff812f05f9 (04) 49 83c0 01               ADD R8, 0x1
0e1c2000 ffffffff812f05fd (04) 4c 8d1c16                LEA R11, [RSI+RDX]
0e1c2000 ffffffff812f0601 (02) d3c0                     ROL EAX, CL
0e1c2000 ffffffff812f0603 (04) 48 8b4b 08               MOV RCX, [RBX+0x8]
            load    0xffffffff817d09c8 0x00000000017d09c8 (8)
0e1c2000 ffffffff812f0607 (03) 49 21fb                  AND R11, RDI
0e1c2000 ffffffff812f060a (04) 4c 8d24b1                LEA R12, [RCX+RSI*4]
0e1c2000 ffffffff812f060e (04) 41 330424                XOR EAX, [R12]
            load    0xffffffff819d05fc 0x00000000019d05fc (4)
0e1c2000 ffffffff812f0612 (04) 42 330499                XOR EAX, [RCX+R11*4]
            load    0xffffffff819d0598 0x00000000019d0598 (4)
0e1c2000 ffffffff812f0616 (04) 4e 8d1c3e                LEA R11, [RSI+R15]
0e1c2000 ffffffff812f061a (03) 49 21fb                  AND R11, RDI
0e1c2000 ffffffff812f061d (04) 42 330499                XOR EAX, [RCX+R11*4]
            load    0xffffffff819d052c 0x00000000019d052c (4)
0e1c2000 ffffffff812f0621 (04) 4e 8d1c36                LEA R11, [RSI+R14]
0e1c2000 ffffffff812f0625 (03) 49 21fb                  AND R11, RDI
0e1c2000 ffffffff812f0628 (04) 42 330499                XOR EAX, [RCX+R11*4]
            load    0xffffffff819d06c8 0x00000000019d06c8 (4)
0e1c2000 ffffffff812f062c (04) 4e 8d1c2e                LEA R11, [RSI+R13]
0e1c2000 ffffffff812f0630 (03) 49 21fb                  AND R11, RDI
0e1c2000 ffffffff812f0633 (04) 42 330499                XOR EAX, [RCX+R11*4]
            load    0xffffffff819d0660 0x00000000019d0660 (4)
0e1c2000 ffffffff812f0637 (04) 4e 8d1c16                LEA R11, [RSI+R10]
0e1c2000 ffffffff812f063b (03) 49 21fb                  AND R11, RDI
0e1c2000 ffffffff812f063e (04) 42 330499                XOR EAX, [RCX+R11*4]
            load    0xffffffff819d0600 0x00000000019d0600 (4)
0e1c2000 ffffffff812f0642 (03) 48 89c1                  MOV RCX, RAX
0e1c2000 ffffffff812f0645 (03) c1e8 03                  SHR EAX, 0x3
0e1c2000 ffffffff812f0648 (03) 83e1 07                  AND ECX, 0x7
0e1c2000 ffffffff812f064b (07) 33048d 401b5781          XOR EAX, [RCX*4-0x7ea8e4c0]
            load    0xffffffff81571b5c 0x0000000001571b5c (4)
0e1c2000 ffffffff812f0652 (04) 48 83fe 01               CMP RSI, 0x1
0e1c2000 ffffffff812f0656 (04) 41 890424                MOV [R12], EAX
            store   0xffffffff819d05fc 0x00000000019d05fc (4)
0e1c2000 ffffffff812f065a (02) 19c0                     SBB EAX, EAX
0e1c2000 ffffffff812f065c (03) 83e0 07                  AND EAX, 0x7
0e1c2000 ffffffff812f065f (04) 4c 3b45 c8               CMP R8, [RBP-0x38]
            load    0xffff8800019eecf0 0x00000000019eecf0 (8)
0e1c2000 ffffffff812f0663 (05) 45 8d4c01 07             LEA R9D, [R9+RAX+0x7]
0e1c2000 ffffffff812f0668 (06) 0f85 7affffff            JNZ 0xffffffff812f05e8
0e1c2000 ffffffff812f05e8 (04) 41 0fbe00                MOVSX EAX, BYTE [R8]
            load    0xffff8800019eed43 0x00000000019eed43 (1)
0e1c2000 ffffffff812f05ec (03) 44 89c9                  MOV ECX, R9D
0e1c2000 ffffffff812f05ef (04) 48 83ee 01               SUB RSI, 0x1
0e1c2000 ffffffff812f05f3 (03) 83e1 1f                  AND ECX, 0x1f
0e1c2000 ffffffff812f05f6 (03) 48 21fe                  AND RSI, RDI
0e1c2000 ffffffff812f05f9 (04) 49 83c0 01               ADD R8, 0x1
0e1c2000 ffffffff812f05fd (04) 4c 8d1c16                LEA R11, [RSI+RDX]
0e1c2000 ffffffff812f0601 (02) d3c0                     ROL EAX, CL
0e1c2000 ffffffff812f0603 (04) 48 8b4b 08               MOV RCX, [RBX+0x8]
            load    0xffffffff817d09c8 0x00000000017d09c8 (8)
0e1c2000 ffffffff812f0607 (03) 49 21fb                  AND R11, RDI
0e1c2000 ffffffff812f060a (04) 4c 8d24b1                LEA R12, [RCX+RSI*4]
0e1c2000 ffffffff812f060e (04) 41 330424                XOR EAX, [R12]
            load    0xffffffff819d05f8 0x00000000019d05f8 (4)
0e1c2000 ffffffff812f0612 (04) 42 330499                XOR EAX, [RCX+R11*4]
            load    0xffffffff819d0594 0x00000000019d0594 (4)
0e1c2000 ffffffff812f0616 (04) 4e 8d1c3e                LEA R11, [RSI+R15]
0e1c2000 ffffffff812f061a (03) 49 21fb                  AND R11, RDI
0e1c2000 ffffffff812f061d (04) 42 330499                XOR EAX, [RCX+R11*4]
            load    0xffffffff819d0528 0x00000000019d0528 (4)
0e1c2000 ffffffff812f0621 (04) 4e 8d1c36                LEA R11, [RSI+R14]
0e1c2000 ffffffff812f0625 (03) 49 21fb                  AND R11, RDI
0e1c2000 ffffffff812f0628 (04) 42 330499                XOR EAX, [RCX+R11*4]
            load    0xffffffff819d06c4 0x00000000019d06c4 (4)
0e1c2000 ffffffff812f062c (04) 4e 8d1c2e                LEA R11, [RSI+R13]
0e1c2000 ffffffff812f0630 (03) 49 21fb                  AND R11, RDI
0e1c2000 ffffffff812f0633 (04) 42 330499                XOR EAX, [RCX+R11*4]
            load    0xffffffff819d065c 0x00000000019d065c (4)
0e1c2000 ffffffff812f0637 (04) 4e 8d1c16                LEA R11, [RSI+R10]
0e1c2000 ffffffff812f063b (03) 49 21fb                  AND R11, RDI
0e1c2000 ffffffff812f063e (04) 42 330499                XOR EAX, [RCX+R11*4]
            load    0xffffffff819d05fc 0x00000000019d05fc (4)
0e1c2000 ffffffff812f0642 (03) 48 89c1                  MOV RCX, RAX
0e1c2000 ffffffff812f0645 (03) c1e8 03                  SHR EAX, 0x3
0e1c2000 ffffffff812f0648 (03) 83e1 07                  AND ECX, 0x7
0e1c2000 ffffffff812f064b (07) 33048d 401b5781          XOR EAX, [RCX*4-0x7ea8e4c0]
            load    0xffffffff81571b48 0x0000000001571b48 (4)
0e1c2000 ffffffff812f0652 (04) 48 83fe 01               CMP RSI, 0x1
0e1c2000 ffffffff812f0656 (04) 41 890424                MOV [R12], EAX
            store   0xffffffff819d05f8 0x00000000019d05f8 (4)
0e1c2000 ffffffff812f065a (02) 19c0                     SBB EAX, EAX
0e1c2000 ffffffff812f065c (03) 83e0 07                  AND EAX, 0x7
0e1c2000 ffffffff812f065f (04) 4c 3b45 c8               CMP R8, [RBP-0x38]
            load    0xffff8800019eecf0 0x00000000019eecf0 (8)
0e1c2000 ffffffff812f0663 (05) 45 8d4c01 07             LEA R9D, [R9+RAX+0x7]
0e1c2000 ffffffff812f0668 (06) 0f85 7affffff            JNZ 0xffffffff812f05e8
0e1c2000 ffffffff812f05e8 (04) 41 0fbe00                MOVSX EAX, BYTE [R8]
            load    0xffff8800019eed44 0x00000000019eed44 (1)
0e1c2000 ffffffff812f05ec (03) 44 89c9                  MOV ECX, R9D
0e1c2000 ffffffff812f05ef (04) 48 83ee 01               SUB RSI, 0x1
0e1c2000 ffffffff812f05f3 (03) 83e1 1f                  AND ECX, 0x1f
0e1c2000 ffffffff812f05f6 (03) 48 21fe                  AND RSI, RDI
0e1c2000 ffffffff812f05f9 (04) 49 83c0 01               ADD R8, 0x1
0e1c2000 ffffffff812f05fd (04) 4c 8d1c16                LEA R11, [RSI+RDX]
0e1c2000 ffffffff812f0601 (02) d3c0                     ROL EAX, CL
0e1c2000 ffffffff812f0603 (04) 48 8b4b 08               MOV RCX, [RBX+0x8]
            load    0xffffffff817d09c8 0x00000000017d09c8 (8)
0e1c2000 ffffffff812f0607 (03) 49 21fb                  AND R11, RDI
0e1c2000 ffffffff812f060a (04) 4c 8d24b1                LEA R12, [RCX+RSI*4]
0e1c2000 ffffffff812f060e (04) 41 330424                XOR EAX, [R12]
            load    0xffffffff819d05f4 0x00000000019d05f4 (4)
0e1c2000 ffffffff812f0612 (04) 42 330499                XOR EAX, [RCX+R11*4]
            load    0xffffffff819d0590 0x00000000019d0590 (4)
0e1c2000 ffffffff812f0616 (04) 4e 8d1c3e                LEA R11, [RSI+R15]
0e1c2000 ffffffff812f061a (03) 49 21fb                  AND R11, RDI
0e1c2000 ffffffff812f061d (04) 42 330499                XOR EAX, [RCX+R11*4]
            load    0xffffffff819d0524 0x00000000019d0524 (4)
0e1c2000 ffffffff812f0621 (04) 4e 8d1c36                LEA R11, [RSI+R14]
0e1c2000 ffffffff812f0625 (03) 49 21fb                  AND R11, RDI
0e1c2000 ffffffff812f0628 (04) 42 330499                XOR EAX, [RCX+R11*4]
            load    0xffffffff819d06c0 0x00000000019d06c0 (4)
0e1c2000 ffffffff812f062c (04) 4e 8d1c2e                LEA R11, [RSI+R13]
0e1c2000 ffffffff812f0630 (03) 49 21fb                  AND R11, RDI
0e1c2000 ffffffff812f0633 (04) 42 330499                XOR EAX, [RCX+R11*4]
            load    0xffffffff819d0658 0x00000000019d0658 (4)
0e1c2000 ffffffff812f0637 (04) 4e 8d1c16                LEA R11, [RSI+R10]
0e1c2000 ffffffff812f063b (03) 49 21fb                  AND R11, RDI
0e1c2000 ffffffff812f063e (04) 42 330499                XOR EAX, [RCX+R11*4]
            load    0xffffffff819d05f8 0x00000000019d05f8 (4)
0e1c2000 ffffffff812f0642 (03) 48 89c1                  MOV RCX, RAX
0e1c2000 ffffffff812f0645 (03) c1e8 03                  SHR EAX, 0x3
0e1c2000 ffffffff812f0648 (03) 83e1 07                  AND ECX, 0x7
0e1c2000 ffffffff812f064b (07) 33048d 401b5781          XOR EAX, [RCX*4-0x7ea8e4c0]
            load    0xffffffff81571b5c 0x0000000001571b5c (4)
0e1c2000 ffffffff812f0652 (04) 48 83fe 01               CMP RSI, 0x1
0e1c2000 ffffffff812f0656 (04) 41 890424                MOV [R12], EAX
            store   0xffffffff819d05f4 0x00000000019d05f4 (4)
0e1c2000 ffffffff812f065a (02) 19c0                     SBB EAX, EAX
0e1c2000 ffffffff812f065c (03) 83e0 07                  AND EAX, 0x7
0e1c2000 ffffffff812f065f (04) 4c 3b45 c8               CMP R8, [RBP-0x38]
            load    0xffff8800019eecf0 0x00000000019eecf0 (8)
0e1c2000 ffffffff812f0663 (05) 45 8d4c01 07             LEA R9D, [R9+RAX+0x7]
0e1c2000 ffffffff812f0668 (06) 0f85 7affffff            JNZ 0xffffffff812f05e8
0e1c2000 ffffffff812f05e8 (04) 41 0fbe00                MOVSX EAX, BYTE [R8]
            load    0xffff8800019eed45 0x00000000019eed45 (1)
0e1c2000 ffffffff812f05ec (03) 44 89c9                  MOV ECX, R9D
0e1c2000 ffffffff812f05ef (04) 48 83ee 01               SUB RSI, 0x1
0e1c2000 ffffffff812f05f3 (03) 83e1 1f                  AND ECX, 0x1f
0e1c2000 ffffffff812f05f6 (03) 48 21fe                  AND RSI, RDI
0e1c2000 ffffffff812f05f9 (04) 49 83c0 01               ADD R8, 0x1
0e1c2000 ffffffff812f05fd (04) 4c 8d1c16                LEA R11, [RSI+RDX]
0e1c2000 ffffffff812f0601 (02) d3c0                     ROL EAX, CL
0e1c2000 ffffffff812f0603 (04) 48 8b4b 08               MOV RCX, [RBX+0x8]
            load    0xffffffff817d09c8 0x00000000017d09c8 (8)
0e1c2000 ffffffff812f0607 (03) 49 21fb                  AND R11, RDI
0e1c2000 ffffffff812f060a (04) 4c 8d24b1                LEA R12, [RCX+RSI*4]
0e1c2000 ffffffff812f060e (04) 41 330424                XOR EAX, [R12]
            load    0xffffffff819d05f0 0x00000000019d05f0 (4)
0e1c2000 ffffffff812f0612 (04) 42 330499                XOR EAX, [RCX+R11*4]
            load    0xffffffff819d058c 0x00000000019d058c (4)
0e1c2000 ffffffff812f0616 (04) 4e 8d1c3e                LEA R11, [RSI+R15]
0e1c2000 ffffffff812f061a (03) 49 21fb                  AND R11, RDI
0e1c2000 ffffffff812f061d (04) 42 330499                XOR EAX, [RCX+R11*4]
            load    0xffffffff819d0520 0x00000000019d0520 (4)
0e1c2000 ffffffff812f0621 (04) 4e 8d1c36                LEA R11, [RSI+R14]
0e1c2000 ffffffff812f0625 (03) 49 21fb                  AND R11, RDI
0e1c2000 ffffffff812f0628 (04) 42 330499                XOR EAX, [RCX+R11*4]
            load    0xffffffff819d06bc 0x00000000019d06bc (4)
0e1c2000 ffffffff812f062c (04) 4e 8d1c2e                LEA R11, [RSI+R13]
0e1c2000 ffffffff812f0630 (03) 49 21fb                  AND R11, RDI
0e1c2000 ffffffff812f0633 (04) 42 330499                XOR EAX, [RCX+R11*4]
            load    0xffffffff819d0654 0x00000000019d0654 (4)
0e1c2000 ffffffff812f0637 (04) 4e 8d1c16                LEA R11, [RSI+R10]
0e1c2000 ffffffff812f063b (03) 49 21fb                  AND R11, RDI
0e1c2000 ffffffff812f063e (04) 42 330499                XOR EAX, [RCX+R11*4]
            load    0xffffffff819d05f4 0x00000000019d05f4 (4)
0e1c2000 ffffffff812f0642 (03) 48 89c1                  MOV RCX, RAX
0e1c2000 ffffffff812f0645 (03) c1e8 03                  SHR EAX, 0x3
0e1c2000 ffffffff812f0648 (03) 83e1 07                  AND ECX, 0x7
0e1c2000 ffffffff812f064b (07) 33048d 401b5781          XOR EAX, [RCX*4-0x7ea8e4c0]
            load    0xffffffff81571b54 0x0000000001571b54 (4)
0e1c2000 ffffffff812f0652 (04) 48 83fe 01               CMP RSI, 0x1
0e1c2000 ffffffff812f0656 (04) 41 890424                MOV [R12], EAX
            store   0xffffffff819d05f0 0x00000000019d05f0 (4)
0e1c2000 ffffffff812f065a (02) 19c0                     SBB EAX, EAX
0e1c2000 ffffffff812f065c (03) 83e0 07                  AND EAX, 0x7
0e1c2000 ffffffff812f065f (04) 4c 3b45 c8               CMP R8, [RBP-0x38]
            load    0xffff8800019eecf0 0x00000000019eecf0 (8)
0e1c2000 ffffffff812f0663 (05) 45 8d4c01 07             LEA R9D, [R9+RAX+0x7]
0e1c2000 ffffffff812f0668 (06) 0f85 7affffff            JNZ 0xffffffff812f05e8
0e1c2000 ffffffff812f05e8 (04) 41 0fbe00                MOVSX EAX, BYTE [R8]
            load    0xffff8800019eed46 0x00000000019eed46 (1)
0e1c2000 ffffffff812f05ec (03) 44 89c9                  MOV ECX, R9D
0e1c2000 ffffffff812f05ef (04) 48 83ee 01               SUB RSI, 0x1
0e1c2000 ffffffff812f05f3 (03) 83e1 1f                  AND ECX, 0x1f
0e1c2000 ffffffff812f05f6 (03) 48 21fe                  AND RSI, RDI
0e1c2000 ffffffff812f05f9 (04) 49 83c0 01               ADD R8, 0x1
0e1c2000 ffffffff812f05fd (04) 4c 8d1c16                LEA R11, [RSI+RDX]
0e1c2000 ffffffff812f0601 (02) d3c0                     ROL EAX, CL
0e1c2000 ffffffff812f0603 (04) 48 8b4b 08               MOV RCX, [RBX+0x8]
            load    0xffffffff817d09c8 0x00000000017d09c8 (8)
0e1c2000 ffffffff812f0607 (03) 49 21fb                  AND R11, RDI
0e1c2000 ffffffff812f060a (04) 4c 8d24b1                LEA R12, [RCX+RSI*4]
0e1c2000 ffffffff812f060e (04) 41 330424                XOR EAX, [R12]
            load    0xffffffff819d05ec 0x00000000019d05ec (4)
0e1c2000 ffffffff812f0612 (04) 42 330499                XOR EAX, [RCX+R11*4]
            load    0xffffffff819d0588 0x00000000019d0588 (4)
0e1c2000 ffffffff812f0616 (04) 4e 8d1c3e                LEA R11, [RSI+R15]
0e1c2000 ffffffff812f061a (03) 49 21fb                  AND R11, RDI
0e1c2000 ffffffff812f061d (04) 42 330499                XOR EAX, [RCX+R11*4]
            load    0xffffffff819d071c 0x00000000019d071c (4)
0e1c2000 ffffffff812f0621 (04) 4e 8d1c36                LEA R11, [RSI+R14]
0e1c2000 ffffffff812f0625 (03) 49 21fb                  AND R11, RDI
0e1c2000 ffffffff812f0628 (04) 42 330499                XOR EAX, [RCX+R11*4]
            load    0xffffffff819d06b8 0x00000000019d06b8 (4)
0e1c2000 ffffffff812f062c (04) 4e 8d1c2e                LEA R11, [RSI+R13]
0e1c2000 ffffffff812f0630 (03) 49 21fb                  AND R11, RDI
0e1c2000 ffffffff812f0633 (04) 42 330499                XOR EAX, [RCX+R11*4]
            load    0xffffffff819d0650 0x00000000019d0650 (4)
0e1c2000 ffffffff812f0637 (04) 4e 8d1c16                LEA R11, [RSI+R10]
0e1c2000 ffffffff812f063b (03) 49 21fb                  AND R11, RDI
0e1c2000 ffffffff812f063e (04) 42 330499                XOR EAX, [RCX+R11*4]
            load    0xffffffff819d05f0 0x00000000019d05f0 (4)
0e1c2000 ffffffff812f0642 (03) 48 89c1                  MOV RCX, RAX
0e1c2000 ffffffff812f0645 (03) c1e8 03                  SHR EAX, 0x3
0e1c2000 ffffffff812f0648 (03) 83e1 07                  AND ECX, 0x7
0e1c2000 ffffffff812f064b (07) 33048d 401b5781          XOR EAX, [RCX*4-0x7ea8e4c0]
            load    0xffffffff81571b48 0x0000000001571b48 (4)
0e1c2000 ffffffff812f0652 (04) 48 83fe 01               CMP RSI, 0x1
0e1c2000 ffffffff812f0656 (04) 41 890424                MOV [R12], EAX
            store   0xffffffff819d05ec 0x00000000019d05ec (4)
0e1c2000 ffffffff812f065a (02) 19c0                     SBB EAX, EAX
0e1c2000 ffffffff812f065c (03) 83e0 07                  AND EAX, 0x7
0e1c2000 ffffffff812f065f (04) 4c 3b45 c8               CMP R8, [RBP-0x38]
            load    0xffff8800019eecf0 0x00000000019eecf0 (8)
0e1c2000 ffffffff812f0663 (05) 45 8d4c01 07             LEA R9D, [R9+RAX+0x7]
0e1c2000 ffffffff812f0668 (06) 0f85 7affffff            JNZ 0xffffffff812f05e8
0e1c2000 ffffffff812f05e8 (04) 41 0fbe00                MOVSX EAX, BYTE [R8]
            load    0xffff8800019eed47 0x00000000019eed47 (1)
0e1c2000 ffffffff812f05ec (03) 44 89c9                  MOV ECX, R9D
0e1c2000 ffffffff812f05ef (04) 48 83ee 01               SUB RSI, 0x1
0e1c2000 ffffffff812f05f3 (03) 83e1 1f                  AND ECX, 0x1f
0e1c2000 ffffffff812f05f6 (03) 48 21fe                  AND RSI, RDI
0e1c2000 ffffffff812f05f9 (04) 49 83c0 01               ADD R8, 0x1
0e1c2000 ffffffff812f05fd (04) 4c 8d1c16                LEA R11, [RSI+RDX]
0e1c2000 ffffffff812f0601 (02) d3c0                     ROL EAX, CL
0e1c2000 ffffffff812f0603 (04) 48 8b4b 08               MOV RCX, [RBX+0x8]
            load    0xffffffff817d09c8 0x00000000017d09c8 (8)
0e1c2000 ffffffff812f0607 (03) 49 21fb                  AND R11, RDI
0e1c2000 ffffffff812f060a (04) 4c 8d24b1                LEA R12, [RCX+RSI*4]
0e1c2000 ffffffff812f060e (04) 41 330424                XOR EAX, [R12]
            load    0xffffffff819d05e8 0x00000000019d05e8 (4)
0e1c2000 ffffffff812f0612 (04) 42 330499                XOR EAX, [RCX+R11*4]
            load    0xffffffff819d0584 0x00000000019d0584 (4)
0e1c2000 ffffffff812f0616 (04) 4e 8d1c3e                LEA R11, [RSI+R15]
0e1c2000 ffffffff812f061a (03) 49 21fb                  AND R11, RDI
0e1c2000 ffffffff812f061d (04) 42 330499                XOR EAX, [RCX+R11*4]
            load    0xffffffff819d0718 0x00000000019d0718 (4)
0e1c2000 ffffffff812f0621 (04) 4e 8d1c36                LEA R11, [RSI+R14]
0e1c2000 ffffffff812f0625 (03) 49 21fb                  AND R11, RDI
0e1c2000 ffffffff812f0628 (04) 42 330499                XOR EAX, [RCX+R11*4]
            load    0xffffffff819d06b4 0x00000000019d06b4 (4)
0e1c2000 ffffffff812f062c (04) 4e 8d1c2e                LEA R11, [RSI+R13]
0e1c2000 ffffffff812f0630 (03) 49 21fb                  AND R11, RDI
0e1c2000 ffffffff812f0633 (04) 42 330499                XOR EAX, [RCX+R11*4]
            load    0xffffffff819d064c 0x00000000019d064c (4)
0e1c2000 ffffffff812f0637 (04) 4e 8d1c16                LEA R11, [RSI+R10]
0e1c2000 ffffffff812f063b (03) 49 21fb                  AND R11, RDI
0e1c2000 ffffffff812f063e (04) 42 330499                XOR EAX, [RCX+R11*4]
            load    0xffffffff819d05ec 0x00000000019d05ec (4)
0e1c2000 ffffffff812f0642 (03) 48 89c1                  MOV RCX, RAX
0e1c2000 ffffffff812f0645 (03) c1e8 03                  SHR EAX, 0x3
0e1c2000 ffffffff812f0648 (03) 83e1 07                  AND ECX, 0x7
0e1c2000 ffffffff812f064b (07) 33048d 401b5781          XOR EAX, [RCX*4-0x7ea8e4c0]
            load    0xffffffff81571b44 0x0000000001571b44 (4)
0e1c2000 ffffffff812f0652 (04) 48 83fe 01               CMP RSI, 0x1
0e1c2000 ffffffff812f0656 (04) 41 890424                MOV [R12], EAX
            store   0xffffffff819d05e8 0x00000000019d05e8 (4)
0e1c2000 ffffffff812f065a (02) 19c0                     SBB EAX, EAX
0e1c2000 ffffffff812f065c (03) 83e0 07                  AND EAX, 0x7
0e1c2000 ffffffff812f065f (04) 4c 3b45 c8               CMP R8, [RBP-0x38]
            load    0xffff8800019eecf0 0x00000000019eecf0 (8)
0e1c2000 ffffffff812f0663 (05) 45 8d4c01 07             LEA R9D, [R9+RAX+0x7]
0e1c2000 ffffffff812f0668 (06) 0f85 7affffff            JNZ 0xffffffff812f05e8
0e1c2000 ffffffff812f05e8 (04) 41 0fbe00                MOVSX EAX, BYTE [R8]
            load    0xffff8800019eed48 0x00000000019eed48 (1)
0e1c2000 ffffffff812f05ec (03) 44 89c9                  MOV ECX, R9D
0e1c2000 ffffffff812f05ef (04) 48 83ee 01               SUB RSI, 0x1
0e1c2000 ffffffff812f05f3 (03) 83e1 1f                  AND ECX, 0x1f
0e1c2000 ffffffff812f05f6 (03) 48 21fe                  AND RSI, RDI
0e1c2000 ffffffff812f05f9 (04) 49 83c0 01               ADD R8, 0x1
0e1c2000 ffffffff812f05fd (04) 4c 8d1c16                LEA R11, [RSI+RDX]
0e1c2000 ffffffff812f0601 (02) d3c0                     ROL EAX, CL
0e1c2000 ffffffff812f0603 (04) 48 8b4b 08               MOV RCX, [RBX+0x8]
            load    0xffffffff817d09c8 0x00000000017d09c8 (8)
0e1c2000 ffffffff812f0607 (03) 49 21fb                  AND R11, RDI
0e1c2000 ffffffff812f060a (04) 4c 8d24b1                LEA R12, [RCX+RSI*4]
0e1c2000 ffffffff812f060e (04) 41 330424                XOR EAX, [R12]
            load    0xffffffff819d05e4 0x00000000019d05e4 (4)
0e1c2000 ffffffff812f0612 (04) 42 330499                XOR EAX, [RCX+R11*4]
            load    0xffffffff819d0580 0x00000000019d0580 (4)
0e1c2000 ffffffff812f0616 (04) 4e 8d1c3e                LEA R11, [RSI+R15]
0e1c2000 ffffffff812f061a (03) 49 21fb                  AND R11, RDI
0e1c2000 ffffffff812f061d (04) 42 330499                XOR EAX, [RCX+R11*4]
            load    0xffffffff819d0714 0x00000000019d0714 (4)
0e1c2000 ffffffff812f0621 (04) 4e 8d1c36                LEA R11, [RSI+R14]
0e1c2000 ffffffff812f0625 (03) 49 21fb                  AND R11, RDI
0e1c2000 ffffffff812f0628 (04) 42 330499                XOR EAX, [RCX+R11*4]
            load    0xffffffff819d06b0 0x00000000019d06b0 (4)
0e1c2000 ffffffff812f062c (04) 4e 8d1c2e                LEA R11, [RSI+R13]
0e1c2000 ffffffff812f0630 (03) 49 21fb                  AND R11, RDI
0e1c2000 ffffffff812f0633 (04) 42 330499                XOR EAX, [RCX+R11*4]
            load    0xffffffff819d0648 0x00000000019d0648 (4)
0e1c2000 ffffffff812f0637 (04) 4e 8d1c16                LEA R11, [RSI+R10]
0e1c2000 ffffffff812f063b (03) 49 21fb                  AND R11, RDI
0e1c2000 ffffffff812f063e (04) 42 330499                XOR EAX, [RCX+R11*4]
            load    0xffffffff819d05e8 0x00000000019d05e8 (4)
0e1c2000 ffffffff812f0642 (03) 48 89c1                  MOV RCX, RAX
0e1c2000 ffffffff812f0645 (03) c1e8 03                  SHR EAX, 0x3
0e1c2000 ffffffff812f0648 (03) 83e1 07                  AND ECX, 0x7
0e1c2000 ffffffff812f064b (07) 33048d 401b5781          XOR EAX, [RCX*4-0x7ea8e4c0]
            load    0xffffffff81571b48 0x0000000001571b48 (4)
0e1c2000 ffffffff812f0652 (04) 48 83fe 01               CMP RSI, 0x1
0e1c2000 ffffffff812f0656 (04) 41 890424                MOV [R12], EAX
            store   0xffffffff819d05e4 0x00000000019d05e4 (4)
0e1c2000 ffffffff812f065a (02) 19c0                     SBB EAX, EAX
0e1c2000 ffffffff812f065c (03) 83e0 07                  AND EAX, 0x7
0e1c2000 ffffffff812f065f (04) 4c 3b45 c8               CMP R8, [RBP-0x38]
            load    0xffff8800019eecf0 0x00000000019eecf0 (8)
0e1c2000 ffffffff812f0663 (05) 45 8d4c01 07             LEA R9D, [R9+RAX+0x7]
0e1c2000 ffffffff812f0668 (06) 0f85 7affffff            JNZ 0xffffffff812f05e8
0e1c2000 ffffffff812f05e8 (04) 41 0fbe00                MOVSX EAX, BYTE [R8]
            load    0xffff8800019eed49 0x00000000019eed49 (1)
0e1c2000 ffffffff812f05ec (03) 44 89c9                  MOV ECX, R9D
0e1c2000 ffffffff812f05ef (04) 48 83ee 01               SUB RSI, 0x1
0e1c2000 ffffffff812f05f3 (03) 83e1 1f                  AND ECX, 0x1f
0e1c2000 ffffffff812f05f6 (03) 48 21fe                  AND RSI, RDI
0e1c2000 ffffffff812f05f9 (04) 49 83c0 01               ADD R8, 0x1
0e1c2000 ffffffff812f05fd (04) 4c 8d1c16                LEA R11, [RSI+RDX]
0e1c2000 ffffffff812f0601 (02) d3c0                     ROL EAX, CL
0e1c2000 ffffffff812f0603 (04) 48 8b4b 08               MOV RCX, [RBX+0x8]
            load    0xffffffff817d09c8 0x00000000017d09c8 (8)
0e1c2000 ffffffff812f0607 (03) 49 21fb                  AND R11, RDI
0e1c2000 ffffffff812f060a (04) 4c 8d24b1                LEA R12, [RCX+RSI*4]
0e1c2000 ffffffff812f060e (04) 41 330424                XOR EAX, [R12]
            load    0xffffffff819d05e0 0x00000000019d05e0 (4)
0e1c2000 ffffffff812f0612 (04) 42 330499                XOR EAX, [RCX+R11*4]
            load    0xffffffff819d057c 0x00000000019d057c (4)
0e1c2000 ffffffff812f0616 (04) 4e 8d1c3e                LEA R11, [RSI+R15]
0e1c2000 ffffffff812f061a (03) 49 21fb                  AND R11, RDI
0e1c2000 ffffffff812f061d (04) 42 330499                XOR EAX, [RCX+R11*4]
            load    0xffffffff819d0710 0x00000000019d0710 (4)
0e1c2000 ffffffff812f0621 (04) 4e 8d1c36                LEA R11, [RSI+R14]
0e1c2000 ffffffff812f0625 (03) 49 21fb                  AND R11, RDI
0e1c2000 ffffffff812f0628 (04) 42 330499                XOR EAX, [RCX+R11*4]
            load    0xffffffff819d06ac 0x00000000019d06ac (4)
0e1c2000 ffffffff812f062c (04) 4e 8d1c2e                LEA R11, [RSI+R13]
0e1c2000 ffffffff812f0630 (03) 49 21fb                  AND R11, RDI
0e1c2000 ffffffff812f0633 (04) 42 330499                XOR EAX, [RCX+R11*4]
            load    0xffffffff819d0644 0x00000000019d0644 (4)
0e1c2000 ffffffff812f0637 (04) 4e 8d1c16                LEA R11, [RSI+R10]
0e1c2000 ffffffff812f063b (03) 49 21fb                  AND R11, RDI
0e1c2000 ffffffff812f063e (04) 42 330499                XOR EAX, [RCX+R11*4]
            load    0xffffffff819d05e4 0x00000000019d05e4 (4)
0e1c2000 ffffffff812f0642 (03) 48 89c1                  MOV RCX, RAX
0e1c2000 ffffffff812f0645 (03) c1e8 03                  SHR EAX, 0x3
0e1c2000 ffffffff812f0648 (03) 83e1 07                  AND ECX, 0x7
0e1c2000 ffffffff812f064b (07) 33048d 401b5781          XOR EAX, [RCX*4-0x7ea8e4c0]
            load    0xffffffff81571b54 0x0000000001571b54 (4)
0e1c2000 ffffffff812f0652 (04) 48 83fe 01               CMP RSI, 0x1
0e1c2000 ffffffff812f0656 (04) 41 890424                MOV [R12], EAX
            store   0xffffffff819d05e0 0x00000000019d05e0 (4)
0e1c2000 ffffffff812f065a (02) 19c0                     SBB EAX, EAX
0e1c2000 ffffffff812f065c (03) 83e0 07                  AND EAX, 0x7
0e1c2000 ffffffff812f065f (04) 4c 3b45 c8               CMP R8, [RBP-0x38]
            load    0xffff8800019eecf0 0x00000000019eecf0 (8)
0e1c2000 ffffffff812f0663 (05) 45 8d4c01 07             LEA R9D, [R9+RAX+0x7]
0e1c2000 ffffffff812f0668 (06) 0f85 7affffff            JNZ 0xffffffff812f05e8
0e1c2000 ffffffff812f05e8 (04) 41 0fbe00                MOVSX EAX, BYTE [R8]
            load    0xffff8800019eed4a 0x00000000019eed4a (1)
0e1c2000 ffffffff812f05ec (03) 44 89c9                  MOV ECX, R9D
0e1c2000 ffffffff812f05ef (04) 48 83ee 01               SUB RSI, 0x1
0e1c2000 ffffffff812f05f3 (03) 83e1 1f                  AND ECX, 0x1f
0e1c2000 ffffffff812f05f6 (03) 48 21fe                  AND RSI, RDI
0e1c2000 ffffffff812f05f9 (04) 49 83c0 01               ADD R8, 0x1
0e1c2000 ffffffff812f05fd (04) 4c 8d1c16                LEA R11, [RSI+RDX]
0e1c2000 ffffffff812f0601 (02) d3c0                     ROL EAX, CL
0e1c2000 ffffffff812f0603 (04) 48 8b4b 08               MOV RCX, [RBX+0x8]
            load    0xffffffff817d09c8 0x00000000017d09c8 (8)
0e1c2000 ffffffff812f0607 (03) 49 21fb                  AND R11, RDI
0e1c2000 ffffffff812f060a (04) 4c 8d24b1                LEA R12, [RCX+RSI*4]
0e1c2000 ffffffff812f060e (04) 41 330424                XOR EAX, [R12]
            load    0xffffffff819d05dc 0x00000000019d05dc (4)
0e1c2000 ffffffff812f0612 (04) 42 330499                XOR EAX, [RCX+R11*4]
            load    0xffffffff819d0578 0x00000000019d0578 (4)
0e1c2000 ffffffff812f0616 (04) 4e 8d1c3e                LEA R11, [RSI+R15]
0e1c2000 ffffffff812f061a (03) 49 21fb                  AND R11, RDI
0e1c2000 ffffffff812f061d (04) 42 330499                XOR EAX, [RCX+R11*4]
            load    0xffffffff819d070c 0x00000000019d070c (4)
0e1c2000 ffffffff812f0621 (04) 4e 8d1c36                LEA R11, [RSI+R14]
0e1c2000 ffffffff812f0625 (03) 49 21fb                  AND R11, RDI
0e1c2000 ffffffff812f0628 (04) 42 330499                XOR EAX, [RCX+R11*4]
            load    0xffffffff819d06a8 0x00000000019d06a8 (4)
0e1c2000 ffffffff812f062c (04) 4e 8d1c2e                LEA R11, [RSI+R13]
0e1c2000 ffffffff812f0630 (03) 49 21fb                  AND R11, RDI
0e1c2000 ffffffff812f0633 (04) 42 330499                XOR EAX, [RCX+R11*4]
            load    0xffffffff819d0640 0x00000000019d0640 (4)
0e1c2000 ffffffff812f0637 (04) 4e 8d1c16                LEA R11, [RSI+R10]
0e1c2000 ffffffff812f063b (03) 49 21fb                  AND R11, RDI
0e1c2000 ffffffff812f063e (04) 42 330499                XOR EAX, [RCX+R11*4]
            load    0xffffffff819d05e0 0x00000000019d05e0 (4)
0e1c2000 ffffffff812f0642 (03) 48 89c1                  MOV RCX, RAX
0e1c2000 ffffffff812f0645 (03) c1e8 03                  SHR EAX, 0x3
0e1c2000 ffffffff812f0648 (03) 83e1 07                  AND ECX, 0x7
0e1c2000 ffffffff812f064b (07) 33048d 401b5781          XOR EAX, [RCX*4-0x7ea8e4c0]
            load    0xffffffff81571b4c 0x0000000001571b4c (4)
0e1c2000 ffffffff812f0652 (04) 48 83fe 01               CMP RSI, 0x1
0e1c2000 ffffffff812f0656 (04) 41 890424                MOV [R12], EAX
            store   0xffffffff819d05dc 0x00000000019d05dc (4)
0e1c2000 ffffffff812f065a (02) 19c0                     SBB EAX, EAX
0e1c2000 ffffffff812f065c (03) 83e0 07                  AND EAX, 0x7
0e1c2000 ffffffff812f065f (04) 4c 3b45 c8               CMP R8, [RBP-0x38]
            load    0xffff8800019eecf0 0x00000000019eecf0 (8)
0e1c2000 ffffffff812f0663 (05) 45 8d4c01 07             LEA R9D, [R9+RAX+0x7]
0e1c2000 ffffffff812f0668 (06) 0f85 7affffff            JNZ 0xffffffff812f05e8
0e1c2000 ffffffff812f05e8 (04) 41 0fbe00                MOVSX EAX, BYTE [R8]
            load    0xffff8800019eed4b 0x00000000019eed4b (1)
0e1c2000 ffffffff812f05ec (03) 44 89c9                  MOV ECX, R9D
0e1c2000 ffffffff812f05ef (04) 48 83ee 01               SUB RSI, 0x1
0e1c2000 ffffffff812f05f3 (03) 83e1 1f                  AND ECX, 0x1f
0e1c2000 ffffffff812f05f6 (03) 48 21fe                  AND RSI, RDI
0e1c2000 ffffffff812f05f9 (04) 49 83c0 01               ADD R8, 0x1
0e1c2000 ffffffff812f05fd (04) 4c 8d1c16                LEA R11, [RSI+RDX]
0e1c2000 ffffffff812f0601 (02) d3c0                     ROL EAX, CL
0e1c2000 ffffffff812f0603 (04) 48 8b4b 08               MOV RCX, [RBX+0x8]
            load    0xffffffff817d09c8 0x00000000017d09c8 (8)
0e1c2000 ffffffff812f0607 (03) 49 21fb                  AND R11, RDI
0e1c2000 ffffffff812f060a (04) 4c 8d24b1                LEA R12, [RCX+RSI*4]
0e1c2000 ffffffff812f060e (04) 41 330424                XOR EAX, [R12]
            load    0xffffffff819d05d8 0x00000000019d05d8 (4)
0e1c2000 ffffffff812f0612 (04) 42 330499                XOR EAX, [RCX+R11*4]
            load    0xffffffff819d0574 0x00000000019d0574 (4)
0e1c2000 ffffffff812f0616 (04) 4e 8d1c3e                LEA R11, [RSI+R15]
0e1c2000 ffffffff812f061a (03) 49 21fb                  AND R11, RDI
0e1c2000 ffffffff812f061d (04) 42 330499                XOR EAX, [RCX+R11*4]
            load    0xffffffff819d0708 0x00000000019d0708 (4)
0e1c2000 ffffffff812f0621 (04) 4e 8d1c36                LEA R11, [RSI+R14]
0e1c2000 ffffffff812f0625 (03) 49 21fb                  AND R11, RDI
0e1c2000 ffffffff812f0628 (04) 42 330499                XOR EAX, [RCX+R11*4]
            load    0xffffffff819d06a4 0x00000000019d06a4 (4)
0e1c2000 ffffffff812f062c (04) 4e 8d1c2e                LEA R11, [RSI+R13]
0e1c2000 ffffffff812f0630 (03) 49 21fb                  AND R11, RDI
0e1c2000 ffffffff812f0633 (04) 42 330499                XOR EAX, [RCX+R11*4]
            load    0xffffffff819d063c 0x00000000019d063c (4)
0e1c2000 ffffffff812f0637 (04) 4e 8d1c16                LEA R11, [RSI+R10]
0e1c2000 ffffffff812f063b (03) 49 21fb                  AND R11, RDI
0e1c2000 ffffffff812f063e (04) 42 330499                XOR EAX, [RCX+R11*4]
            load    0xffffffff819d05dc 0x00000000019d05dc (4)
0e1c2000 ffffffff812f0642 (03) 48 89c1                  MOV RCX, RAX
0e1c2000 ffffffff812f0645 (03) c1e8 03                  SHR EAX, 0x3
0e1c2000 ffffffff812f0648 (03) 83e1 07                  AND ECX, 0x7
0e1c2000 ffffffff812f064b (07) 33048d 401b5781          XOR EAX, [RCX*4-0x7ea8e4c0]
            load    0xffffffff81571b40 0x0000000001571b40 (4)
0e1c2000 ffffffff812f0652 (04) 48 83fe 01               CMP RSI, 0x1
0e1c2000 ffffffff812f0656 (04) 41 890424                MOV [R12], EAX
            store   0xffffffff819d05d8 0x00000000019d05d8 (4)
0e1c2000 ffffffff812f065a (02) 19c0                     SBB EAX, EAX
0e1c2000 ffffffff812f065c (03) 83e0 07                  AND EAX, 0x7
0e1c2000 ffffffff812f065f (04) 4c 3b45 c8               CMP R8, [RBP-0x38]
            load    0xffff8800019eecf0 0x00000000019eecf0 (8)
0e1c2000 ffffffff812f0663 (05) 45 8d4c01 07             LEA R9D, [R9+RAX+0x7]
0e1c2000 ffffffff812f0668 (06) 0f85 7affffff            JNZ 0xffffffff812f05e8
0e1c2000 ffffffff812f05e8 (04) 41 0fbe00                MOVSX EAX, BYTE [R8]
            load    0xffff8800019eed4c 0x00000000019eed4c (1)
0e1c2000 ffffffff812f05ec (03) 44 89c9                  MOV ECX, R9D
0e1c2000 ffffffff812f05ef (04) 48 83ee 01               SUB RSI, 0x1
0e1c2000 ffffffff812f05f3 (03) 83e1 1f                  AND ECX, 0x1f
0e1c2000 ffffffff812f05f6 (03) 48 21fe                  AND RSI, RDI
0e1c2000 ffffffff812f05f9 (04) 49 83c0 01               ADD R8, 0x1
0e1c2000 ffffffff812f05fd (04) 4c 8d1c16                LEA R11, [RSI+RDX]
0e1c2000 ffffffff812f0601 (02) d3c0                     ROL EAX, CL
0e1c2000 ffffffff812f0603 (04) 48 8b4b 08               MOV RCX, [RBX+0x8]
            load    0xffffffff817d09c8 0x00000000017d09c8 (8)
0e1c2000 ffffffff812f0607 (03) 49 21fb                  AND R11, RDI
0e1c2000 ffffffff812f060a (04) 4c 8d24b1                LEA R12, [RCX+RSI*4]
0e1c2000 ffffffff812f060e (04) 41 330424                XOR EAX, [R12]
            load    0xffffffff819d05d4 0x00000000019d05d4 (4)
0e1c2000 ffffffff812f0612 (04) 42 330499                XOR EAX, [RCX+R11*4]
            load    0xffffffff819d0570 0x00000000019d0570 (4)
0e1c2000 ffffffff812f0616 (04) 4e 8d1c3e                LEA R11, [RSI+R15]
0e1c2000 ffffffff812f061a (03) 49 21fb                  AND R11, RDI
0e1c2000 ffffffff812f061d (04) 42 330499                XOR EAX, [RCX+R11*4]
            load    0xffffffff819d0704 0x00000000019d0704 (4)
0e1c2000 ffffffff812f0621 (04) 4e 8d1c36                LEA R11, [RSI+R14]
0e1c2000 ffffffff812f0625 (03) 49 21fb                  AND R11, RDI
0e1c2000 ffffffff812f0628 (04) 42 330499                XOR EAX, [RCX+R11*4]
            load    0xffffffff819d06a0 0x00000000019d06a0 (4)
0e1c2000 ffffffff812f062c (04) 4e 8d1c2e                LEA R11, [RSI+R13]
0e1c2000 ffffffff812f0630 (03) 49 21fb                  AND R11, RDI
0e1c2000 ffffffff812f0633 (04) 42 330499                XOR EAX, [RCX+R11*4]
            load    0xffffffff819d0638 0x00000000019d0638 (4)
0e1c2000 ffffffff812f0637 (04) 4e 8d1c16                LEA R11, [RSI+R10]
0e1c2000 ffffffff812f063b (03) 49 21fb                  AND R11, RDI
0e1c2000 ffffffff812f063e (04) 42 330499                XOR EAX, [RCX+R11*4]
            load    0xffffffff819d05d8 0x00000000019d05d8 (4)
0e1c2000 ffffffff812f0642 (03) 48 89c1                  MOV RCX, RAX
0e1c2000 ffffffff812f0645 (03) c1e8 03                  SHR EAX, 0x3
0e1c2000 ffffffff812f0648 (03) 83e1 07                  AND ECX, 0x7
0e1c2000 ffffffff812f064b (07) 33048d 401b5781          XOR EAX, [RCX*4-0x7ea8e4c0]
            load    0xffffffff81571b4c 0x0000000001571b4c (4)
0e1c2000 ffffffff812f0652 (04) 48 83fe 01               CMP RSI, 0x1
0e1c2000 ffffffff812f0656 (04) 41 890424                MOV [R12], EAX
            store   0xffffffff819d05d4 0x00000000019d05d4 (4)
0e1c2000 ffffffff812f065a (02) 19c0                     SBB EAX, EAX
0e1c2000 ffffffff812f065c (03) 83e0 07                  AND EAX, 0x7
0e1c2000 ffffffff812f065f (04) 4c 3b45 c8               CMP R8, [RBP-0x38]
            load    0xffff8800019eecf0 0x00000000019eecf0 (8)
0e1c2000 ffffffff812f0663 (05) 45 8d4c01 07             LEA R9D, [R9+RAX+0x7]
0e1c2000 ffffffff812f0668 (06) 0f85 7affffff            JNZ 0xffffffff812f05e8
0e1c2000 ffffffff812f05e8 (04) 41 0fbe00                MOVSX EAX, BYTE [R8]
            load    0xffff8800019eed4d 0x00000000019eed4d (1)
0e1c2000 ffffffff812f05ec (03) 44 89c9                  MOV ECX, R9D
0e1c2000 ffffffff812f05ef (04) 48 83ee 01               SUB RSI, 0x1
0e1c2000 ffffffff812f05f3 (03) 83e1 1f                  AND ECX, 0x1f
0e1c2000 ffffffff812f05f6 (03) 48 21fe                  AND RSI, RDI
0e1c2000 ffffffff812f05f9 (04) 49 83c0 01               ADD R8, 0x1
0e1c2000 ffffffff812f05fd (04) 4c 8d1c16                LEA R11, [RSI+RDX]
0e1c2000 ffffffff812f0601 (02) d3c0                     ROL EAX, CL
0e1c2000 ffffffff812f0603 (04) 48 8b4b 08               MOV RCX, [RBX+0x8]
            load    0xffffffff817d09c8 0x00000000017d09c8 (8)
0e1c2000 ffffffff812f0607 (03) 49 21fb                  AND R11, RDI
0e1c2000 ffffffff812f060a (04) 4c 8d24b1                LEA R12, [RCX+RSI*4]
0e1c2000 ffffffff812f060e (04) 41 330424                XOR EAX, [R12]
            load    0xffffffff819d05d0 0x00000000019d05d0 (4)
0e1c2000 ffffffff812f0612 (04) 42 330499                XOR EAX, [RCX+R11*4]
            load    0xffffffff819d056c 0x00000000019d056c (4)
0e1c2000 ffffffff812f0616 (04) 4e 8d1c3e                LEA R11, [RSI+R15]
0e1c2000 ffffffff812f061a (03) 49 21fb                  AND R11, RDI
0e1c2000 ffffffff812f061d (04) 42 330499                XOR EAX, [RCX+R11*4]
            load    0xffffffff819d0700 0x00000000019d0700 (4)
0e1c2000 ffffffff812f0621 (04) 4e 8d1c36                LEA R11, [RSI+R14]
0e1c2000 ffffffff812f0625 (03) 49 21fb                  AND R11, RDI
0e1c2000 ffffffff812f0628 (04) 42 330499                XOR EAX, [RCX+R11*4]
            load    0xffffffff819d069c 0x00000000019d069c (4)
0e1c2000 ffffffff812f062c (04) 4e 8d1c2e                LEA R11, [RSI+R13]
0e1c2000 ffffffff812f0630 (03) 49 21fb                  AND R11, RDI
0e1c2000 ffffffff812f0633 (04) 42 330499                XOR EAX, [RCX+R11*4]
            load    0xffffffff819d0634 0x00000000019d0634 (4)
0e1c2000 ffffffff812f0637 (04) 4e 8d1c16                LEA R11, [RSI+R10]
0e1c2000 ffffffff812f063b (03) 49 21fb                  AND R11, RDI
0e1c2000 ffffffff812f063e (04) 42 330499                XOR EAX, [RCX+R11*4]
            load    0xffffffff819d05d4 0x00000000019d05d4 (4)
0e1c2000 ffffffff812f0642 (03) 48 89c1                  MOV RCX, RAX
0e1c2000 ffffffff812f0645 (03) c1e8 03                  SHR EAX, 0x3
0e1c2000 ffffffff812f0648 (03) 83e1 07                  AND ECX, 0x7
0e1c2000 ffffffff812f064b (07) 33048d 401b5781          XOR EAX, [RCX*4-0x7ea8e4c0]
            load    0xffffffff81571b44 0x0000000001571b44 (4)
0e1c2000 ffffffff812f0652 (04) 48 83fe 01               CMP RSI, 0x1
0e1c2000 ffffffff812f0656 (04) 41 890424                MOV [R12], EAX
            store   0xffffffff819d05d0 0x00000000019d05d0 (4)
0e1c2000 ffffffff812f065a (02) 19c0                     SBB EAX, EAX
0e1c2000 ffffffff812f065c (03) 83e0 07                  AND EAX, 0x7
0e1c2000 ffffffff812f065f (04) 4c 3b45 c8               CMP R8, [RBP-0x38]
            load    0xffff8800019eecf0 0x00000000019eecf0 (8)
0e1c2000 ffffffff812f0663 (05) 45 8d4c01 07             LEA R9D, [R9+RAX+0x7]
0e1c2000 ffffffff812f0668 (06) 0f85 7affffff            JNZ 0xffffffff812f05e8
0e1c2000 ffffffff812f05e8 (04) 41 0fbe00                MOVSX EAX, BYTE [R8]
            load    0xffff8800019eed4e 0x00000000019eed4e (1)
0e1c2000 ffffffff812f05ec (03) 44 89c9                  MOV ECX, R9D
0e1c2000 ffffffff812f05ef (04) 48 83ee 01               SUB RSI, 0x1
0e1c2000 ffffffff812f05f3 (03) 83e1 1f                  AND ECX, 0x1f
0e1c2000 ffffffff812f05f6 (03) 48 21fe                  AND RSI, RDI
0e1c2000 ffffffff812f05f9 (04) 49 83c0 01               ADD R8, 0x1
0e1c2000 ffffffff812f05fd (04) 4c 8d1c16                LEA R11, [RSI+RDX]
0e1c2000 ffffffff812f0601 (02) d3c0                     ROL EAX, CL
0e1c2000 ffffffff812f0603 (04) 48 8b4b 08               MOV RCX, [RBX+0x8]
            load    0xffffffff817d09c8 0x00000000017d09c8 (8)
0e1c2000 ffffffff812f0607 (03) 49 21fb                  AND R11, RDI
0e1c2000 ffffffff812f060a (04) 4c 8d24b1                LEA R12, [RCX+RSI*4]
0e1c2000 ffffffff812f060e (04) 41 330424                XOR EAX, [R12]
            load    0xffffffff819d05cc 0x00000000019d05cc (4)
0e1c2000 ffffffff812f0612 (04) 42 330499                XOR EAX, [RCX+R11*4]
            load    0xffffffff819d0568 0x00000000019d0568 (4)
0e1c2000 ffffffff812f0616 (04) 4e 8d1c3e                LEA R11, [RSI+R15]
0e1c2000 ffffffff812f061a (03) 49 21fb                  AND R11, RDI
0e1c2000 ffffffff812f061d (04) 42 330499                XOR EAX, [RCX+R11*4]
            load    0xffffffff819d06fc 0x00000000019d06fc (4)
0e1c2000 ffffffff812f0621 (04) 4e 8d1c36                LEA R11, [RSI+R14]
0e1c2000 ffffffff812f0625 (03) 49 21fb                  AND R11, RDI
0e1c2000 ffffffff812f0628 (04) 42 330499                XOR EAX, [RCX+R11*4]
            load    0xffffffff819d0698 0x00000000019d0698 (4)
0e1c2000 ffffffff812f062c (04) 4e 8d1c2e                LEA R11, [RSI+R13]
0e1c2000 ffffffff812f0630 (03) 49 21fb                  AND R11, RDI
0e1c2000 ffffffff812f0633 (04) 42 330499                XOR EAX, [RCX+R11*4]
            load    0xffffffff819d0630 0x00000000019d0630 (4)
0e1c2000 ffffffff812f0637 (04) 4e 8d1c16                LEA R11, [RSI+R10]
0e1c2000 ffffffff812f063b (03) 49 21fb                  AND R11, RDI
0e1c2000 ffffffff812f063e (04) 42 330499                XOR EAX, [RCX+R11*4]
            load    0xffffffff819d05d0 0x00000000019d05d0 (4)
0e1c2000 ffffffff812f0642 (03) 48 89c1                  MOV RCX, RAX
0e1c2000 ffffffff812f0645 (03) c1e8 03                  SHR EAX, 0x3
0e1c2000 ffffffff812f0648 (03) 83e1 07                  AND ECX, 0x7
0e1c2000 ffffffff812f064b (07) 33048d 401b5781          XOR EAX, [RCX*4-0x7ea8e4c0]
            load    0xffffffff81571b58 0x0000000001571b58 (4)
0e1c2000 ffffffff812f0652 (04) 48 83fe 01               CMP RSI, 0x1
0e1c2000 ffffffff812f0656 (04) 41 890424                MOV [R12], EAX
            store   0xffffffff819d05cc 0x00000000019d05cc (4)
0e1c2000 ffffffff812f065a (02) 19c0                     SBB EAX, EAX
0e1c2000 ffffffff812f065c (03) 83e0 07                  AND EAX, 0x7
0e1c2000 ffffffff812f065f (04) 4c 3b45 c8               CMP R8, [RBP-0x38]
            load    0xffff8800019eecf0 0x00000000019eecf0 (8)
0e1c2000 ffffffff812f0663 (05) 45 8d4c01 07             LEA R9D, [R9+RAX+0x7]
0e1c2000 ffffffff812f0668 (06) 0f85 7affffff            JNZ 0xffffffff812f05e8
0e1c2000 ffffffff812f05e8 (04) 41 0fbe00                MOVSX EAX, BYTE [R8]
            load    0xffff8800019eed4f 0x00000000019eed4f (1)
0e1c2000 ffffffff812f05ec (03) 44 89c9                  MOV ECX, R9D
0e1c2000 ffffffff812f05ef (04) 48 83ee 01               SUB RSI, 0x1
0e1c2000 ffffffff812f05f3 (03) 83e1 1f                  AND ECX, 0x1f
0e1c2000 ffffffff812f05f6 (03) 48 21fe                  AND RSI, RDI
0e1c2000 ffffffff812f05f9 (04) 49 83c0 01               ADD R8, 0x1
0e1c2000 ffffffff812f05fd (04) 4c 8d1c16                LEA R11, [RSI+RDX]
0e1c2000 ffffffff812f0601 (02) d3c0                     ROL EAX, CL
0e1c2000 ffffffff812f0603 (04) 48 8b4b 08               MOV RCX, [RBX+0x8]
            load    0xffffffff817d09c8 0x00000000017d09c8 (8)
0e1c2000 ffffffff812f0607 (03) 49 21fb                  AND R11, RDI
0e1c2000 ffffffff812f060a (04) 4c 8d24b1                LEA R12, [RCX+RSI*4]
0e1c2000 ffffffff812f060e (04) 41 330424                XOR EAX, [R12]
            load    0xffffffff819d05c8 0x00000000019d05c8 (4)
0e1c2000 ffffffff812f0612 (04) 42 330499                XOR EAX, [RCX+R11*4]
            load    0xffffffff819d0564 0x00000000019d0564 (4)
0e1c2000 ffffffff812f0616 (04) 4e 8d1c3e                LEA R11, [RSI+R15]
0e1c2000 ffffffff812f061a (03) 49 21fb                  AND R11, RDI
0e1c2000 ffffffff812f061d (04) 42 330499                XOR EAX, [RCX+R11*4]
            load    0xffffffff819d06f8 0x00000000019d06f8 (4)
0e1c2000 ffffffff812f0621 (04) 4e 8d1c36                LEA R11, [RSI+R14]
0e1c2000 ffffffff812f0625 (03) 49 21fb                  AND R11, RDI
0e1c2000 ffffffff812f0628 (04) 42 330499                XOR EAX, [RCX+R11*4]
            load    0xffffffff819d0694 0x00000000019d0694 (4)
0e1c2000 ffffffff812f062c (04) 4e 8d1c2e                LEA R11, [RSI+R13]
0e1c2000 ffffffff812f0630 (03) 49 21fb                  AND R11, RDI
0e1c2000 ffffffff812f0633 (04) 42 330499                XOR EAX, [RCX+R11*4]
            load    0xffffffff819d062c 0x00000000019d062c (4)
0e1c2000 ffffffff812f0637 (04) 4e 8d1c16                LEA R11, [RSI+R10]
0e1c2000 ffffffff812f063b (03) 49 21fb                  AND R11, RDI
0e1c2000 ffffffff812f063e (04) 42 330499                XOR EAX, [RCX+R11*4]
            load    0xffffffff819d05cc 0x00000000019d05cc (4)
0e1c2000 ffffffff812f0642 (03) 48 89c1                  MOV RCX, RAX
0e1c2000 ffffffff812f0645 (03) c1e8 03                  SHR EAX, 0x3
0e1c2000 ffffffff812f0648 (03) 83e1 07                  AND ECX, 0x7
0e1c2000 ffffffff812f064b (07) 33048d 401b5781          XOR EAX, [RCX*4-0x7ea8e4c0]
            load    0xffffffff81571b4c 0x0000000001571b4c (4)
0e1c2000 ffffffff812f0652 (04) 48 83fe 01               CMP RSI, 0x1
0e1c2000 ffffffff812f0656 (04) 41 890424                MOV [R12], EAX
            store   0xffffffff819d05c8 0x00000000019d05c8 (4)
0e1c2000 ffffffff812f065a (02) 19c0                     SBB EAX, EAX
0e1c2000 ffffffff812f065c (03) 83e0 07                  AND EAX, 0x7
0e1c2000 ffffffff812f065f (04) 4c 3b45 c8               CMP R8, [RBP-0x38]
            load    0xffff8800019eecf0 0x00000000019eecf0 (8)
0e1c2000 ffffffff812f0663 (05) 45 8d4c01 07             LEA R9D, [R9+RAX+0x7]
0e1c2000 ffffffff812f0668 (06) 0f85 7affffff            JNZ 0xffffffff812f05e8
0e1c2000 ffffffff812f066e (04) 4c 8b65 c0               MOV R12, [RBP-0x40]
            load    0xffff8800019eece8 0x00000000019eece8 (8)
0e1c2000 ffffffff812f0672 (03) 4d 85e4                  TEST R12, R12
0e1c2000 ffffffff812f0675 (04) 44 894b 34               MOV [RBX+0x34], R9D
            store   0xffffffff817d09f4 0x00000000017d09f4 (4)
0e1c2000 ffffffff812f0679 (03) 8973 2c                  MOV [RBX+0x2c], ESI
            store   0xffffffff817d09ec 0x00000000017d09ec (4)
0e1c2000 ffffffff812f067c (02) 74 28                    JZ 0xffffffff812f06a6
0e1c2000 ffffffff812f06a6 (04) 48 8b75 a8               MOV RSI, [RBP-0x58]
            load    0xffff8800019eecd0 0x00000000019eecd0 (8)
0e1c2000 ffffffff812f06aa (04) 48 8b7d b8               MOV RDI, [RBP-0x48]
            load    0xffff8800019eece0 0x00000000019eece0 (8)
0e1c2000 ffffffff812f06ae (05) e8 ed932300              CALL 0xffffffff81529aa0
            store   0xffff8800019eecb0 0x00000000019eecb0 (8)
0e1c2000 ffffffff81529aa0 (01) 55                       PUSH RBP
            store   0xffff8800019eeca8 0x00000000019eeca8 (8)
0e1c2000 ffffffff81529aa1 (03) 48 89e5                  MOV RBP, RSP
0e1c2000 ffffffff81529aa4 (01) 53                       PUSH RBX
            store   0xffff8800019eeca0 0x00000000019eeca0 (8)
0e1c2000 ffffffff81529aa5 (03) 48 89f3                  MOV RBX, RSI
0e1c2000 ffffffff81529aa8 (05) e8 13c9b0ff              CALL 0xffffffff810363c0
            store   0xffff8800019eec98 0x00000000019eec98 (8)
0e1c2000 ffffffff810363c0 (01) 55                       PUSH RBP
            store   0xffff8800019eec90 0x00000000019eec90 (8)
0e1c2000 ffffffff810363c1 (03) 48 89e5                  MOV RBP, RSP
0e1c2000 ffffffff810363c4 (02) fe07                     INC BYTE [RDI]
            load    0xffffffff817d09e8 0x00000000017d09e8 (1)
            store   0xffffffff817d09e8 0x00000000017d09e8 (1)
0e1c2000 ffffffff810363c6 (01) c9                       LEAVE 
            load    0xffff8800019eec90 0x00000000019eec90 (8)
0e1c2000 ffffffff810363c7 (01) c3                       RET 
            load    0xffff8800019eec98 0x00000000019eec98 (8)
0e1c2000 ffffffff81529aad (01) 66                       DB 0x66 
0e1c2000 ffffffff81529aad (02) 66 90                    NOP 
0e1c2000 ffffffff81529aaf (03) 48 89df                  MOV RDI, RBX
0e1c2000 ffffffff81529ab2 (01) 57                       PUSH RDI
            store   0xffff8800019eec98 0x00000000019eec98 (8)
0e1c2000 ffffffff81529ab3 (01) 9d                       POPF 
            load    0xffff8800019eec98 0x00000000019eec98 (8)
0e1c2000 ffffffff81529ab4 (01) 66                       DB 0x66 
0e1c2000 ffffffff81529ab5 (01) 66                       DB 0x66 
0e1c2000 ffffffff81529ab5 (02) 66 90                    NOP 
0e1c2000 ffffffff81529ab7 (01) 66                       DB 0x66 
0e1c2000 ffffffff81529ab7 (02) 66 90                    NOP 
0e1c2000 ffffffff81529ab9 (01) 5b                       POP RBX
            load    0xffff8800019eeca0 0x00000000019eeca0 (8)
0e1c2000 ffffffff81529aba (01) c9                       LEAVE 
            load    0xffff8800019eeca8 0x00000000019eeca8 (8)
0e1c2000 ffffffff81529abb (01) c3                       RET 
            load    0xffff8800019eecb0 0x00000000019eecb0 (8)
0e1c2000 ffffffff812f06b3 (04) 48 83c4 48               ADD RSP, 0x48
0e1c2000 ffffffff812f06b7 (01) 5b                       POP RBX
            load    0xffff8800019eed00 0x00000000019eed00 (8)
0e1c2000 ffffffff812f06b8 (02) 41 5c                    POP R12
            load    0xffff8800019eed08 0x00000000019eed08 (8)
0e1c2000 ffffffff812f06ba (02) 41 5d                    POP R13
            load    0xffff8800019eed10 0x00000000019eed10 (8)
0e1c2000 ffffffff812f06bc (02) 41 5e                    POP R14
            load    0xffff8800019eed18 0x00000000019eed18 (8)
0e1c2000 ffffffff812f06be (02) 41 5f                    POP R15
            load    0xffff8800019eed20 0x00000000019eed20 (8)
0e1c2000 ffffffff812f06c0 (01) c9                       LEAVE 
            load    0xffff8800019eed28 0x00000000019eed28 (8)
0e1c2000 ffffffff812f06c1 (01) c3                       RET 
            load    0xffff8800019eed30 0x00000000019eed30 (8)
0e1c2000 ffffffff812f09c7 (04) f643 18 01               TEST BYTE [RBX+0x18], 0x1
            load    0xffffffff819d0478 0x00000000019d0478 (1)
0e1c2000 ffffffff812f09cb (06) 0f85 82000000            JNZ 0xffffffff812f0a53
0e1c2000 ffffffff812f09d1 (04) 48 8b45 d8               MOV RAX, [RBP-0x28]
            load    0xffff8800019eed40 0x00000000019eed40 (8)
0e1c2000 ffffffff812f09d5 (07) 48 c7c7 c0097d81         MOV RDI, -0x7e82f640
0e1c2000 ffffffff812f09dc (03) 48 89c2                  MOV RDX, RAX
0e1c2000 ffffffff812f09df (03) 48 2b13                  SUB RDX, [RBX]
            load    0xffffffff819d0460 0x00000000019d0460 (8)
0e1c2000 ffffffff812f09e2 (03) 48 8903                  MOV [RBX], RAX
            store   0xffffffff819d0460 0x00000000019d0460 (8)
0e1c2000 ffffffff812f09e5 (03) 48 89d0                  MOV RAX, RDX
0e1c2000 ffffffff812f09e8 (04) 48 2b43 08               SUB RAX, [RBX+0x8]
            load    0xffffffff819d0468 0x00000000019d0468 (8)
0e1c2000 ffffffff812f09ec (03) 48 89d1                  MOV RCX, RDX
0e1c2000 ffffffff812f09ef (04) 48 c1f9 3f               SAR RCX, 0x3f
0e1c2000 ffffffff812f09f3 (04) 48 8953 08               MOV [RBX+0x8], RDX
            store   0xffffffff819d0468 0x00000000019d0468 (8)
0e1c2000 ffffffff812f09f7 (03) 48 31ca                  XOR RDX, RCX
0e1c2000 ffffffff812f09fa (03) 48 29ca                  SUB RDX, RCX
0e1c2000 ffffffff812f09fd (03) 48 89c1                  MOV RCX, RAX
0e1c2000 ffffffff812f0a00 (03) 48 89c6                  MOV RSI, RAX
0e1c2000 ffffffff812f0a03 (04) 48 2b73 10               SUB RSI, [RBX+0x10]
            load    0xffffffff819d0470 0x00000000019d0470 (8)
0e1c2000 ffffffff812f0a07 (04) 48 c1f9 3f               SAR RCX, 0x3f
0e1c2000 ffffffff812f0a0b (04) 48 8943 10               MOV [RBX+0x10], RAX
            store   0xffffffff819d0470 0x00000000019d0470 (8)
0e1c2000 ffffffff812f0a0f (03) 48 31c8                  XOR RAX, RCX
0e1c2000 ffffffff812f0a12 (03) 48 29c8                  SUB RAX, RCX
0e1c2000 ffffffff812f0a15 (03) 48 39d0                  CMP RAX, RDX
0e1c2000 ffffffff812f0a18 (04) 48 0f4fc2                CMOVG RAX, RDX
0e1c2000 ffffffff812f0a1c (03) 48 89f2                  MOV RDX, RSI
0e1c2000 ffffffff812f0a1f (04) 48 c1fa 3f               SAR RDX, 0x3f
0e1c2000 ffffffff812f0a23 (03) 48 31d6                  XOR RSI, RDX
0e1c2000 ffffffff812f0a26 (03) 48 29d6                  SUB RSI, RDX
0e1c2000 ffffffff812f0a29 (03) 48 39f0                  CMP RAX, RSI
0e1c2000 ffffffff812f0a2c (04) 48 0f4fc6                CMOVG RAX, RSI
0e1c2000 ffffffff812f0a30 (05) be ffffffff              MOV ESI, -0x1
0e1c2000 ffffffff812f0a35 (03) 48 d1f8                  SAR RAX, 0x1
0e1c2000 ffffffff812f0a38 (03) 0fbdd0                   BSR EDX, EAX
0e1c2000 ffffffff812f0a3b (03) 0f44d6                   CMOVZ EDX, ESI
0e1c2000 ffffffff812f0a3e (02) 89d6                     MOV ESI, EDX
0e1c2000 ffffffff812f0a40 (05) b8 0b000000              MOV EAX, 0xb
0e1c2000 ffffffff812f0a45 (03) 83c6 01                  ADD ESI, 0x1
0e1c2000 ffffffff812f0a48 (03) 83fe 0b                  CMP ESI, 0xb
0e1c2000 ffffffff812f0a4b (03) 0f4ff0                   CMOVG ESI, EAX
0e1c2000 ffffffff812f0a4e (05) e8 4dfeffff              CALL 0xffffffff812f08a0
            store   0xffff8800019eed30 0x00000000019eed30 (8)
0e1c2000 ffffffff812f08a0 (01) 55                       PUSH RBP
            store   0xffff8800019eed28 0x00000000019eed28 (8)
0e1c2000 ffffffff812f08a1 (03) 48 89e5                  MOV RBP, RSP
0e1c2000 ffffffff812f08a4 (04) 48 83ec 30               SUB RSP, 0x30
0e1c2000 ffffffff812f08a8 (02) 85f6                     TEST ESI, ESI
0e1c2000 ffffffff812f08aa (04) 4c 8965 f0               MOV [RBP-0x10], R12
            store   0xffff8800019eed18 0x00000000019eed18 (8)
0e1c2000 ffffffff812f08ae (04) 4c 896d f8               MOV [RBP-0x8], R13
            store   0xffff8800019eed20 0x00000000019eed20 (8)
0e1c2000 ffffffff812f08b2 (03) 49 89fc                  MOV R12, RDI
0e1c2000 ffffffff812f08b5 (04) 48 895d e8               MOV [RBP-0x18], RBX
            store   0xffff8800019eed10 0x00000000019eed10 (8)
0e1c2000 ffffffff812f08b9 (03) 41 89f5                  MOV R13D, ESI
0e1c2000 ffffffff812f08bc (02) 75 12                    JNZ 0xffffffff812f08d0
0e1c2000 ffffffff812f08d0 (04) 48 8d5f 28               LEA RBX, [RDI+0x28]
0e1c2000 ffffffff812f08d4 (03) 48 89df                  MOV RDI, RBX
0e1c2000 ffffffff812f08d7 (05) e8 64902300              CALL 0xffffffff81529940
            store   0xffff8800019eecf0 0x00000000019eecf0 (8)
0e1c2000 ffffffff81529940 (01) 55                       PUSH RBP
            store   0xffff8800019eece8 0x00000000019eece8 (8)
0e1c2000 ffffffff81529941 (03) 48 89e5                  MOV RBP, RSP
0e1c2000 ffffffff81529944 (04) 48 83ec 10               SUB RSP, 0x10
0e1c2000 ffffffff81529948 (04) 48 891c24                MOV [RSP], RBX
            store   0xffff8800019eecd8 0x00000000019eecd8 (8)
0e1c2000 ffffffff8152994c (05) 4c 896424 08             MOV [RSP+0x8], R12
            store   0xffff8800019eece0 0x00000000019eece0 (8)
0e1c2000 ffffffff81529951 (01) 9c                       PUSHF 
            store   0xffff8800019eecd0 0x00000000019eecd0 (8)
0e1c2000 ffffffff81529952 (01) 58                       POP RAX
            load    0xffff8800019eecd0 0x00000000019eecd0 (8)
0e1c2000 ffffffff81529953 (01) 66                       DB 0x66 
0e1c2000 ffffffff81529954 (01) 66                       DB 0x66 
0e1c2000 ffffffff81529954 (02) 66 90                    NOP 
0e1c2000 ffffffff81529956 (01) 66                       DB 0x66 
0e1c2000 ffffffff81529956 (02) 66 90                    NOP 
0e1c2000 ffffffff81529958 (03) 48 89c3                  MOV RBX, RAX
0e1c2000 ffffffff8152995b (01) fa                       CLI 
0e1c2000 ffffffff8152995c (01) 66                       DB 0x66 
0e1c2000 ffffffff8152995d (01) 66                       DB 0x66 
0e1c2000 ffffffff8152995d (02) 66 90                    NOP 
0e1c2000 ffffffff8152995f (01) 66                       DB 0x66 
0e1c2000 ffffffff81529960 (01) 66                       DB 0x66 
0e1c2000 ffffffff81529960 (02) 66 90                    NOP 
0e1c2000 ffffffff81529962 (03) 48 89de                  MOV RSI, RBX
0e1c2000 ffffffff81529965 (05) e8 a6cab0ff              CALL 0xffffffff81036410
            store   0xffff8800019eecd0 0x00000000019eecd0 (8)
0e1c2000 ffffffff81036410 (01) 55                       PUSH RBP
            store   0xffff8800019eecc8 0x00000000019eecc8 (8)
0e1c2000 ffffffff81036411 (03) 48 89e5                  MOV RBP, RSP
0e1c2000 ffffffff81036414 (05) e8 67ffffff              CALL 0xffffffff81036380
            store   0xffff8800019eecc0 0x00000000019eecc0 (8)
0e1c2000 ffffffff81036380 (01) 55                       PUSH RBP
            store   0xffff8800019eecb8 0x00000000019eecb8 (8)
0e1c2000 ffffffff81036381 (05) b8 00010000              MOV EAX, 0x100
0e1c2000 ffffffff81036386 (03) 48 89e5                  MOV RBP, RSP
0e1c2000 ffffffff81036389 (01) 3e                       DB 0x3e 
0e1c2000 ffffffff81036389 (05) 3e 66 0fc107             XADD [RDI], AX
            load    0xffffffff817d09e8 0x00000000017d09e8 (2)
            store   0xffffffff817d09e8 0x00000000017d09e8 (2)
0e1c2000 ffffffff8103638e (02) 38e0                     CMP AL, AH
0e1c2000 ffffffff81036390 (02) 74 06                    JZ 0xffffffff81036398
0e1c2000 ffffffff81036398 (01) c9                       LEAVE 
            load    0xffff8800019eecb8 0x00000000019eecb8 (8)
0e1c2000 ffffffff81036399 (01) c3                       RET 
            load    0xffff8800019eecc0 0x00000000019eecc0 (8)
0e1c2000 ffffffff81036419 (01) 66                       DB 0x66 
0e1c2000 ffffffff81036419 (02) 66 90                    NOP 
0e1c2000 ffffffff8103641b (01) c9                       LEAVE 
            load    0xffff8800019eecc8 0x00000000019eecc8 (8)
0e1c2000 ffffffff8103641c (01) c3                       RET 
            load    0xffff8800019eecd0 0x00000000019eecd0 (8)
0e1c2000 ffffffff8152996a (01) 66                       DB 0x66 
0e1c2000 ffffffff8152996a (02) 66 90                    NOP 
0e1c2000 ffffffff8152996c (03) 48 89d8                  MOV RAX, RBX
0e1c2000 ffffffff8152996f (05) 4c 8b6424 08             MOV R12, [RSP+0x8]
            load    0xffff8800019eece0 0x00000000019eece0 (8)
0e1c2000 ffffffff81529974 (04) 48 8b1c24                MOV RBX, [RSP]
            load    0xffff8800019eecd8 0x00000000019eecd8 (8)
0e1c2000 ffffffff81529978 (01) c9                       LEAVE 
            load    0xffff8800019eece8 0x00000000019eece8 (8)
0e1c2000 ffffffff81529979 (01) c3                       RET 
            load    0xffff8800019eecf0 0x00000000019eecf0 (8)
0e1c2000 ffffffff812f08dc (02) 31d2                     XOR EDX, EDX
0e1c2000 ffffffff812f08de (05) 45 036c24 30             ADD R13D, [R12+0x30]
            load    0xffffffff817d09f0 0x00000000017d09f0 (4)
0e1c2000 ffffffff812f08e3 (02) 78 10                    JS 0xffffffff812f08f5
0e1c2000 ffffffff812f08e5 (04) 49 8b1424                MOV RDX, [R12]
            load    0xffffffff817d09c0 0x00000000017d09c0 (8)
0e1c2000 ffffffff812f08e9 (02) 8b12                     MOV EDX, [RDX]
            load    0xffffffff817d0b40 0x00000000017d0b40 (4)
0e1c2000 ffffffff812f08eb (03) c1e2 05                  SHL EDX, 0x5
0e1c2000 ffffffff812f08ee (03) 41 39d5                  CMP R13D, EDX
0e1c2000 ffffffff812f08f1 (04) 41 0f4ed5                CMOVLE EDX, R13D
0e1c2000 ffffffff812f08f5 (07) 49 81fc c0097d81         CMP R12, -0x7e82f640
0e1c2000 ffffffff812f08fc (05) 41 895424 30             MOV [R12+0x30], EDX
            store   0xffffffff817d09f0 0x00000000017d09f0 (4)
0e1c2000 ffffffff812f0901 (02) 74 0d                    JZ 0xffffffff812f0910
0e1c2000 ffffffff812f0910 (06) 3b15 e2004e00            CMP EDX, [RIP+0x4e00e2]
            load    0xffffffff817d09f8 0x00000000017d09f8 (4)
0e1c2000 ffffffff812f0916 (02) 7c eb                    JL 0xffffffff812f0903
0e1c2000 ffffffff812f0918 (02) 31c9                     XOR ECX, ECX
0e1c2000 ffffffff812f091a (05) ba 01000000              MOV EDX, 0x1
0e1c2000 ffffffff812f091f (05) be 01000000              MOV ESI, 0x1
0e1c2000 ffffffff812f0924 (07) 48 c7c7 f00a7d81         MOV RDI, -0x7e82f510
0e1c2000 ffffffff812f092b (04) 48 8945 d8               MOV [RBP-0x28], RAX
            store   0xffff8800019eed00 0x00000000019eed00 (8)
0e1c2000 ffffffff812f092f (05) e8 fc9ed5ff              CALL 0xffffffff8104a830
            store   0xffff8800019eecf0 0x00000000019eecf0 (8)
0e1c2000 ffffffff8104a830 (01) 55                       PUSH RBP
            store   0xffff8800019eece8 0x00000000019eece8 (8)
0e1c2000 ffffffff8104a831 (03) 48 89e5                  MOV RBP, RSP
0e1c2000 ffffffff8104a834 (04) 48 83ec 30               SUB RSP, 0x30
0e1c2000 ffffffff8104a838 (04) 48 895d d8               MOV [RBP-0x28], RBX
            store   0xffff8800019eecc0 0x00000000019eecc0 (8)
0e1c2000 ffffffff8104a83c (04) 4c 896d e8               MOV [RBP-0x18], R13
            store   0xffff8800019eecd0 0x00000000019eecd0 (8)
0e1c2000 ffffffff8104a840 (03) 48 89fb                  MOV RBX, RDI
0e1c2000 ffffffff8104a843 (04) 4c 8975 f0               MOV [RBP-0x10], R14
            store   0xffff8800019eecd8 0x00000000019eecd8 (8)
0e1c2000 ffffffff8104a847 (04) 4c 897d f8               MOV [RBP-0x8], R15
            store   0xffff8800019eece0 0x00000000019eece0 (8)
0e1c2000 ffffffff8104a84b (03) 41 89f5                  MOV R13D, ESI
0e1c2000 ffffffff8104a84e (03) 49 89cf                  MOV R15, RCX
0e1c2000 ffffffff8104a851 (03) 41 89d6                  MOV R14D, EDX
0e1c2000 ffffffff8104a854 (04) 4c 8965 e0               MOV [RBP-0x20], R12
            store   0xffff8800019eecc8 0x00000000019eecc8 (8)
0e1c2000 ffffffff8104a858 (05) e8 e3f04d00              CALL 0xffffffff81529940
            store   0xffff8800019eecb0 0x00000000019eecb0 (8)
0e1c2000 ffffffff81529940 (01) 55                       PUSH RBP
            store   0xffff8800019eeca8 0x00000000019eeca8 (8)
0e1c2000 ffffffff81529941 (03) 48 89e5                  MOV RBP, RSP
0e1c2000 ffffffff81529944 (04) 48 83ec 10               SUB RSP, 0x10
0e1c2000 ffffffff81529948 (04) 48 891c24                MOV [RSP], RBX
            store   0xffff8800019eec98 0x00000000019eec98 (8)
0e1c2000 ffffffff8152994c (05) 4c 896424 08             MOV [RSP+0x8], R12
            store   0xffff8800019eeca0 0x00000000019eeca0 (8)
0e1c2000 ffffffff81529951 (01) 9c                       PUSHF 
            store   0xffff8800019eec90 0x00000000019eec90 (8)
0e1c2000 ffffffff81529952 (01) 58                       POP RAX
            load    0xffff8800019eec90 0x00000000019eec90 (8)
0e1c2000 ffffffff81529953 (01) 66                       DB 0x66 
0e1c2000 ffffffff81529954 (01) 66                       DB 0x66 
0e1c2000 ffffffff81529954 (02) 66 90                    NOP 
0e1c2000 ffffffff81529956 (01) 66                       DB 0x66 
0e1c2000 ffffffff81529956 (02) 66 90                    NOP 
0e1c2000 ffffffff81529958 (03) 48 89c3                  MOV RBX, RAX
0e1c2000 ffffffff8152995b (01) fa                       CLI 
0e1c2000 ffffffff8152995c (01) 66                       DB 0x66 
0e1c2000 ffffffff8152995d (01) 66                       DB 0x66 
0e1c2000 ffffffff8152995d (02) 66 90                    NOP 
0e1c2000 ffffffff8152995f (01) 66                       DB 0x66 
0e1c2000 ffffffff81529960 (01) 66                       DB 0x66 
0e1c2000 ffffffff81529960 (02) 66 90                    NOP 
0e1c2000 ffffffff81529962 (03) 48 89de                  MOV RSI, RBX
0e1c2000 ffffffff81529965 (05) e8 a6cab0ff              CALL 0xffffffff81036410
            store   0xffff8800019eec90 0x00000000019eec90 (8)
0e1c2000 ffffffff81036410 (01) 55                       PUSH RBP
            store   0xffff8800019eec88 0x00000000019eec88 (8)
0e1c2000 ffffffff81036411 (03) 48 89e5                  MOV RBP, RSP
0e1c2000 ffffffff81036414 (05) e8 67ffffff              CALL 0xffffffff81036380
            store   0xffff8800019eec80 0x00000000019eec80 (8)
0e1c2000 ffffffff81036380 (01) 55                       PUSH RBP
            store   0xffff8800019eec78 0x00000000019eec78 (8)
0e1c2000 ffffffff81036381 (05) b8 00010000              MOV EAX, 0x100
0e1c2000 ffffffff81036386 (03) 48 89e5                  MOV RBP, RSP
0e1c2000 ffffffff81036389 (01) 3e                       DB 0x3e 
0e1c2000 ffffffff81036389 (05) 3e 66 0fc107             XADD [RDI], AX
            load    0xffffffff817d0af0 0x00000000017d0af0 (2)
            store   0xffffffff817d0af0 0x00000000017d0af0 (2)
0e1c2000 ffffffff8103638e (02) 38e0                     CMP AL, AH
0e1c2000 ffffffff81036390 (02) 74 06                    JZ 0xffffffff81036398
0e1c2000 ffffffff81036398 (01) c9                       LEAVE 
            load    0xffff8800019eec78 0x00000000019eec78 (8)
0e1c2000 ffffffff81036399 (01) c3                       RET 
            load    0xffff8800019eec80 0x00000000019eec80 (8)
0e1c2000 ffffffff81036419 (01) 66                       DB 0x66 
0e1c2000 ffffffff81036419 (02) 66 90                    NOP 
0e1c2000 ffffffff8103641b (01) c9                       LEAVE 
            load    0xffff8800019eec88 0x00000000019eec88 (8)
0e1c2000 ffffffff8103641c (01) c3                       RET 
            load    0xffff8800019eec90 0x00000000019eec90 (8)
0e1c2000 ffffffff8152996a (01) 66                       DB 0x66 
0e1c2000 ffffffff8152996a (02) 66 90                    NOP 
0e1c2000 ffffffff8152996c (03) 48 89d8                  MOV RAX, RBX
0e1c2000 ffffffff8152996f (05) 4c 8b6424 08             MOV R12, [RSP+0x8]
            load    0xffff8800019eeca0 0x00000000019eeca0 (8)
0e1c2000 ffffffff81529974 (04) 48 8b1c24                MOV RBX, [RSP]
            load    0xffff8800019eec98 0x00000000019eec98 (8)
0e1c2000 ffffffff81529978 (01) c9                       LEAVE 
            load    0xffff8800019eeca8 0x00000000019eeca8 (8)
0e1c2000 ffffffff81529979 (01) c3                       RET 
            load    0xffff8800019eecb0 0x00000000019eecb0 (8)
0e1c2000 ffffffff8104a85d (03) 4d 89f8                  MOV R8, R15
0e1c2000 ffffffff8104a860 (03) 49 89c4                  MOV R12, RAX
0e1c2000 ffffffff8104a863 (03) 44 89f2                  MOV EDX, R14D
0e1c2000 ffffffff8104a866 (03) 44 89ee                  MOV ESI, R13D
0e1c2000 ffffffff8104a869 (03) 48 89df                  MOV RDI, RBX
0e1c2000 ffffffff8104a86c (02) 31c9                     XOR ECX, ECX
0e1c2000 ffffffff8104a86e (05) e8 3db4ffff              CALL 0xffffffff81045cb0
            store   0xffff8800019eecb0 0x00000000019eecb0 (8)
0e1c2000 ffffffff81045cb0 (01) 55                       PUSH RBP
            store   0xffff8800019eeca8 0x00000000019eeca8 (8)
0e1c2000 ffffffff81045cb1 (03) 48 89e5                  MOV RBP, RSP
0e1c2000 ffffffff81045cb4 (02) 41 57                    PUSH R15
            store   0xffff8800019eeca0 0x00000000019eeca0 (8)
0e1c2000 ffffffff81045cb6 (03) 41 89cf                  MOV R15D, ECX
0e1c2000 ffffffff81045cb9 (02) 41 56                    PUSH R14
            store   0xffff8800019eec98 0x00000000019eec98 (8)
0e1c2000 ffffffff81045cbb (03) 4d 89c6                  MOV R14, R8
0e1c2000 ffffffff81045cbe (02) 41 55                    PUSH R13
            store   0xffff8800019eec90 0x00000000019eec90 (8)
0e1c2000 ffffffff81045cc0 (04) 4c 8d6f 08               LEA R13, [RDI+0x8]
0e1c2000 ffffffff81045cc4 (02) 41 54                    PUSH R12
            store   0xffff8800019eec88 0x00000000019eec88 (8)
0e1c2000 ffffffff81045cc6 (01) 53                       PUSH RBX
            store   0xffff8800019eec80 0x00000000019eec80 (8)
0e1c2000 ffffffff81045cc7 (04) 48 83ec 18               SUB RSP, 0x18
0e1c2000 ffffffff81045ccb (03) 8975 cc                  MOV [RBP-0x34], ESI
            store   0xffff8800019eec74 0x00000000019eec74 (4)
0e1c2000 ffffffff81045cce (03) 8955 c8                  MOV [RBP-0x38], EDX
            store   0xffff8800019eec70 0x00000000019eec70 (4)
0e1c2000 ffffffff81045cd1 (04) 48 8b57 08               MOV RDX, [RDI+0x8]
            load    0xffffffff817d0af8 0x00000000017d0af8 (8)
0e1c2000 ffffffff81045cd5 (04) 48 8d42 e8               LEA RAX, [RDX-0x18]
0e1c2000 ffffffff81045cd9 (03) 49 39d5                  CMP R13, RDX
0e1c2000 ffffffff81045cdc (04) 48 8b58 18               MOV RBX, [RAX+0x18]
            load    0xffffffff817d0af8 0x00000000017d0af8 (8)
0e1c2000 ffffffff81045ce0 (02) 74 44                    JZ 0xffffffff81045d26
0e1c2000 ffffffff81045d26 (04) 48 83c4 18               ADD RSP, 0x18
0e1c2000 ffffffff81045d2a (01) 5b                       POP RBX
            load    0xffff8800019eec80 0x00000000019eec80 (8)
0e1c2000 ffffffff81045d2b (02) 41 5c                    POP R12
            load    0xffff8800019eec88 0x00000000019eec88 (8)
0e1c2000 ffffffff81045d2d (02) 41 5d                    POP R13
            load    0xffff8800019eec90 0x00000000019eec90 (8)
0e1c2000 ffffffff81045d2f (02) 41 5e                    POP R14
            load    0xffff8800019eec98 0x00000000019eec98 (8)
0e1c2000 ffffffff81045d31 (02) 41 5f                    POP R15
            load    0xffff8800019eeca0 0x00000000019eeca0 (8)
0e1c2000 ffffffff81045d33 (01) c9                       LEAVE 
            load    0xffff8800019eeca8 0x00000000019eeca8 (8)
0e1c2000 ffffffff81045d34 (01) c3                       RET 
            load    0xffff8800019eecb0 0x00000000019eecb0 (8)
0e1c2000 ffffffff8104a873 (03) 4c 89e6                  MOV RSI, R12
0e1c2000 ffffffff8104a876 (03) 48 89df                  MOV RDI, RBX
0e1c2000 ffffffff8104a879 (05) e8 22f24d00              CALL 0xffffffff81529aa0
            store   0xffff8800019eecb0 0x00000000019eecb0 (8)
0e1c2000 ffffffff81529aa0 (01) 55                       PUSH RBP
            store   0xffff8800019eeca8 0x00000000019eeca8 (8)
0e1c2000 ffffffff81529aa1 (03) 48 89e5                  MOV RBP, RSP
0e1c2000 ffffffff81529aa4 (01) 53                       PUSH RBX
            store   0xffff8800019eeca0 0x00000000019eeca0 (8)
0e1c2000 ffffffff81529aa5 (03) 48 89f3                  MOV RBX, RSI
0e1c2000 ffffffff81529aa8 (05) e8 13c9b0ff              CALL 0xffffffff810363c0
            store   0xffff8800019eec98 0x00000000019eec98 (8)
0e1c2000 ffffffff810363c0 (01) 55                       PUSH RBP
            store   0xffff8800019eec90 0x00000000019eec90 (8)
0e1c2000 ffffffff810363c1 (03) 48 89e5                  MOV RBP, RSP
0e1c2000 ffffffff810363c4 (02) fe07                     INC BYTE [RDI]
            load    0xffffffff817d0af0 0x00000000017d0af0 (1)
            store   0xffffffff817d0af0 0x00000000017d0af0 (1)
0e1c2000 ffffffff810363c6 (01) c9                       LEAVE 
            load    0xffff8800019eec90 0x00000000019eec90 (8)
0e1c2000 ffffffff810363c7 (01) c3                       RET 
            load    0xffff8800019eec98 0x00000000019eec98 (8)
0e1c2000 ffffffff81529aad (01) 66                       DB 0x66 
0e1c2000 ffffffff81529aad (02) 66 90                    NOP 
0e1c2000 ffffffff81529aaf (03) 48 89df                  MOV RDI, RBX
0e1c2000 ffffffff81529ab2 (01) 57                       PUSH RDI
            store   0xffff8800019eec98 0x00000000019eec98 (8)
0e1c2000 ffffffff81529ab3 (01) 9d                       POPF 
            load    0xffff8800019eec98 0x00000000019eec98 (8)
0e1c2000 ffffffff81529ab4 (01) 66                       DB 0x66 
0e1c2000 ffffffff81529ab5 (01) 66                       DB 0x66 
0e1c2000 ffffffff81529ab5 (02) 66 90                    NOP 
0e1c2000 ffffffff81529ab7 (01) 66                       DB 0x66 
0e1c2000 ffffffff81529ab7 (02) 66 90                    NOP 
0e1c2000 ffffffff81529ab9 (01) 5b                       POP RBX
            load    0xffff8800019eeca0 0x00000000019eeca0 (8)
0e1c2000 ffffffff81529aba (01) c9                       LEAVE 
            load    0xffff8800019eeca8 0x00000000019eeca8 (8)
0e1c2000 ffffffff81529abb (01) c3                       RET 
            load    0xffff8800019eecb0 0x00000000019eecb0 (8)
0e1c2000 ffffffff8104a87e (04) 48 8b5d d8               MOV RBX, [RBP-0x28]
            load    0xffff8800019eecc0 0x00000000019eecc0 (8)
0e1c2000 ffffffff8104a882 (04) 4c 8b65 e0               MOV R12, [RBP-0x20]
            load    0xffff8800019eecc8 0x00000000019eecc8 (8)
0e1c2000 ffffffff8104a886 (04) 4c 8b6d e8               MOV R13, [RBP-0x18]
            load    0xffff8800019eecd0 0x00000000019eecd0 (8)
0e1c2000 ffffffff8104a88a (04) 4c 8b75 f0               MOV R14, [RBP-0x10]
            load    0xffff8800019eecd8 0x00000000019eecd8 (8)
0e1c2000 ffffffff8104a88e (04) 4c 8b7d f8               MOV R15, [RBP-0x8]
            load    0xffff8800019eece0 0x00000000019eece0 (8)
0e1c2000 ffffffff8104a892 (01) c9                       LEAVE 
            load    0xffff8800019eece8 0x00000000019eece8 (8)
0e1c2000 ffffffff8104a893 (01) c3                       RET 
            load    0xffff8800019eecf0 0x00000000019eecf0 (8)
0e1c2000 ffffffff812f0934 (05) ba 01000200              MOV EDX, 0x20001
0e1c2000 ffffffff812f0939 (05) be 1d000000              MOV ESI, 0x1d
0e1c2000 ffffffff812f093e (07) 48 c7c7 48049d81         MOV RDI, -0x7e62fbb8
0e1c2000 ffffffff812f0945 (05) e8 e6d7e3ff              CALL 0xffffffff8112e130
            store   0xffff8800019eecf0 0x00000000019eecf0 (8)
0e1c2000 ffffffff8112e130 (01) 55                       PUSH RBP
            store   0xffff8800019eece8 0x00000000019eece8 (8)
0e1c2000 ffffffff8112e131 (03) 48 89e5                  MOV RBP, RSP
0e1c2000 ffffffff8112e134 (04) 48 83ec 20               SUB RSP, 0x20
0e1c2000 ffffffff8112e138 (04) 48 895d e8               MOV [RBP-0x18], RBX
            store   0xffff8800019eecd0 0x00000000019eecd0 (8)
0e1c2000 ffffffff8112e13c (04) 4c 8965 f0               MOV [RBP-0x10], R12
            store   0xffff8800019eecd8 0x00000000019eecd8 (8)
0e1c2000 ffffffff8112e140 (03) 48 89fb                  MOV RBX, RDI
0e1c2000 ffffffff8112e143 (04) 4c 896d f8               MOV [RBP-0x8], R13
            store   0xffff8800019eece0 0x00000000019eece0 (8)
0e1c2000 ffffffff8112e147 (04) 48 833f 00               CMP QWORD [RDI], 0x0
            load    0xffffffff819d0448 0x00000000019d0448 (8)
0e1c2000 ffffffff8112e14b (03) 41 89f4                  MOV R12D, ESI
0e1c2000 ffffffff8112e14e (03) 41 89d5                  MOV R13D, EDX
0e1c2000 ffffffff8112e151 (02) 74 21                    JZ 0xffffffff8112e174
0e1c2000 ffffffff8112e174 (04) 48 8b5d e8               MOV RBX, [RBP-0x18]
            load    0xffff8800019eecd0 0x00000000019eecd0 (8)
0e1c2000 ffffffff8112e178 (04) 4c 8b65 f0               MOV R12, [RBP-0x10]
            load    0xffff8800019eecd8 0x00000000019eecd8 (8)
0e1c2000 ffffffff8112e17c (04) 4c 8b6d f8               MOV R13, [RBP-0x8]
            load    0xffff8800019eece0 0x00000000019eece0 (8)
0e1c2000 ffffffff8112e180 (01) c9                       LEAVE 
            load    0xffff8800019eece8 0x00000000019eece8 (8)
0e1c2000 ffffffff8112e181 (01) c3                       RET 
            load    0xffff8800019eecf0 0x00000000019eecf0 (8)
0e1c2000 ffffffff812f094a (04) 48 8b45 d8               MOV RAX, [RBP-0x28]
            load    0xffff8800019eed00 0x00000000019eed00 (8)
0e1c2000 ffffffff812f094e (02) eb b3                    JMP 0xffffffff812f0903
0e1c2000 ffffffff812f0903 (03) 48 89c6                  MOV RSI, RAX
0e1c2000 ffffffff812f0906 (03) 48 89df                  MOV RDI, RBX
0e1c2000 ffffffff812f0909 (05) e8 92912300              CALL 0xffffffff81529aa0
            store   0xffff8800019eecf0 0x00000000019eecf0 (8)
0e1c2000 ffffffff81529aa0 (01) 55                       PUSH RBP
            store   0xffff8800019eece8 0x00000000019eece8 (8)
0e1c2000 ffffffff81529aa1 (03) 48 89e5                  MOV RBP, RSP
0e1c2000 ffffffff81529aa4 (01) 53                       PUSH RBX
            store   0xffff8800019eece0 0x00000000019eece0 (8)
0e1c2000 ffffffff81529aa5 (03) 48 89f3                  MOV RBX, RSI
0e1c2000 ffffffff81529aa8 (05) e8 13c9b0ff              CALL 0xffffffff810363c0
            store   0xffff8800019eecd8 0x00000000019eecd8 (8)
0e1c2000 ffffffff810363c0 (01) 55                       PUSH RBP
            store   0xffff8800019eecd0 0x00000000019eecd0 (8)
0e1c2000 ffffffff810363c1 (03) 48 89e5                  MOV RBP, RSP
0e1c2000 ffffffff810363c4 (02) fe07                     INC BYTE [RDI]
            load    0xffffffff817d09e8 0x00000000017d09e8 (1)
            store   0xffffffff817d09e8 0x00000000017d09e8 (1)
0e1c2000 ffffffff810363c6 (01) c9                       LEAVE 
            load    0xffff8800019eecd0 0x00000000019eecd0 (8)
0e1c2000 ffffffff810363c7 (01) c3                       RET 
            load    0xffff8800019eecd8 0x00000000019eecd8 (8)
0e1c2000 ffffffff81529aad (01) 66                       DB 0x66 
0e1c2000 ffffffff81529aad (02) 66 90                    NOP 
0e1c2000 ffffffff81529aaf (03) 48 89df                  MOV RDI, RBX
0e1c2000 ffffffff81529ab2 (01) 57                       PUSH RDI
            store   0xffff8800019eecd8 0x00000000019eecd8 (8)
0e1c2000 ffffffff81529ab3 (01) 9d                       POPF 
            load    0xffff8800019eecd8 0x00000000019eecd8 (8)
0e1c2000 ffffffff81529ab4 (01) 66                       DB 0x66 
0e1c2000 ffffffff81529ab5 (01) 66                       DB 0x66 
0e1c2000 ffffffff81529ab5 (02) 66 90                    NOP 
0e1c2000 ffffffff81529ab7 (01) 66                       DB 0x66 
0e1c2000 ffffffff81529ab7 (02) 66 90                    NOP 
0e1c2000 ffffffff81529ab9 (01) 5b                       POP RBX
            load    0xffff8800019eece0 0x00000000019eece0 (8)
0e1c2000 ffffffff81529aba (01) c9                       LEAVE 
            load    0xffff8800019eece8 0x00000000019eece8 (8)
0e1c2000 ffffffff81529abb (01) c3                       RET 
            load    0xffff8800019eecf0 0x00000000019eecf0 (8)
0e1c2000 ffffffff812f090e (02) eb ae                    JMP 0xffffffff812f08be
0e1c2000 ffffffff812f08be (04) 48 8b5d e8               MOV RBX, [RBP-0x18]
            load    0xffff8800019eed10 0x00000000019eed10 (8)
0e1c2000 ffffffff812f08c2 (04) 4c 8b65 f0               MOV R12, [RBP-0x10]
            load    0xffff8800019eed18 0x00000000019eed18 (8)
0e1c2000 ffffffff812f08c6 (04) 4c 8b6d f8               MOV R13, [RBP-0x8]
            load    0xffff8800019eed20 0x00000000019eed20 (8)
0e1c2000 ffffffff812f08ca (01) c9                       LEAVE 
            load    0xffff8800019eed28 0x00000000019eed28 (8)
0e1c2000 ffffffff812f08cb (01) c3                       RET 
            load    0xffff8800019eed30 0x00000000019eed30 (8)
0e1c2000 ffffffff812f0a53 (04) 48 83c4 20               ADD RSP, 0x20
0e1c2000 ffffffff812f0a57 (01) 5b                       POP RBX
            load    0xffff8800019eed58 0x00000000019eed58 (8)
0e1c2000 ffffffff812f0a58 (02) 41 5c                    POP R12
            load    0xffff8800019eed60 0x00000000019eed60 (8)
0e1c2000 ffffffff812f0a5a (01) c9                       LEAVE 
            load    0xffff8800019eed68 0x00000000019eed68 (8)
0e1c2000 ffffffff812f0a5b (01) c3                       RET 
            load    0xffff8800019eed70 0x00000000019eed70 (8)
0e1c2000 ffffffff812f0abf (01) c9                       LEAVE 
            load    0xffff8800019eed78 0x00000000019eed78 (8)
0e1c2000 ffffffff812f0ac0 (01) c3                       RET 
            load    0xffff8800019eed80 0x00000000019eed80 (8)
0e1c2000 ffffffff813c68e4 (03) 8b4d c8                  MOV ECX, [RBP-0x38]
            load    0xffff8800019eed90 0x00000000019eed90 (4)
0e1c2000 ffffffff813c68e7 (02) 89de                     MOV ESI, EBX
0e1c2000 ffffffff813c68e9 (03) 4c 89e7                  MOV RDI, R12
0e1c2000 ffffffff813c68ec (03) 44 89ea                  MOV EDX, R13D
0e1c2000 ffffffff813c68ef (05) e8 4cf6ffff              CALL 0xffffffff813c5f40
            store   0xffff8800019eed80 0x00000000019eed80 (8)
0e1c2000 ffffffff813c5f40 (01) 55                       PUSH RBP
            store   0xffff8800019eed78 0x00000000019eed78 (8)
0e1c2000 ffffffff813c5f41 (03) 48 89e5                  MOV RBP, RSP
0e1c2000 ffffffff813c5f44 (04) 48 83ec 30               SUB RSP, 0x30
0e1c2000 ffffffff813c5f48 (03) 83fe 16                  CMP ESI, 0x16
0e1c2000 ffffffff813c5f4b (04) 48 895d d8               MOV [RBP-0x28], RBX
            store   0xffff8800019eed50 0x00000000019eed50 (8)
0e1c2000 ffffffff813c5f4f (04) 4c 8965 e0               MOV [RBP-0x20], R12
            store   0xffff8800019eed58 0x00000000019eed58 (8)
0e1c2000 ffffffff813c5f53 (03) 48 89fb                  MOV RBX, RDI
0e1c2000 ffffffff813c5f56 (04) 4c 896d e8               MOV [RBP-0x18], R13
            store   0xffff8800019eed60 0x00000000019eed60 (8)
0e1c2000 ffffffff813c5f5a (04) 4c 8975 f0               MOV [RBP-0x10], R14
            store   0xffff8800019eed68 0x00000000019eed68 (8)
0e1c2000 ffffffff813c5f5e (03) 41 89f4                  MOV R12D, ESI
0e1c2000 ffffffff813c5f61 (04) 4c 897d f8               MOV [RBP-0x8], R15
            store   0xffff8800019eed70 0x00000000019eed70 (8)
0e1c2000 ffffffff813c5f65 (03) 41 89d5                  MOV R13D, EDX
0e1c2000 ffffffff813c5f68 (03) 41 89ce                  MOV R14D, ECX
0e1c2000 ffffffff813c5f6b (02) 77 66                    JA 0xffffffff813c5fd3
0e1c2000 ffffffff813c5f6d (02) 89f0                     MOV EAX, ESI
0e1c2000 ffffffff813c5f6f (07) ff24c5 f88d5881          JMP [RAX*8-0x7ea77208]
            load    0xffffffff81588e18 0x0000000001588e18 (8)
0e1c2000 ffffffff813c6198 (07) 48 8db7 98000000         LEA RSI, [RDI+0x98]
0e1c2000 ffffffff813c619f (05) ba 07000000              MOV EDX, 0x7
0e1c2000 ffffffff813c61a4 (03) 44 89ef                  MOV EDI, R13D
0e1c2000 ffffffff813c61a7 (05) e8 f4ebffff              CALL 0xffffffff813c4da0
            store   0xffff8800019eed40 0x00000000019eed40 (8)
0e1c2000 ffffffff813c4da0 (01) 55                       PUSH RBP
            store   0xffff8800019eed38 0x00000000019eed38 (8)
0e1c2000 ffffffff813c4da1 (02) 31c0                     XOR EAX, EAX
0e1c2000 ffffffff813c4da3 (02) 39d7                     CMP EDI, EDX
0e1c2000 ffffffff813c4da5 (03) 48 89e5                  MOV RBP, RSP
0e1c2000 ffffffff813c4da8 (02) 77 0c                    JA 0xffffffff813c4db6
0e1c2000 ffffffff813c4daa (03) 0fa33e                   BT [RSI], EDI
            load    0xffff88000d9ac098 0x000000000d9ac098 (4)
0e1c2000 ffffffff813c4dad (02) 19ff                     SBB EDI, EDI
0e1c2000 ffffffff813c4daf (02) 31c0                     XOR EAX, EAX
0e1c2000 ffffffff813c4db1 (02) 85ff                     TEST EDI, EDI
0e1c2000 ffffffff813c4db3 (03) 0f95c0                   SETNZ AL
0e1c2000 ffffffff813c4db6 (01) c9                       LEAVE 
            load    0xffff8800019eed38 0x00000000019eed38 (8)
0e1c2000 ffffffff813c4db7 (01) c3                       RET 
            load    0xffff8800019eed40 0x00000000019eed40 (8)
0e1c2000 ffffffff813c61ac (02) 85c0                     TEST EAX, EAX
0e1c2000 ffffffff813c61ae (06) 0f84 1ffeffff            JZ 0xffffffff813c5fd3
0e1c2000 ffffffff813c5fd3 (04) 48 8b5d d8               MOV RBX, [RBP-0x28]
            load    0xffff8800019eed50 0x00000000019eed50 (8)
0e1c2000 ffffffff813c5fd7 (04) 4c 8b65 e0               MOV R12, [RBP-0x20]
            load    0xffff8800019eed58 0x00000000019eed58 (8)
0e1c2000 ffffffff813c5fdb (04) 4c 8b6d e8               MOV R13, [RBP-0x18]
            load    0xffff8800019eed60 0x00000000019eed60 (8)
0e1c2000 ffffffff813c5fdf (04) 4c 8b75 f0               MOV R14, [RBP-0x10]
            load    0xffff8800019eed68 0x00000000019eed68 (8)
0e1c2000 ffffffff813c5fe3 (04) 4c 8b7d f8               MOV R15, [RBP-0x8]
            load    0xffff8800019eed70 0x00000000019eed70 (8)
0e1c2000 ffffffff813c5fe7 (01) c9                       LEAVE 
            load    0xffff8800019eed78 0x00000000019eed78 (8)
0e1c2000 ffffffff813c5fe8 (01) c3                       RET 
            load    0xffff8800019eed80 0x00000000019eed80 (8)
0e1c2000 ffffffff813c68f4 (03) 4c 89fe                  MOV RSI, R15
0e1c2000 ffffffff813c68f7 (03) 4c 89f7                  MOV RDI, R14
0e1c2000 ffffffff813c68fa (05) e8 a1311600              CALL 0xffffffff81529aa0
            store   0xffff8800019eed80 0x00000000019eed80 (8)
0e1c2000 ffffffff81529aa0 (01) 55                       PUSH RBP
            store   0xffff8800019eed78 0x00000000019eed78 (8)
0e1c2000 ffffffff81529aa1 (03) 48 89e5                  MOV RBP, RSP
0e1c2000 ffffffff81529aa4 (01) 53                       PUSH RBX
            store   0xffff8800019eed70 0x00000000019eed70 (8)
0e1c2000 ffffffff81529aa5 (03) 48 89f3                  MOV RBX, RSI
0e1c2000 ffffffff81529aa8 (05) e8 13c9b0ff              CALL 0xffffffff810363c0
            store   0xffff8800019eed68 0x00000000019eed68 (8)
0e1c2000 ffffffff810363c0 (01) 55                       PUSH RBP
            store   0xffff8800019eed60 0x00000000019eed60 (8)
0e1c2000 ffffffff810363c1 (03) 48 89e5                  MOV RBP, RSP
0e1c2000 ffffffff810363c4 (02) fe07                     INC BYTE [RDI]
            load    0xffff88000d9ac800 0x000000000d9ac800 (1)
            store   0xffff88000d9ac800 0x000000000d9ac800 (1)
0e1c2000 ffffffff810363c6 (01) c9                       LEAVE 
            load    0xffff8800019eed60 0x00000000019eed60 (8)
0e1c2000 ffffffff810363c7 (01) c3                       RET 
            load    0xffff8800019eed68 0x00000000019eed68 (8)
0e1c2000 ffffffff81529aad (01) 66                       DB 0x66 
0e1c2000 ffffffff81529aad (02) 66 90                    NOP 
0e1c2000 ffffffff81529aaf (03) 48 89df                  MOV RDI, RBX
0e1c2000 ffffffff81529ab2 (01) 57                       PUSH RDI
            store   0xffff8800019eed68 0x00000000019eed68 (8)
0e1c2000 ffffffff81529ab3 (01) 9d                       POPF 
            load    0xffff8800019eed68 0x00000000019eed68 (8)
0e1c2000 ffffffff81529ab4 (01) 66                       DB 0x66 
0e1c2000 ffffffff81529ab5 (01) 66                       DB 0x66 
0e1c2000 ffffffff81529ab5 (02) 66 90                    NOP 
0e1c2000 ffffffff81529ab7 (01) 66                       DB 0x66 
0e1c2000 ffffffff81529ab7 (02) 66 90                    NOP 
0e1c2000 ffffffff81529ab9 (01) 5b                       POP RBX
            load    0xffff8800019eed70 0x00000000019eed70 (8)
0e1c2000 ffffffff81529aba (01) c9                       LEAVE 
            load    0xffff8800019eed78 0x00000000019eed78 (8)
0e1c2000 ffffffff81529abb (01) c3                       RET 
            load    0xffff8800019eed80 0x00000000019eed80 (8)
0e1c2000 ffffffff813c68ff (02) eb a2                    JMP 0xffffffff813c68a3
0e1c2000 ffffffff813c68a3 (04) 48 8b5d d8               MOV RBX, [RBP-0x28]
            load    0xffff8800019eeda0 0x00000000019eeda0 (8)
0e1c2000 ffffffff813c68a7 (04) 4c 8b65 e0               MOV R12, [RBP-0x20]
            load    0xffff8800019eeda8 0x00000000019eeda8 (8)
0e1c2000 ffffffff813c68ab (04) 4c 8b6d e8               MOV R13, [RBP-0x18]
            load    0xffff8800019eedb0 0x00000000019eedb0 (8)
0e1c2000 ffffffff813c68af (04) 4c 8b75 f0               MOV R14, [RBP-0x10]
            load    0xffff8800019eedb8 0x00000000019eedb8 (8)
0e1c2000 ffffffff813c68b3 (04) 4c 8b7d f8               MOV R15, [RBP-0x8]
            load    0xffff8800019eedc0 0x00000000019eedc0 (8)
0e1c2000 ffffffff813c68b7 (01) c9                       LEAVE 
            load    0xffff8800019eedc8 0x00000000019eedc8 (8)
0e1c2000 ffffffff813c68b8 (01) c3                       RET 
            load    0xffff8800019eedd0 0x00000000019eedd0 (8)
0e1c2000 ffffffff813cb8f3 (07) 80bb 01050000 00         CMP BYTE [RBX+0x501], 0x0
            load    0xffff88000f28bd01 0x000000000f28bd01 (1)
0e1c2000 ffffffff813cb8fa (03) 8b45 b0                  MOV EAX, [RBP-0x50]
            load    0xffff8800019eede8 0x00000000019eede8 (4)
0e1c2000 ffffffff813cb8fd (03) 41 89c4                  MOV R12D, EAX
0e1c2000 ffffffff813cb900 (06) 0f84 a2000000            JZ 0xffffffff813cb9a8
0e1c2000 ffffffff813cb906 (07) 80bb 08050000 00         CMP BYTE [RBX+0x508], 0x0
            load    0xffff88000f28bd08 0x000000000f28bd08 (1)
0e1c2000 ffffffff813cb90d (02) 75 43                    JNZ 0xffffffff813cb952
0e1c2000 ffffffff813cb90f (07) 48 8b93 10050000         MOV RDX, [RBX+0x510]
            load    0xffff88000f28bd10 0x000000000f28bd10 (8)
0e1c2000 ffffffff813cb916 (04) 48 8955 c8               MOV [RBP-0x38], RDX
            store   0xffff8800019eee00 0x00000000019eee00 (8)
0e1c2000 ffffffff813cb91a (04) 41 8d56 20               LEA EDX, [R14+0x20]
0e1c2000 ffffffff813cb91e (03) 80fa 01                  CMP DL, 0x1
0e1c2000 ffffffff813cb921 (06) 0f86 83020000            JBE 0xffffffff813cbbaa
0e1c2000 ffffffff813cb927 (05) 3d aa000000              CMP EAX, 0xaa
0e1c2000 ffffffff813cb92c (07) 48 c7c1 04a65881         MOV RCX, -0x7ea759fc
0e1c2000 ffffffff813cb933 (05) ba 01000000              MOV EDX, 0x1
0e1c2000 ffffffff813cb938 (06) 0f84 5c020000            JZ 0xffffffff813cbb9a
0e1c2000 ffffffff813cb93e (02) 3b01                     CMP EAX, [RCX]
            load    0xffffffff8158a604 0x000000000158a604 (4)
0e1c2000 ffffffff813cb940 (06) 0f84 56020000            JZ 0xffffffff813cbb9c
0e1c2000 ffffffff813cb946 (03) 83c2 01                  ADD EDX, 0x1
0e1c2000 ffffffff813cb949 (04) 48 83c1 04               ADD RCX, 0x4
0e1c2000 ffffffff813cb94d (03) 83fa 06                  CMP EDX, 0x6
0e1c2000 ffffffff813cb950 (02) 75 ec                    JNZ 0xffffffff813cb93e
0e1c2000 ffffffff813cb93e (02) 3b01                     CMP EAX, [RCX]
            load    0xffffffff8158a608 0x000000000158a608 (4)
0e1c2000 ffffffff813cb940 (06) 0f84 56020000            JZ 0xffffffff813cbb9c
0e1c2000 ffffffff813cb946 (03) 83c2 01                  ADD EDX, 0x1
0e1c2000 ffffffff813cb949 (04) 48 83c1 04               ADD RCX, 0x4
0e1c2000 ffffffff813cb94d (03) 83fa 06                  CMP EDX, 0x6
0e1c2000 ffffffff813cb950 (02) 75 ec                    JNZ 0xffffffff813cb93e
0e1c2000 ffffffff813cb93e (02) 3b01                     CMP EAX, [RCX]
            load    0xffffffff8158a60c 0x000000000158a60c (4)
0e1c2000 ffffffff813cb940 (06) 0f84 56020000            JZ 0xffffffff813cbb9c
0e1c2000 ffffffff813cb946 (03) 83c2 01                  ADD EDX, 0x1
0e1c2000 ffffffff813cb949 (04) 48 83c1 04               ADD RCX, 0x4
0e1c2000 ffffffff813cb94d (03) 83fa 06                  CMP EDX, 0x6
0e1c2000 ffffffff813cb950 (02) 75 ec                    JNZ 0xffffffff813cb93e
0e1c2000 ffffffff813cb93e (02) 3b01                     CMP EAX, [RCX]
            load    0xffffffff8158a610 0x000000000158a610 (4)
0e1c2000 ffffffff813cb940 (06) 0f84 56020000            JZ 0xffffffff813cbb9c
0e1c2000 ffffffff813cb946 (03) 83c2 01                  ADD EDX, 0x1
0e1c2000 ffffffff813cb949 (04) 48 83c1 04               ADD RCX, 0x4
0e1c2000 ffffffff813cb94d (03) 83fa 06                  CMP EDX, 0x6
0e1c2000 ffffffff813cb950 (02) 75 ec                    JNZ 0xffffffff813cb93e
0e1c2000 ffffffff813cb93e (02) 3b01                     CMP EAX, [RCX]
            load    0xffffffff8158a614 0x000000000158a614 (4)
0e1c2000 ffffffff813cb940 (06) 0f84 56020000            JZ 0xffffffff813cbb9c
0e1c2000 ffffffff813cb946 (03) 83c2 01                  ADD EDX, 0x1
0e1c2000 ffffffff813cb949 (04) 48 83c1 04               ADD RCX, 0x4
0e1c2000 ffffffff813cb94d (03) 83fa 06                  CMP EDX, 0x6
0e1c2000 ffffffff813cb950 (02) 75 ec                    JNZ 0xffffffff813cb93e
0e1c2000 ffffffff813cb952 (02) 89c2                     MOV EDX, EAX
0e1c2000 ffffffff813cb954 (03) 41 89c4                  MOV R12D, EAX
0e1c2000 ffffffff813cb957 (03) c1ea 07                  SHR EDX, 0x7
0e1c2000 ffffffff813cb95a (04) 41 83e4 7f               AND R12D, 0x7f
0e1c2000 ffffffff813cb95e (06) 8893 0a050000            MOV [RBX+0x50a], DL
            store   0xffff88000f28bd0a 0x000000000f28bd0a (1)
0e1c2000 ffffffff813cb964 (07) 80bb 08050000 00         CMP BYTE [RBX+0x508], 0x0
            load    0xffff88000f28bd08 0x000000000f28bd08 (1)
0e1c2000 ffffffff813cb96b (02) 75 3b                    JNZ 0xffffffff813cb9a8
0e1c2000 ffffffff813cb96d (02) 89c6                     MOV ESI, EAX
0e1c2000 ffffffff813cb96f (07) 48 c7c1 04a65881         MOV RCX, -0x7ea759fc
0e1c2000 ffffffff813cb976 (05) ba 01000000              MOV EDX, 0x1
0e1c2000 ffffffff813cb97b (04) 40 80f6 aa               XOR SIL, 0xaa
0e1c2000 ffffffff813cb97f (03) 83e6 7f                  AND ESI, 0x7f
0e1c2000 ffffffff813cb982 (06) 0f84 1e030000            JZ 0xffffffff813cbca6
0e1c2000 ffffffff813cb988 (02) 8b31                     MOV ESI, [RCX]
            load    0xffffffff8158a604 0x000000000158a604 (4)
0e1c2000 ffffffff813cb98a (02) 31c6                     XOR ESI, EAX
0e1c2000 ffffffff813cb98c (03) 83e6 7f                  AND ESI, 0x7f
0e1c2000 ffffffff813cb98f (06) 0f84 13030000            JZ 0xffffffff813cbca8
0e1c2000 ffffffff813cb995 (03) 83c2 01                  ADD EDX, 0x1
0e1c2000 ffffffff813cb998 (04) 48 83c1 04               ADD RCX, 0x4
0e1c2000 ffffffff813cb99c (03) 83fa 06                  CMP EDX, 0x6
0e1c2000 ffffffff813cb99f (02) 75 e7                    JNZ 0xffffffff813cb988
0e1c2000 ffffffff813cb988 (02) 8b31                     MOV ESI, [RCX]
            load    0xffffffff8158a608 0x000000000158a608 (4)
0e1c2000 ffffffff813cb98a (02) 31c6                     XOR ESI, EAX
0e1c2000 ffffffff813cb98c (03) 83e6 7f                  AND ESI, 0x7f
0e1c2000 ffffffff813cb98f (06) 0f84 13030000            JZ 0xffffffff813cbca8
0e1c2000 ffffffff813cb995 (03) 83c2 01                  ADD EDX, 0x1
0e1c2000 ffffffff813cb998 (04) 48 83c1 04               ADD RCX, 0x4
0e1c2000 ffffffff813cb99c (03) 83fa 06                  CMP EDX, 0x6
0e1c2000 ffffffff813cb99f (02) 75 e7                    JNZ 0xffffffff813cb988
0e1c2000 ffffffff813cb988 (02) 8b31                     MOV ESI, [RCX]
            load    0xffffffff8158a60c 0x000000000158a60c (4)
0e1c2000 ffffffff813cb98a (02) 31c6                     XOR ESI, EAX
0e1c2000 ffffffff813cb98c (03) 83e6 7f                  AND ESI, 0x7f
0e1c2000 ffffffff813cb98f (06) 0f84 13030000            JZ 0xffffffff813cbca8
0e1c2000 ffffffff813cb995 (03) 83c2 01                  ADD EDX, 0x1
0e1c2000 ffffffff813cb998 (04) 48 83c1 04               ADD RCX, 0x4
0e1c2000 ffffffff813cb99c (03) 83fa 06                  CMP EDX, 0x6
0e1c2000 ffffffff813cb99f (02) 75 e7                    JNZ 0xffffffff813cb988
0e1c2000 ffffffff813cb988 (02) 8b31                     MOV ESI, [RCX]
            load    0xffffffff8158a610 0x000000000158a610 (4)
0e1c2000 ffffffff813cb98a (02) 31c6                     XOR ESI, EAX
0e1c2000 ffffffff813cb98c (03) 83e6 7f                  AND ESI, 0x7f
0e1c2000 ffffffff813cb98f (06) 0f84 13030000            JZ 0xffffffff813cbca8
0e1c2000 ffffffff813cb995 (03) 83c2 01                  ADD EDX, 0x1
0e1c2000 ffffffff813cb998 (04) 48 83c1 04               ADD RCX, 0x4
0e1c2000 ffffffff813cb99c (03) 83fa 06                  CMP EDX, 0x6
0e1c2000 ffffffff813cb99f (02) 75 e7                    JNZ 0xffffffff813cb988
0e1c2000 ffffffff813cb988 (02) 8b31                     MOV ESI, [RCX]
            load    0xffffffff8158a614 0x000000000158a614 (4)
0e1c2000 ffffffff813cb98a (02) 31c6                     XOR ESI, EAX
0e1c2000 ffffffff813cb98c (03) 83e6 7f                  AND ESI, 0x7f
0e1c2000 ffffffff813cb98f (06) 0f84 13030000            JZ 0xffffffff813cbca8
0e1c2000 ffffffff813cb995 (03) 83c2 01                  ADD EDX, 0x1
0e1c2000 ffffffff813cb998 (04) 48 83c1 04               ADD RCX, 0x4
0e1c2000 ffffffff813cb99c (03) 83fa 06                  CMP EDX, 0x6
0e1c2000 ffffffff813cb99f (02) 75 e7                    JNZ 0xffffffff813cb988
0e1c2000 ffffffff813cb9a1 (07) 0f1f80 00000000          NOP DWORD [RAX+0x0]
0e1c2000 ffffffff813cb9a8 (07) 41 81fc f0000000         CMP R12D, 0xf0
0e1c2000 ffffffff813cb9af (06) 0f84 83010000            JZ 0xffffffff813cbb38
0e1c2000 ffffffff813cb9b5 (06) 0f86 fd000000            JBE 0xffffffff813cbab8
0e1c2000 ffffffff813cbab8 (07) 41 81fc e0000000         CMP R12D, 0xe0
0e1c2000 ffffffff813cbabf (06) 0f84 a3000000            JZ 0xffffffff813cbb68
0e1c2000 ffffffff813cbac5 (07) 41 81fc e1000000         CMP R12D, 0xe1
0e1c2000 ffffffff813cbacc (06) 0f84 86000000            JZ 0xffffffff813cbb58
0e1c2000 ffffffff813cbad2 (07) 41 81fc aa000000         CMP R12D, 0xaa
0e1c2000 ffffffff813cbad9 (06) 0f85 0cffffff            JNZ 0xffffffff813cb9eb
0e1c2000 ffffffff813cb9eb (07) 80bb 00050000 03         CMP BYTE [RBX+0x500], 0x3
            load    0xffff88000f28bd00 0x000000000f28bd00 (1)
0e1c2000 ffffffff813cb9f2 (06) 0f84 80010000            JZ 0xffffffff813cbb78
0e1c2000 ffffffff813cb9f8 (03) 44 89e0                  MOV EAX, R12D
0e1c2000 ffffffff813cb9fb (07) 41 81e4 80000000         AND R12D, 0x80
0e1c2000 ffffffff813cba02 (03) 83e0 7f                  AND EAX, 0x7f
0e1c2000 ffffffff813cba05 (03) 45 01e4                  ADD R12D, R12D
0e1c2000 ffffffff813cba08 (03) 41 09c4                  OR R12D, EAX
0e1c2000 ffffffff813cba0b (07) 0fb683 08050000          MOVZX EAX, BYTE [RBX+0x508]
            load    0xffff88000f28bd08 0x000000000f28bd08 (1)
0e1c2000 ffffffff813cba12 (02) 3c 01                    CMP AL, 0x1
0e1c2000 ffffffff813cba14 (06) 0f84 c6020000            JZ 0xffffffff813cbce0
0e1c2000 ffffffff813cba1a (02) 84c0                     TEST AL, AL
0e1c2000 ffffffff813cba1c (06) 0f85 9e020000            JNZ 0xffffffff813cbcc0
0e1c2000 ffffffff813cba22 (03) 44 89e0                  MOV EAX, R12D
0e1c2000 ffffffff813cba25 (09) 44 0fb7b443 ba000000     MOVZX R14D, [RBX+RAX*2+0xba]
            load    0xffff88000f28b916 0x000000000f28b916 (2)
0e1c2000 ffffffff813cba2e (06) 66 41 81fe ff00          CMP R14W, 0xff
0e1c2000 ffffffff813cba34 (06) 0f85 7e010000            JNZ 0xffffffff813cbbb8
0e1c2000 ffffffff813cbbb8 (03) 44 89e1                  MOV ECX, R12D
0e1c2000 ffffffff813cbbbb (05) ba 04000000              MOV EDX, 0x4
0e1c2000 ffffffff813cbbc0 (05) be 04000000              MOV ESI, 0x4
0e1c2000 ffffffff813cbbc5 (03) 4c 89ff                  MOV RDI, R15
0e1c2000 ffffffff813cbbc8 (05) e8 a3acffff              CALL 0xffffffff813c6870
            store   0xffff8800019eedd0 0x00000000019eedd0 (8)
0e1c2000 ffffffff813c6870 (01) 55                       PUSH RBP
            store   0xffff8800019eedc8 0x00000000019eedc8 (8)
0e1c2000 ffffffff813c6871 (03) 48 89e5                  MOV RBP, RSP
0e1c2000 ffffffff813c6874 (04) 48 83ec 40               SUB RSP, 0x40
0e1c2000 ffffffff813c6878 (03) 83fe 1f                  CMP ESI, 0x1f
0e1c2000 ffffffff813c687b (04) 48 895d d8               MOV [RBP-0x28], RBX
            store   0xffff8800019eeda0 0x00000000019eeda0 (8)
0e1c2000 ffffffff813c687f (04) 4c 8965 e0               MOV [RBP-0x20], R12
            store   0xffff8800019eeda8 0x00000000019eeda8 (8)
0e1c2000 ffffffff813c6883 (02) 89f3                     MOV EBX, ESI
0e1c2000 ffffffff813c6885 (04) 4c 896d e8               MOV [RBP-0x18], R13
            store   0xffff8800019eedb0 0x00000000019eedb0 (8)
0e1c2000 ffffffff813c6889 (04) 4c 8975 f0               MOV [RBP-0x10], R14
            store   0xffff8800019eedb8 0x00000000019eedb8 (8)
0e1c2000 ffffffff813c688d (03) 49 89fc                  MOV R12, RDI
0e1c2000 ffffffff813c6890 (04) 4c 897d f8               MOV [RBP-0x8], R15
            store   0xffff8800019eedc0 0x00000000019eedc0 (8)
0e1c2000 ffffffff813c6894 (03) 41 89d5                  MOV R13D, EDX
0e1c2000 ffffffff813c6897 (02) 77 0a                    JA 0xffffffff813c68a3
0e1c2000 ffffffff813c6899 (04) 0fa377 20                BT [RDI+0x20], ESI
            load    0xffff88000d9ac020 0x000000000d9ac020 (4)
0e1c2000 ffffffff813c689d (02) 19c0                     SBB EAX, EAX
0e1c2000 ffffffff813c689f (02) 85c0                     TEST EAX, EAX
0e1c2000 ffffffff813c68a1 (02) 75 1d                    JNZ 0xffffffff813c68c0
0e1c2000 ffffffff813c68c0 (07) 4c 8db7 00080000         LEA R14, [RDI+0x800]
0e1c2000 ffffffff813c68c7 (03) 894d c8                  MOV [RBP-0x38], ECX
            store   0xffff8800019eed90 0x00000000019eed90 (4)
0e1c2000 ffffffff813c68ca (03) 4c 89f7                  MOV RDI, R14
0e1c2000 ffffffff813c68cd (05) e8 6e301600              CALL 0xffffffff81529940
            store   0xffff8800019eed80 0x00000000019eed80 (8)
0e1c2000 ffffffff81529940 (01) 55                       PUSH RBP
            store   0xffff8800019eed78 0x00000000019eed78 (8)
0e1c2000 ffffffff81529941 (03) 48 89e5                  MOV RBP, RSP
0e1c2000 ffffffff81529944 (04) 48 83ec 10               SUB RSP, 0x10
0e1c2000 ffffffff81529948 (04) 48 891c24                MOV [RSP], RBX
            store   0xffff8800019eed68 0x00000000019eed68 (8)
0e1c2000 ffffffff8152994c (05) 4c 896424 08             MOV [RSP+0x8], R12
            store   0xffff8800019eed70 0x00000000019eed70 (8)
0e1c2000 ffffffff81529951 (01) 9c                       PUSHF 
            store   0xffff8800019eed60 0x00000000019eed60 (8)
0e1c2000 ffffffff81529952 (01) 58                       POP RAX
            load    0xffff8800019eed60 0x00000000019eed60 (8)
0e1c2000 ffffffff81529953 (01) 66                       DB 0x66 
0e1c2000 ffffffff81529954 (01) 66                       DB 0x66 
0e1c2000 ffffffff81529954 (02) 66 90                    NOP 
0e1c2000 ffffffff81529956 (01) 66                       DB 0x66 
0e1c2000 ffffffff81529956 (02) 66 90                    NOP 
0e1c2000 ffffffff81529958 (03) 48 89c3                  MOV RBX, RAX
0e1c2000 ffffffff8152995b (01) fa                       CLI 
0e1c2000 ffffffff8152995c (01) 66                       DB 0x66 
0e1c2000 ffffffff8152995d (01) 66                       DB 0x66 
0e1c2000 ffffffff8152995d (02) 66 90                    NOP 
0e1c2000 ffffffff8152995f (01) 66                       DB 0x66 
0e1c2000 ffffffff81529960 (01) 66                       DB 0x66 
0e1c2000 ffffffff81529960 (02) 66 90                    NOP 
0e1c2000 ffffffff81529962 (03) 48 89de                  MOV RSI, RBX
0e1c2000 ffffffff81529965 (05) e8 a6cab0ff              CALL 0xffffffff81036410
            store   0xffff8800019eed60 0x00000000019eed60 (8)
0e1c2000 ffffffff81036410 (01) 55                       PUSH RBP
            store   0xffff8800019eed58 0x00000000019eed58 (8)
0e1c2000 ffffffff81036411 (03) 48 89e5                  MOV RBP, RSP
0e1c2000 ffffffff81036414 (05) e8 67ffffff              CALL 0xffffffff81036380
            store   0xffff8800019eed50 0x00000000019eed50 (8)
0e1c2000 ffffffff81036380 (01) 55                       PUSH RBP
            store   0xffff8800019eed48 0x00000000019eed48 (8)
0e1c2000 ffffffff81036381 (05) b8 00010000              MOV EAX, 0x100
0e1c2000 ffffffff81036386 (03) 48 89e5                  MOV RBP, RSP
0e1c2000 ffffffff81036389 (01) 3e                       DB 0x3e 
0e1c2000 ffffffff81036389 (05) 3e 66 0fc107             XADD [RDI], AX
            load    0xffff88000d9ac800 0x000000000d9ac800 (2)
            store   0xffff88000d9ac800 0x000000000d9ac800 (2)
0e1c2000 ffffffff8103638e (02) 38e0                     CMP AL, AH
0e1c2000 ffffffff81036390 (02) 74 06                    JZ 0xffffffff81036398
0e1c2000 ffffffff81036398 (01) c9                       LEAVE 
            load    0xffff8800019eed48 0x00000000019eed48 (8)
0e1c2000 ffffffff81036399 (01) c3                       RET 
            load    0xffff8800019eed50 0x00000000019eed50 (8)
0e1c2000 ffffffff81036419 (01) 66                       DB 0x66 
0e1c2000 ffffffff81036419 (02) 66 90                    NOP 
0e1c2000 ffffffff8103641b (01) c9                       LEAVE 
            load    0xffff8800019eed58 0x00000000019eed58 (8)
0e1c2000 ffffffff8103641c (01) c3                       RET 
            load    0xffff8800019eed60 0x00000000019eed60 (8)
0e1c2000 ffffffff8152996a (01) 66                       DB 0x66 
0e1c2000 ffffffff8152996a (02) 66 90                    NOP 
0e1c2000 ffffffff8152996c (03) 48 89d8                  MOV RAX, RBX
0e1c2000 ffffffff8152996f (05) 4c 8b6424 08             MOV R12, [RSP+0x8]
            load    0xffff8800019eed70 0x00000000019eed70 (8)
0e1c2000 ffffffff81529974 (04) 48 8b1c24                MOV RBX, [RSP]
            load    0xffff8800019eed68 0x00000000019eed68 (8)
0e1c2000 ffffffff81529978 (01) c9                       LEAVE 
            load    0xffff8800019eed78 0x00000000019eed78 (8)
0e1c2000 ffffffff81529979 (01) c3                       RET 
            load    0xffff8800019eed80 0x00000000019eed80 (8)
0e1c2000 ffffffff813c68d2 (03) 8b4d c8                  MOV ECX, [RBP-0x38]
            load    0xffff8800019eed90 0x00000000019eed90 (4)
0e1c2000 ffffffff813c68d5 (03) 44 89ee                  MOV ESI, R13D
0e1c2000 ffffffff813c68d8 (02) 89df                     MOV EDI, EBX
0e1c2000 ffffffff813c68da (03) 49 89c7                  MOV R15, RAX
0e1c2000 ffffffff813c68dd (02) 89ca                     MOV EDX, ECX
0e1c2000 ffffffff813c68df (05) e8 aca1f2ff              CALL 0xffffffff812f0a90
            store   0xffff8800019eed80 0x00000000019eed80 (8)
0e1c2000 ffffffff812f0a90 (07) 0fb605 a9f96d00          MOVZX EAX, BYTE [RIP+0x6df9a9]
            load    0xffffffff819d0440 0x00000000019d0440 (1)
0e1c2000 ffffffff812f0a97 (01) 55                       PUSH RBP
            store   0xffff8800019eed78 0x00000000019eed78 (8)
0e1c2000 ffffffff812f0a98 (03) 48 89e5                  MOV RBP, RSP
0e1c2000 ffffffff812f0a9b (02) 39d0                     CMP EAX, EDX
0e1c2000 ffffffff812f0a9d (02) 74 20                    JZ 0xffffffff812f0abf
0e1c2000 ffffffff812f0abf (01) c9                       LEAVE 
            load    0xffff8800019eed78 0x00000000019eed78 (8)
0e1c2000 ffffffff812f0ac0 (01) c3                       RET 
            load    0xffff8800019eed80 0x00000000019eed80 (8)
0e1c2000 ffffffff813c68e4 (03) 8b4d c8                  MOV ECX, [RBP-0x38]
            load    0xffff8800019eed90 0x00000000019eed90 (4)
0e1c2000 ffffffff813c68e7 (02) 89de                     MOV ESI, EBX
0e1c2000 ffffffff813c68e9 (03) 4c 89e7                  MOV RDI, R12
0e1c2000 ffffffff813c68ec (03) 44 89ea                  MOV EDX, R13D
0e1c2000 ffffffff813c68ef (05) e8 4cf6ffff              CALL 0xffffffff813c5f40
            store   0xffff8800019eed80 0x00000000019eed80 (8)
0e1c2000 ffffffff813c5f40 (01) 55                       PUSH RBP
            store   0xffff8800019eed78 0x00000000019eed78 (8)
0e1c2000 ffffffff813c5f41 (03) 48 89e5                  MOV RBP, RSP
0e1c2000 ffffffff813c5f44 (04) 48 83ec 30               SUB RSP, 0x30
0e1c2000 ffffffff813c5f48 (03) 83fe 16                  CMP ESI, 0x16
0e1c2000 ffffffff813c5f4b (04) 48 895d d8               MOV [RBP-0x28], RBX
            store   0xffff8800019eed50 0x00000000019eed50 (8)
0e1c2000 ffffffff813c5f4f (04) 4c 8965 e0               MOV [RBP-0x20], R12
            store   0xffff8800019eed58 0x00000000019eed58 (8)
0e1c2000 ffffffff813c5f53 (03) 48 89fb                  MOV RBX, RDI
0e1c2000 ffffffff813c5f56 (04) 4c 896d e8               MOV [RBP-0x18], R13
            store   0xffff8800019eed60 0x00000000019eed60 (8)
0e1c2000 ffffffff813c5f5a (04) 4c 8975 f0               MOV [RBP-0x10], R14
            store   0xffff8800019eed68 0x00000000019eed68 (8)
0e1c2000 ffffffff813c5f5e (03) 41 89f4                  MOV R12D, ESI
0e1c2000 ffffffff813c5f61 (04) 4c 897d f8               MOV [RBP-0x8], R15
            store   0xffff8800019eed70 0x00000000019eed70 (8)
0e1c2000 ffffffff813c5f65 (03) 41 89d5                  MOV R13D, EDX
0e1c2000 ffffffff813c5f68 (03) 41 89ce                  MOV R14D, ECX
0e1c2000 ffffffff813c5f6b (02) 77 66                    JA 0xffffffff813c5fd3
0e1c2000 ffffffff813c5f6d (02) 89f0                     MOV EAX, ESI
0e1c2000 ffffffff813c5f6f (07) ff24c5 f88d5881          JMP [RAX*8-0x7ea77208]
            load    0xffffffff81588e18 0x0000000001588e18 (8)
0e1c2000 ffffffff813c6198 (07) 48 8db7 98000000         LEA RSI, [RDI+0x98]
0e1c2000 ffffffff813c619f (05) ba 07000000              MOV EDX, 0x7
0e1c2000 ffffffff813c61a4 (03) 44 89ef                  MOV EDI, R13D
0e1c2000 ffffffff813c61a7 (05) e8 f4ebffff              CALL 0xffffffff813c4da0
            store   0xffff8800019eed40 0x00000000019eed40 (8)
0e1c2000 ffffffff813c4da0 (01) 55                       PUSH RBP
            store   0xffff8800019eed38 0x00000000019eed38 (8)
0e1c2000 ffffffff813c4da1 (02) 31c0                     XOR EAX, EAX
0e1c2000 ffffffff813c4da3 (02) 39d7                     CMP EDI, EDX
0e1c2000 ffffffff813c4da5 (03) 48 89e5                  MOV RBP, RSP
0e1c2000 ffffffff813c4da8 (02) 77 0c                    JA 0xffffffff813c4db6
0e1c2000 ffffffff813c4daa (03) 0fa33e                   BT [RSI], EDI
            load    0xffff88000d9ac098 0x000000000d9ac098 (4)
0e1c2000 ffffffff813c4dad (02) 19ff                     SBB EDI, EDI
0e1c2000 ffffffff813c4daf (02) 31c0                     XOR EAX, EAX
0e1c2000 ffffffff813c4db1 (02) 85ff                     TEST EDI, EDI
0e1c2000 ffffffff813c4db3 (03) 0f95c0                   SETNZ AL
0e1c2000 ffffffff813c4db6 (01) c9                       LEAVE 
            load    0xffff8800019eed38 0x00000000019eed38 (8)
0e1c2000 ffffffff813c4db7 (01) c3                       RET 
            load    0xffff8800019eed40 0x00000000019eed40 (8)
0e1c2000 ffffffff813c61ac (02) 85c0                     TEST EAX, EAX
0e1c2000 ffffffff813c61ae (06) 0f84 1ffeffff            JZ 0xffffffff813c5fd3
0e1c2000 ffffffff813c61b4 (06) 41 bf 03000000           MOV R15D, 0x3
0e1c2000 ffffffff813c61ba (05) e9 ccfdffff              JMP 0xffffffff813c5f8b
0e1c2000 ffffffff813c5f8b (10) c783 48010000 00000000   MOV DWORD [RBX+0x148], 0x0
            store   0xffff88000d9ac148 0x000000000d9ac148 (4)
0e1c2000 ffffffff813c5f95 (03) 44 89f8                  MOV EAX, R15D
0e1c2000 ffffffff813c5f98 (03) 83e0 02                  AND EAX, 0x2
0e1c2000 ffffffff813c5f9b (02) 85c0                     TEST EAX, EAX
0e1c2000 ffffffff813c5f9d (02) 74 1a                    JZ 0xffffffff813c5fb9
0e1c2000 ffffffff813c5f9f (07) 48 8b83 e8070000         MOV RAX, [RBX+0x7e8]
            load    0xffff88000d9ac7e8 0x000000000d9ac7e8 (8)
0e1c2000 ffffffff813c5fa6 (03) 48 85c0                  TEST RAX, RAX
0e1c2000 ffffffff813c5fa9 (02) 74 0e                    JZ 0xffffffff813c5fb9
0e1c2000 ffffffff813c5fab (03) 44 89f1                  MOV ECX, R14D
0e1c2000 ffffffff813c5fae (03) 44 89ea                  MOV EDX, R13D
0e1c2000 ffffffff813c5fb1 (03) 44 89e6                  MOV ESI, R12D
0e1c2000 ffffffff813c5fb4 (03) 48 89df                  MOV RDI, RBX
0e1c2000 ffffffff813c5fb7 (02) ffd0                     CALL RAX
            store   0xffff8800019eed40 0x00000000019eed40 (8)
0e1c2000 ffffffff813caec0 (01) 55                       PUSH RBP
            store   0xffff8800019eed38 0x00000000019eed38 (8)
0e1c2000 ffffffff813caec1 (07) 48 8bbf b8080000         MOV RDI, [RDI+0x8b8]
            load    0xffff88000d9ac8b8 0x000000000d9ac8b8 (8)
0e1c2000 ffffffff813caec8 (03) 48 89e5                  MOV RBP, RSP
0e1c2000 ffffffff813caecb (07) 80bf 03050000 00         CMP BYTE [RDI+0x503], 0x0
            load    0xffff88000f28bd03 0x000000000f28bd03 (1)
0e1c2000 ffffffff813caed2 (02) 75 0c                    JNZ 0xffffffff813caee0
0e1c2000 ffffffff813caee0 (03) 83fe 11                  CMP ESI, 0x11
0e1c2000 ffffffff813caee3 (02) 74 23                    JZ 0xffffffff813caf08
0e1c2000 ffffffff813caee5 (03) 83fe 14                  CMP ESI, 0x14
0e1c2000 ffffffff813caee8 (02) 75 ea                    JNZ 0xffffffff813caed4
0e1c2000 ffffffff813caed4 (05) b8 ffffffff              MOV EAX, -0x1
0e1c2000 ffffffff813caed9 (01) c9                       LEAVE 
            load    0xffff8800019eed38 0x00000000019eed38 (8)
0e1c2000 ffffffff813caeda (01) c3                       RET 
            load    0xffff8800019eed40 0x00000000019eed40 (8)
0e1c2000 ffffffff813c5fb9 (04) 41 83e7 01               AND R15D, 0x1
0e1c2000 ffffffff813c5fbd (03) 45 85ff                  TEST R15D, R15D
0e1c2000 ffffffff813c5fc0 (02) 74 11                    JZ 0xffffffff813c5fd3
0e1c2000 ffffffff813c5fc2 (03) 44 89f1                  MOV ECX, R14D
0e1c2000 ffffffff813c5fc5 (03) 44 89ea                  MOV EDX, R13D
0e1c2000 ffffffff813c5fc8 (03) 44 89e6                  MOV ESI, R12D
0e1c2000 ffffffff813c5fcb (03) 48 89df                  MOV RDI, RBX
0e1c2000 ffffffff813c5fce (05) e8 7de5ffff              CALL 0xffffffff813c4550
            store   0xffff8800019eed40 0x00000000019eed40 (8)
0e1c2000 ffffffff813c4550 (01) 55                       PUSH RBP
            store   0xffff8800019eed38 0x00000000019eed38 (8)
0e1c2000 ffffffff813c4551 (03) 48 89e5                  MOV RBP, RSP
0e1c2000 ffffffff813c4554 (04) 48 83ec 30               SUB RSP, 0x30
0e1c2000 ffffffff813c4558 (04) 48 895d d8               MOV [RBP-0x28], RBX
            store   0xffff8800019eed10 0x00000000019eed10 (8)
0e1c2000 ffffffff813c455c (04) 4c 8965 e0               MOV [RBP-0x20], R12
            store   0xffff8800019eed18 0x00000000019eed18 (8)
0e1c2000 ffffffff813c4560 (03) 48 89fb                  MOV RBX, RDI
0e1c2000 ffffffff813c4563 (04) 4c 896d e8               MOV [RBP-0x18], R13
            store   0xffff8800019eed20 0x00000000019eed20 (8)
0e1c2000 ffffffff813c4567 (04) 4c 8975 f0               MOV [RBP-0x10], R14
            store   0xffff8800019eed28 0x00000000019eed28 (8)
0e1c2000 ffffffff813c456b (03) 41 89f4                  MOV R12D, ESI
0e1c2000 ffffffff813c456e (04) 4c 897d f8               MOV [RBP-0x8], R15
            store   0xffff8800019eed30 0x00000000019eed30 (8)
0e1c2000 ffffffff813c4572 (07) 48 8bbf f0070000         MOV RDI, [RDI+0x7f0]
            load    0xffff88000d9ac7f0 0x000000000d9ac7f0 (8)
0e1c2000 ffffffff813c4579 (03) 41 89d5                  MOV R13D, EDX
0e1c2000 ffffffff813c457c (03) 41 89ce                  MOV R14D, ECX
0e1c2000 ffffffff813c457f (03) 48 85ff                  TEST RDI, RDI
0e1c2000 ffffffff813c4582 (02) 74 24                    JZ 0xffffffff813c45a8
0e1c2000 ffffffff813c45a8 (07) 48 8bbb f8070000         MOV RDI, [RBX+0x7f8]
            load    0xffff88000d9ac7f8 0x000000000d9ac7f8 (8)
0e1c2000 ffffffff813c45af (03) 48 85ff                  TEST RDI, RDI
0e1c2000 ffffffff813c45b2 (02) 74 0b                    JZ 0xffffffff813c45bf
0e1c2000 ffffffff813c45bf (07) 48 8bbb 80090000         MOV RDI, [RBX+0x980]
            load    0xffff88000d9ac980 0x000000000d9ac980 (8)
0e1c2000 ffffffff813c45c6 (07) 4c 8dbb 80090000         LEA R15, [RBX+0x980]
0e1c2000 ffffffff813c45cd (04) 48 83ef 28               SUB RDI, 0x28
0e1c2000 ffffffff813c45d1 (02) eb 0c                    JMP 0xffffffff813c45df
0e1c2000 ffffffff813c45df (04) 48 8b47 28               MOV RAX, [RDI+0x28]
            load    0xffff88000d985ce8 0x000000000d985ce8 (8)
0e1c2000 ffffffff813c45e3 (04) 48 8d5f 28               LEA RBX, [RDI+0x28]
0e1c2000 ffffffff813c45e7 (03) 49 39df                  CMP R15, RBX
0e1c2000 ffffffff813c45ea (03) 0f1808                   PREFETCHT0 [RAX]
0e1c2000 ffffffff813c45ed (02) 74 9c                    JZ 0xffffffff813c458b
0e1c2000 ffffffff813c45ef (03) 8b47 08                  MOV EAX, [RDI+0x8]
            load    0xffff88000d985cc8 0x000000000d985cc8 (4)
0e1c2000 ffffffff813c45f2 (02) 85c0                     TEST EAX, EAX
0e1c2000 ffffffff813c45f4 (02) 74 e2                    JZ 0xffffffff813c45d8
0e1c2000 ffffffff813c45f6 (04) 48 8b47 20               MOV RAX, [RDI+0x20]
            load    0xffff88000d985ce0 0x000000000d985ce0 (8)
0e1c2000 ffffffff813c45fa (03) 44 89f1                  MOV ECX, R14D
0e1c2000 ffffffff813c45fd (03) 44 89ea                  MOV EDX, R13D
0e1c2000 ffffffff813c4600 (03) 44 89e6                  MOV ESI, R12D
0e1c2000 ffffffff813c4603 (03) ff50 08                  CALL [RAX+0x8]
            load    0xffffffff817d1388 0x00000000017d1388 (8)
            store   0xffff8800019eed00 0x00000000019eed00 (8)
0e1c2000 ffffffff81302ae0 (01) 55                       PUSH RBP
            store   0xffff8800019eecf8 0x00000000019eecf8 (8)
0e1c2000 ffffffff81302ae1 (03) 83fa 03                  CMP EDX, 0x3
0e1c2000 ffffffff81302ae4 (02) 89d0                     MOV EAX, EDX
0e1c2000 ffffffff81302ae6 (03) 48 89e5                  MOV RBP, RSP
0e1c2000 ffffffff81302ae9 (06) 0f84 81000000            JZ 0xffffffff81302b70
0e1c2000 ffffffff81302aef (03) 83fe 01                  CMP ESI, 0x1
0e1c2000 ffffffff81302af2 (02) 75 47                    JNZ 0xffffffff81302b3b
0e1c2000 ffffffff81302b3b (01) 3e                       DB 0x3e 
0e1c2000 ffffffff81302b3b (09) 3e 0fba2d 04e84c00 00    BTS DWORD [RIP+0x4ce804], 0x0
            load    0xffffffff817d1348 0x00000000017d1348 (4)
            store   0xffffffff817d1348 0x00000000017d1348 (4)
0e1c2000 ffffffff81302b44 (02) 19c0                     SBB EAX, EAX
0e1c2000 ffffffff81302b46 (02) 85c0                     TEST EAX, EAX
0e1c2000 ffffffff81302b48 (02) 75 0c                    JNZ 0xffffffff81302b56
0e1c2000 ffffffff81302b4a (07) 48 c7c7 40137d81         MOV RDI, -0x7e82ecc0
0e1c2000 ffffffff81302b51 (05) e8 5a33d6ff              CALL 0xffffffff81065eb0
            store   0xffff8800019eecf0 0x00000000019eecf0 (8)
0e1c2000 ffffffff81065eb0 (01) 55                       PUSH RBP
            store   0xffff8800019eece8 0x00000000019eece8 (8)
0e1c2000 ffffffff81065eb1 (03) 48 89e5                  MOV RBP, RSP
0e1c2000 ffffffff81065eb4 (01) 53                       PUSH RBX
            store   0xffff8800019eece0 0x00000000019eece0 (8)
0e1c2000 ffffffff81065eb5 (04) 48 83ec 08               SUB RSP, 0x8
0e1c2000 ffffffff81065eb9 (01) 9c                       PUSHF 
            store   0xffff8800019eecd0 0x00000000019eecd0 (8)
0e1c2000 ffffffff81065eba (01) 58                       POP RAX
            load    0xffff8800019eecd0 0x00000000019eecd0 (8)
0e1c2000 ffffffff81065ebb (01) 66                       DB 0x66 
0e1c2000 ffffffff81065ebc (01) 66                       DB 0x66 
0e1c2000 ffffffff81065ebc (02) 66 90                    NOP 
0e1c2000 ffffffff81065ebe (01) 66                       DB 0x66 
0e1c2000 ffffffff81065ebe (02) 66 90                    NOP 
0e1c2000 ffffffff81065ec0 (03) 48 89c3                  MOV RBX, RAX
0e1c2000 ffffffff81065ec3 (01) fa                       CLI 
0e1c2000 ffffffff81065ec4 (01) 66                       DB 0x66 
0e1c2000 ffffffff81065ec5 (01) 66                       DB 0x66 
0e1c2000 ffffffff81065ec5 (02) 66 90                    NOP 
0e1c2000 ffffffff81065ec7 (01) 66                       DB 0x66 
0e1c2000 ffffffff81065ec8 (01) 66                       DB 0x66 
0e1c2000 ffffffff81065ec8 (02) 66 90                    NOP 
0e1c2000 ffffffff81065eca (07) 48 c7c0 90000100         MOV RAX, 0x10090
0e1c2000 ffffffff81065ed1 (07) 48 c707 00000000         MOV QWORD [RDI], 0x0
            store   0xffffffff817d1340 0x00000000017d1340 (8)
0e1c2000 ffffffff81065ed8 (09) 65 48 8b1425 60e30000    MOV RDX, GS:[0xe360]
            load    0xffff8800019f9360 0x00000000019f9360 (8)
0e1c2000 ffffffff81065ee1 (05) 48 8b5402 08             MOV RDX, [RDX+RAX+0x8]
            load    0xffff8800019fb098 0x00000000019fb098 (8)
0e1c2000 ffffffff81065ee6 (03) 48 893a                  MOV [RDX], RDI
            store   0xffff8800019fb090 0x00000000019fb090 (8)
0e1c2000 ffffffff81065ee9 (09) 65 48 8b1425 60e30000    MOV RDX, GS:[0xe360]
            load    0xffff8800019f9360 0x00000000019f9360 (8)
0e1c2000 ffffffff81065ef2 (05) 48 897c02 08             MOV [RDX+RAX+0x8], RDI
            store   0xffff8800019fb098 0x00000000019fb098 (8)
0e1c2000 ffffffff81065ef7 (09) 65 830c25 00570100 20    OR DWORD GS:[0x15700], 0x20
            load    0xffff880001a00700 0x0000000001a00700 (4)
            store   0xffff880001a00700 0x0000000001a00700 (4)
0e1c2000 ffffffff81065f00 (09) 65 48 8b0425 88cb0000    MOV RAX, GS:[0xcb88]
            load    0xffff8800019f7b88 0x00000000019f7b88 (8)
0e1c2000 ffffffff81065f09 (07) 48 6380 44e0ffff         MOVSXD RAX, [RAX-0x1fbc]
            load    0xffffffff8177201c 0x000000000177201c (4)
0e1c2000 ffffffff81065f10 (05) a9 00ffff07              TEST EAX, 0x7ffff00
0e1c2000 ffffffff81065f15 (02) 75 05                    JNZ 0xffffffff81065f1c
0e1c2000 ffffffff81065f1c (03) 48 89df                  MOV RDI, RBX
0e1c2000 ffffffff81065f1f (01) 57                       PUSH RDI
            store   0xffff8800019eecd0 0x00000000019eecd0 (8)
0e1c2000 ffffffff81065f20 (01) 9d                       POPF 
            load    0xffff8800019eecd0 0x00000000019eecd0 (8)
0e1c2000 ffffffff81065f21 (01) 66                       DB 0x66 
0e1c2000 ffffffff81065f22 (01) 66                       DB 0x66 
0e1c2000 ffffffff81065f22 (02) 66 90                    NOP 
0e1c2000 ffffffff81065f24 (01) 66                       DB 0x66 
0e1c2000 ffffffff81065f24 (02) 66 90                    NOP 
0e1c2000 ffffffff81065f26 (04) 48 83c4 08               ADD RSP, 0x8
0e1c2000 ffffffff81065f2a (01) 5b                       POP RBX
            load    0xffff8800019eece0 0x00000000019eece0 (8)
0e1c2000 ffffffff81065f2b (01) c9                       LEAVE 
            load    0xffff8800019eece8 0x00000000019eece8 (8)
0e1c2000 ffffffff81065f2c (01) c3                       RET 
            load    0xffff8800019eecf0 0x00000000019eecf0 (8)
0e1c2000 ffffffff81302b56 (10) c705 04fe6c00 01000000   MOV DWORD [RIP+0x6cfe04], 0x1
            store   0xffffffff819d2964 0x00000000019d2964 (4)
0e1c2000 ffffffff81302b60 (05) e8 2b220000              CALL 0xffffffff81304d90
            store   0xffff8800019eecf0 0x00000000019eecf0 (8)
0e1c2000 ffffffff81304d90 (01) 55                       PUSH RBP
            store   0xffff8800019eece8 0x00000000019eece8 (8)
0e1c2000 ffffffff81304d91 (07) 48 c7c7 c0217d81         MOV RDI, -0x7e82de40
0e1c2000 ffffffff81304d98 (03) 48 89e5                  MOV RBP, RSP
0e1c2000 ffffffff81304d9b (05) e8 10f5d6ff              CALL 0xffffffff810742b0
            store   0xffff8800019eece0 0x00000000019eece0 (8)
0e1c2000 ffffffff810742b0 (01) 55                       PUSH RBP
            store   0xffff8800019eecd8 0x00000000019eecd8 (8)
0e1c2000 ffffffff810742b1 (03) 48 89fe                  MOV RSI, RDI
0e1c2000 ffffffff810742b4 (07) 48 8b3d ddad7a00         MOV RDI, [RIP+0x7aaddd]
            load    0xffffffff8181f098 0x000000000181f098 (8)
0e1c2000 ffffffff810742bb (03) 48 89e5                  MOV RBP, RSP
0e1c2000 ffffffff810742be (05) e8 cdffffff              CALL 0xffffffff81074290
            store   0xffff8800019eecd0 0x00000000019eecd0 (8)
0e1c2000 ffffffff81074290 (01) 55                       PUSH RBP
            store   0xffff8800019eecc8 0x00000000019eecc8 (8)
0e1c2000 ffffffff81074291 (03) 48 89f8                  MOV RAX, RDI
0e1c2000 ffffffff81074294 (03) 48 89f2                  MOV RDX, RSI
0e1c2000 ffffffff81074297 (03) 48 89c6                  MOV RSI, RAX
0e1c2000 ffffffff8107429a (03) 48 89e5                  MOV RBP, RSP
0e1c2000 ffffffff8107429d (08) 65 8b3c25 68e30000       MOV EDI, GS:[0xe368]
            load    0xffff8800019f9368 0x00000000019f9368 (4)
0e1c2000 ffffffff810742a5 (05) e8 76ffffff              CALL 0xffffffff81074220
            store   0xffff8800019eecc0 0x00000000019eecc0 (8)
0e1c2000 ffffffff81074220 (01) 55                       PUSH RBP
            store   0xffff8800019eecb8 0x00000000019eecb8 (8)
0e1c2000 ffffffff81074221 (03) 48 89e5                  MOV RBP, RSP
0e1c2000 ffffffff81074224 (01) 3e                       DB 0x3e 
0e1c2000 ffffffff81074224 (05) 3e 0fba2a 00             BTS DWORD [RDX], 0x0
            load    0xffffffff817d21c0 0x00000000017d21c0 (4)
            store   0xffffffff817d21c0 0x00000000017d21c0 (4)
0e1c2000 ffffffff81074229 (02) 19c9                     SBB ECX, ECX
0e1c2000 ffffffff8107422b (02) 31c0                     XOR EAX, EAX
0e1c2000 ffffffff8107422d (02) 85c9                     TEST ECX, ECX
0e1c2000 ffffffff8107422f (02) 75 31                    JNZ 0xffffffff81074262
0e1c2000 ffffffff81074231 (04) 48 8d42 08               LEA RAX, [RDX+0x8]
0e1c2000 ffffffff81074235 (04) 48 3942 08               CMP [RDX+0x8], RAX
            load    0xffffffff817d21c8 0x00000000017d21c8 (8)
0e1c2000 ffffffff81074239 (02) 75 29                    JNZ 0xffffffff81074264
0e1c2000 ffffffff8107423b (04) 44 8b4e 20               MOV R9D, [RSI+0x20]
            load    0xffff88000f4027e0 0x000000000f4027e0 (4)
0e1c2000 ffffffff8107423f (03) 45 85c9                  TEST R9D, R9D
0e1c2000 ffffffff81074242 (02) 75 24                    JNZ 0xffffffff81074268
0e1c2000 ffffffff81074244 (03) 48 63ff                  MOVSXD RDI, EDI
0e1c2000 ffffffff81074247 (03) 48 8b06                  MOV RAX, [RSI]
            load    0xffff88000f4027c0 0x000000000f4027c0 (8)
0e1c2000 ffffffff8107424a (03) 48 89d6                  MOV RSI, RDX
0e1c2000 ffffffff8107424d (08) 48 0304fd 20ea8181       ADD RAX, [RDI*8-0x7e7e15e0]
            load    0xffffffff8181ea20 0x000000000181ea20 (8)
0e1c2000 ffffffff81074255 (03) 48 89c7                  MOV RDI, RAX
0e1c2000 ffffffff81074258 (05) e8 33ffffff              CALL 0xffffffff81074190
            store   0xffff8800019eecb0 0x00000000019eecb0 (8)
0e1c2000 ffffffff81074190 (01) 55                       PUSH RBP
            store   0xffff8800019eeca8 0x00000000019eeca8 (8)
0e1c2000 ffffffff81074191 (03) 48 89e5                  MOV RBP, RSP
0e1c2000 ffffffff81074194 (04) 48 83ec 20               SUB RSP, 0x20
0e1c2000 ffffffff81074198 (04) 48 895d e8               MOV [RBP-0x18], RBX
            store   0xffff8800019eec90 0x00000000019eec90 (8)
0e1c2000 ffffffff8107419c (03) 48 89fb                  MOV RBX, RDI
0e1c2000 ffffffff8107419f (04) 4c 8965 f0               MOV [RBP-0x10], R12
            store   0xffff8800019eec98 0x00000000019eec98 (8)
0e1c2000 ffffffff810741a3 (04) 4c 896d f8               MOV [RBP-0x8], R13
            store   0xffff8800019eeca0 0x00000000019eeca0 (8)
0e1c2000 ffffffff810741a7 (03) 49 89f5                  MOV R13, RSI
0e1c2000 ffffffff810741aa (05) e8 91574b00              CALL 0xffffffff81529940
            store   0xffff8800019eec80 0x00000000019eec80 (8)
0e1c2000 ffffffff81529940 (01) 55                       PUSH RBP
            store   0xffff8800019eec78 0x00000000019eec78 (8)
0e1c2000 ffffffff81529941 (03) 48 89e5                  MOV RBP, RSP
0e1c2000 ffffffff81529944 (04) 48 83ec 10               SUB RSP, 0x10
0e1c2000 ffffffff81529948 (04) 48 891c24                MOV [RSP], RBX
            store   0xffff8800019eec68 0x00000000019eec68 (8)
0e1c2000 ffffffff8152994c (05) 4c 896424 08             MOV [RSP+0x8], R12
            store   0xffff8800019eec70 0x00000000019eec70 (8)
0e1c2000 ffffffff81529951 (01) 9c                       PUSHF 
            store   0xffff8800019eec60 0x00000000019eec60 (8)
0e1c2000 ffffffff81529952 (01) 58                       POP RAX
            load    0xffff8800019eec60 0x00000000019eec60 (8)
0e1c2000 ffffffff81529953 (01) 66                       DB 0x66 
0e1c2000 ffffffff81529954 (01) 66                       DB 0x66 
0e1c2000 ffffffff81529954 (02) 66 90                    NOP 
0e1c2000 ffffffff81529956 (01) 66                       DB 0x66 
0e1c2000 ffffffff81529956 (02) 66 90                    NOP 
0e1c2000 ffffffff81529958 (03) 48 89c3                  MOV RBX, RAX
0e1c2000 ffffffff8152995b (01) fa                       CLI 
0e1c2000 ffffffff8152995c (01) 66                       DB 0x66 
0e1c2000 ffffffff8152995d (01) 66                       DB 0x66 
0e1c2000 ffffffff8152995d (02) 66 90                    NOP 
0e1c2000 ffffffff8152995f (01) 66                       DB 0x66 
0e1c2000 ffffffff81529960 (01) 66                       DB 0x66 
0e1c2000 ffffffff81529960 (02) 66 90                    NOP 
0e1c2000 ffffffff81529962 (03) 48 89de                  MOV RSI, RBX
0e1c2000 ffffffff81529965 (05) e8 a6cab0ff              CALL 0xffffffff81036410
            store   0xffff8800019eec60 0x00000000019eec60 (8)
0e1c2000 ffffffff81036410 (01) 55                       PUSH RBP
            store   0xffff8800019eec58 0x00000000019eec58 (8)
0e1c2000 ffffffff81036411 (03) 48 89e5                  MOV RBP, RSP
0e1c2000 ffffffff81036414 (05) e8 67ffffff              CALL 0xffffffff81036380
            store   0xffff8800019eec50 0x00000000019eec50 (8)
0e1c2000 ffffffff81036380 (01) 55                       PUSH RBP
            store   0xffff8800019eec48 0x00000000019eec48 (8)
0e1c2000 ffffffff81036381 (05) b8 00010000              MOV EAX, 0x100
0e1c2000 ffffffff81036386 (03) 48 89e5                  MOV RBP, RSP
0e1c2000 ffffffff81036389 (01) 3e                       DB 0x3e 
0e1c2000 ffffffff81036389 (05) 3e 66 0fc107             XADD [RDI], AX
            load    0xffff880001a03300 0x0000000001a03300 (2)
            store   0xffff880001a03300 0x0000000001a03300 (2)
0e1c2000 ffffffff8103638e (02) 38e0                     CMP AL, AH
0e1c2000 ffffffff81036390 (02) 74 06                    JZ 0xffffffff81036398
0e1c2000 ffffffff81036398 (01) c9                       LEAVE 
            load    0xffff8800019eec48 0x00000000019eec48 (8)
0e1c2000 ffffffff81036399 (01) c3                       RET 
            load    0xffff8800019eec50 0x00000000019eec50 (8)
0e1c2000 ffffffff81036419 (01) 66                       DB 0x66 
0e1c2000 ffffffff81036419 (02) 66 90                    NOP 
0e1c2000 ffffffff8103641b (01) c9                       LEAVE 
            load    0xffff8800019eec58 0x00000000019eec58 (8)
0e1c2000 ffffffff8103641c (01) c3                       RET 
            load    0xffff8800019eec60 0x00000000019eec60 (8)
0e1c2000 ffffffff8152996a (01) 66                       DB 0x66 
0e1c2000 ffffffff8152996a (02) 66 90                    NOP 
0e1c2000 ffffffff8152996c (03) 48 89d8                  MOV RAX, RBX
0e1c2000 ffffffff8152996f (05) 4c 8b6424 08             MOV R12, [RSP+0x8]
            load    0xffff8800019eec70 0x00000000019eec70 (8)
0e1c2000 ffffffff81529974 (04) 48 8b1c24                MOV RBX, [RSP]
            load    0xffff8800019eec68 0x00000000019eec68 (8)
0e1c2000 ffffffff81529978 (01) c9                       LEAVE 
            load    0xffff8800019eec78 0x00000000019eec78 (8)
0e1c2000 ffffffff81529979 (01) c3                       RET 
            load    0xffff8800019eec80 0x00000000019eec80 (8)
0e1c2000 ffffffff810741af (04) 48 8d53 08               LEA RDX, [RBX+0x8]
0e1c2000 ffffffff810741b3 (03) 49 89c4                  MOV R12, RAX
0e1c2000 ffffffff810741b6 (03) 4c 89ee                  MOV RSI, R13
0e1c2000 ffffffff810741b9 (03) 48 89df                  MOV RDI, RBX
0e1c2000 ffffffff810741bc (05) e8 4ffbffff              CALL 0xffffffff81073d10
            store   0xffff8800019eec80 0x00000000019eec80 (8)
0e1c2000 ffffffff81073d10 (01) 55                       PUSH RBP
            store   0xffff8800019eec78 0x00000000019eec78 (8)
0e1c2000 ffffffff81073d11 (03) 48 89e5                  MOV RBP, RSP
0e1c2000 ffffffff81073d14 (04) 48 83ec 30               SUB RSP, 0x30
0e1c2000 ffffffff81073d18 (04) 4c 8975 f8               MOV [RBP-0x8], R14
            store   0xffff8800019eec70 0x00000000019eec70 (8)
0e1c2000 ffffffff81073d1c (07) 44 8b35 25647a00         MOV R14D, [RIP+0x7a6425]
            load    0xffffffff8181a148 0x000000000181a148 (4)
0e1c2000 ffffffff81073d23 (04) 48 895d e0               MOV [RBP-0x20], RBX
            store   0xffff8800019eec58 0x00000000019eec58 (8)
0e1c2000 ffffffff81073d27 (04) 4c 8965 e8               MOV [RBP-0x18], R12
            store   0xffff8800019eec60 0x00000000019eec60 (8)
0e1c2000 ffffffff81073d2b (03) 48 89f3                  MOV RBX, RSI
0e1c2000 ffffffff81073d2e (04) 4c 896d f0               MOV [RBP-0x10], R13
            store   0xffff8800019eec68 0x00000000019eec68 (8)
0e1c2000 ffffffff81073d32 (03) 49 89fc                  MOV R12, RDI
0e1c2000 ffffffff81073d35 (04) 4c 8b6f 40               MOV R13, [RDI+0x40]
            load    0xffff880001a03340 0x0000000001a03340 (8)
0e1c2000 ffffffff81073d39 (03) 45 85f6                  TEST R14D, R14D
0e1c2000 ffffffff81073d3c (02) 75 56                    JNZ 0xffffffff81073d94
0e1c2000 ffffffff81073d3e (03) 48 8b03                  MOV RAX, [RBX]
            load    0xffffffff817d21c0 0x00000000017d21c0 (8)
0e1c2000 ffffffff81073d41 (02) a8 01                    TEST AL, 0x1
0e1c2000 ffffffff81073d43 (02) 74 7f                    JZ 0xffffffff81073dc4
0e1c2000 ffffffff81073d45 (03) 48 8b03                  MOV RAX, [RBX]
            load    0xffffffff817d21c0 0x00000000017d21c0 (8)
0e1c2000 ffffffff81073d48 (03) 83e0 03                  AND EAX, 0x3
0e1c2000 ffffffff81073d4b (03) 4c 09e0                  OR RAX, R12
0e1c2000 ffffffff81073d4e (04) 48 83c8 01               OR RAX, 0x1
0e1c2000 ffffffff81073d52 (03) 48 8903                  MOV [RBX], RAX
            store   0xffffffff817d21c0 0x00000000017d21c0 (8)
0e1c2000 ffffffff81073d55 (04) 48 8b42 08               MOV RAX, [RDX+0x8]
            load    0xffff880001a03310 0x0000000001a03310 (8)
0e1c2000 ffffffff81073d59 (04) 48 8d4b 08               LEA RCX, [RBX+0x8]
0e1c2000 ffffffff81073d5d (05) 49 8d7c24 18             LEA RDI, [R12+0x18]
0e1c2000 ffffffff81073d62 (05) be 03000000              MOV ESI, 0x3
0e1c2000 ffffffff81073d67 (04) 48 894a 08               MOV [RDX+0x8], RCX
            store   0xffff880001a03310 0x0000000001a03310 (8)
0e1c2000 ffffffff81073d6b (04) 48 8953 08               MOV [RBX+0x8], RDX
            store   0xffffffff817d21c8 0x00000000017d21c8 (8)
0e1c2000 ffffffff81073d6f (05) ba 01000000              MOV EDX, 0x1
0e1c2000 ffffffff81073d74 (04) 48 8943 10               MOV [RBX+0x10], RAX
            store   0xffffffff817d21d0 0x00000000017d21d0 (8)
0e1c2000 ffffffff81073d78 (03) 48 8908                  MOV [RAX], RCX
            store   0xffff880001a03308 0x0000000001a03308 (8)
0e1c2000 ffffffff81073d7b (02) 31c9                     XOR ECX, ECX
0e1c2000 ffffffff81073d7d (05) e8 ae6afdff              CALL 0xffffffff8104a830
            store   0xffff8800019eec40 0x00000000019eec40 (8)
0e1c2000 ffffffff8104a830 (01) 55                       PUSH RBP
            store   0xffff8800019eec38 0x00000000019eec38 (8)
0e1c2000 ffffffff8104a831 (03) 48 89e5                  MOV RBP, RSP
0e1c2000 ffffffff8104a834 (04) 48 83ec 30               SUB RSP, 0x30
0e1c2000 ffffffff8104a838 (04) 48 895d d8               MOV [RBP-0x28], RBX
            store   0xffff8800019eec10 0x00000000019eec10 (8)
0e1c2000 ffffffff8104a83c (04) 4c 896d e8               MOV [RBP-0x18], R13
            store   0xffff8800019eec20 0x00000000019eec20 (8)
0e1c2000 ffffffff8104a840 (03) 48 89fb                  MOV RBX, RDI
0e1c2000 ffffffff8104a843 (04) 4c 8975 f0               MOV [RBP-0x10], R14
            store   0xffff8800019eec28 0x00000000019eec28 (8)
0e1c2000 ffffffff8104a847 (04) 4c 897d f8               MOV [RBP-0x8], R15
            store   0xffff8800019eec30 0x00000000019eec30 (8)
0e1c2000 ffffffff8104a84b (03) 41 89f5                  MOV R13D, ESI
0e1c2000 ffffffff8104a84e (03) 49 89cf                  MOV R15, RCX
0e1c2000 ffffffff8104a851 (03) 41 89d6                  MOV R14D, EDX
0e1c2000 ffffffff8104a854 (04) 4c 8965 e0               MOV [RBP-0x20], R12
            store   0xffff8800019eec18 0x00000000019eec18 (8)
0e1c2000 ffffffff8104a858 (05) e8 e3f04d00              CALL 0xffffffff81529940
            store   0xffff8800019eec00 0x00000000019eec00 (8)
0e1c2000 ffffffff81529940 (01) 55                       PUSH RBP
            store   0xffff8800019eebf8 0x00000000019eebf8 (8)
0e1c2000 ffffffff81529941 (03) 48 89e5                  MOV RBP, RSP
0e1c2000 ffffffff81529944 (04) 48 83ec 10               SUB RSP, 0x10
0e1c2000 ffffffff81529948 (04) 48 891c24                MOV [RSP], RBX
            store   0xffff8800019eebe8 0x00000000019eebe8 (8)
0e1c2000 ffffffff8152994c (05) 4c 896424 08             MOV [RSP+0x8], R12
            store   0xffff8800019eebf0 0x00000000019eebf0 (8)
0e1c2000 ffffffff81529951 (01) 9c                       PUSHF 
            store   0xffff8800019eebe0 0x00000000019eebe0 (8)
0e1c2000 ffffffff81529952 (01) 58                       POP RAX
            load    0xffff8800019eebe0 0x00000000019eebe0 (8)
0e1c2000 ffffffff81529953 (01) 66                       DB 0x66 
0e1c2000 ffffffff81529954 (01) 66                       DB 0x66 
0e1c2000 ffffffff81529954 (02) 66 90                    NOP 
0e1c2000 ffffffff81529956 (01) 66                       DB 0x66 
0e1c2000 ffffffff81529956 (02) 66 90                    NOP 
0e1c2000 ffffffff81529958 (03) 48 89c3                  MOV RBX, RAX
0e1c2000 ffffffff8152995b (01) fa                       CLI 
0e1c2000 ffffffff8152995c (01) 66                       DB 0x66 
0e1c2000 ffffffff8152995d (01) 66                       DB 0x66 
0e1c2000 ffffffff8152995d (02) 66 90                    NOP 
0e1c2000 ffffffff8152995f (01) 66                       DB 0x66 
0e1c2000 ffffffff81529960 (01) 66                       DB 0x66 
0e1c2000 ffffffff81529960 (02) 66 90                    NOP 
0e1c2000 ffffffff81529962 (03) 48 89de                  MOV RSI, RBX
0e1c2000 ffffffff81529965 (05) e8 a6cab0ff              CALL 0xffffffff81036410
            store   0xffff8800019eebe0 0x00000000019eebe0 (8)
0e1c2000 ffffffff81036410 (01) 55                       PUSH RBP
            store   0xffff8800019eebd8 0x00000000019eebd8 (8)
0e1c2000 ffffffff81036411 (03) 48 89e5                  MOV RBP, RSP
0e1c2000 ffffffff81036414 (05) e8 67ffffff              CALL 0xffffffff81036380
            store   0xffff8800019eebd0 0x00000000019eebd0 (8)
0e1c2000 ffffffff81036380 (01) 55                       PUSH RBP
            store   0xffff8800019eebc8 0x00000000019eebc8 (8)
0e1c2000 ffffffff81036381 (05) b8 00010000              MOV EAX, 0x100
0e1c2000 ffffffff81036386 (03) 48 89e5                  MOV RBP, RSP
0e1c2000 ffffffff81036389 (01) 3e                       DB 0x3e 
0e1c2000 ffffffff81036389 (05) 3e 66 0fc107             XADD [RDI], AX
            load    0xffff880001a03318 0x0000000001a03318 (2)
            store   0xffff880001a03318 0x0000000001a03318 (2)
0e1c2000 ffffffff8103638e (02) 38e0                     CMP AL, AH
0e1c2000 ffffffff81036390 (02) 74 06                    JZ 0xffffffff81036398
0e1c2000 ffffffff81036398 (01) c9                       LEAVE 
            load    0xffff8800019eebc8 0x00000000019eebc8 (8)
0e1c2000 ffffffff81036399 (01) c3                       RET 
            load    0xffff8800019eebd0 0x00000000019eebd0 (8)
0e1c2000 ffffffff81036419 (01) 66                       DB 0x66 
0e1c2000 ffffffff81036419 (02) 66 90                    NOP 
0e1c2000 ffffffff8103641b (01) c9                       LEAVE 
            load    0xffff8800019eebd8 0x00000000019eebd8 (8)
0e1c2000 ffffffff8103641c (01) c3                       RET 
            load    0xffff8800019eebe0 0x00000000019eebe0 (8)
0e1c2000 ffffffff8152996a (01) 66                       DB 0x66 
0e1c2000 ffffffff8152996a (02) 66 90                    NOP 
0e1c2000 ffffffff8152996c (03) 48 89d8                  MOV RAX, RBX
0e1c2000 ffffffff8152996f (05) 4c 8b6424 08             MOV R12, [RSP+0x8]
            load    0xffff8800019eebf0 0x00000000019eebf0 (8)
0e1c2000 ffffffff81529974 (04) 48 8b1c24                MOV RBX, [RSP]
            load    0xffff8800019eebe8 0x00000000019eebe8 (8)
0e1c2000 ffffffff81529978 (01) c9                       LEAVE 
            load    0xffff8800019eebf8 0x00000000019eebf8 (8)
0e1c2000 ffffffff81529979 (01) c3                       RET 
            load    0xffff8800019eec00 0x00000000019eec00 (8)
0e1c2000 ffffffff8104a85d (03) 4d 89f8                  MOV R8, R15
0e1c2000 ffffffff8104a860 (03) 49 89c4                  MOV R12, RAX
0e1c2000 ffffffff8104a863 (03) 44 89f2                  MOV EDX, R14D
0e1c2000 ffffffff8104a866 (03) 44 89ee                  MOV ESI, R13D
0e1c2000 ffffffff8104a869 (03) 48 89df                  MOV RDI, RBX
0e1c2000 ffffffff8104a86c (02) 31c9                     XOR ECX, ECX
0e1c2000 ffffffff8104a86e (05) e8 3db4ffff              CALL 0xffffffff81045cb0
            store   0xffff8800019eec00 0x00000000019eec00 (8)
0e1c2000 ffffffff81045cb0 (01) 55                       PUSH RBP
            store   0xffff8800019eebf8 0x00000000019eebf8 (8)
0e1c2000 ffffffff81045cb1 (03) 48 89e5                  MOV RBP, RSP
0e1c2000 ffffffff81045cb4 (02) 41 57                    PUSH R15
            store   0xffff8800019eebf0 0x00000000019eebf0 (8)
0e1c2000 ffffffff81045cb6 (03) 41 89cf                  MOV R15D, ECX
0e1c2000 ffffffff81045cb9 (02) 41 56                    PUSH R14
            store   0xffff8800019eebe8 0x00000000019eebe8 (8)
0e1c2000 ffffffff81045cbb (03) 4d 89c6                  MOV R14, R8
0e1c2000 ffffffff81045cbe (02) 41 55                    PUSH R13
            store   0xffff8800019eebe0 0x00000000019eebe0 (8)
0e1c2000 ffffffff81045cc0 (04) 4c 8d6f 08               LEA R13, [RDI+0x8]
0e1c2000 ffffffff81045cc4 (02) 41 54                    PUSH R12
            store   0xffff8800019eebd8 0x00000000019eebd8 (8)
0e1c2000 ffffffff81045cc6 (01) 53                       PUSH RBX
            store   0xffff8800019eebd0 0x00000000019eebd0 (8)
0e1c2000 ffffffff81045cc7 (04) 48 83ec 18               SUB RSP, 0x18
0e1c2000 ffffffff81045ccb (03) 8975 cc                  MOV [RBP-0x34], ESI
            store   0xffff8800019eebc4 0x00000000019eebc4 (4)
0e1c2000 ffffffff81045cce (03) 8955 c8                  MOV [RBP-0x38], EDX
            store   0xffff8800019eebc0 0x00000000019eebc0 (4)
0e1c2000 ffffffff81045cd1 (04) 48 8b57 08               MOV RDX, [RDI+0x8]
            load    0xffff880001a03320 0x0000000001a03320 (8)
0e1c2000 ffffffff81045cd5 (04) 48 8d42 e8               LEA RAX, [RDX-0x18]
0e1c2000 ffffffff81045cd9 (03) 49 39d5                  CMP R13, RDX
0e1c2000 ffffffff81045cdc (04) 48 8b58 18               MOV RBX, [RAX+0x18]
            load    0xffff88000f4b7ea8 0x000000000f4b7ea8 (8)
0e1c2000 ffffffff81045ce0 (02) 74 44                    JZ 0xffffffff81045d26
0e1c2000 ffffffff81045ce2 (04) 48 83eb 18               SUB RBX, 0x18
0e1c2000 ffffffff81045ce6 (02) eb 0f                    JMP 0xffffffff81045cf7
0e1c2000 ffffffff81045cf7 (03) 44 8b20                  MOV R12D, [RAX]
            load    0xffff88000f4b7e90 0x000000000f4b7e90 (4)
0e1c2000 ffffffff81045cfa (03) 4c 89f1                  MOV RCX, R14
0e1c2000 ffffffff81045cfd (03) 44 89fa                  MOV EDX, R15D
0e1c2000 ffffffff81045d00 (03) 8b75 cc                  MOV ESI, [RBP-0x34]
            load    0xffff8800019eebc4 0x00000000019eebc4 (4)
0e1c2000 ffffffff81045d03 (03) 48 89c7                  MOV RDI, RAX
0e1c2000 ffffffff81045d06 (03) ff50 10                  CALL [RAX+0x10]
            load    0xffff88000f4b7ea0 0x000000000f4b7ea0 (8)
            store   0xffff8800019eebb0 0x00000000019eebb0 (8)
0e1c2000 ffffffff81078b30 (01) 55                       PUSH RBP
            store   0xffff8800019eeba8 0x00000000019eeba8 (8)
0e1c2000 ffffffff81078b31 (03) 48 89e5                  MOV RBP, RSP
0e1c2000 ffffffff81078b34 (01) 53                       PUSH RBX
            store   0xffff8800019eeba0 0x00000000019eeba0 (8)
0e1c2000 ffffffff81078b35 (03) 48 89fb                  MOV RBX, RDI
0e1c2000 ffffffff81078b38 (04) 48 83ec 08               SUB RSP, 0x8
0e1c2000 ffffffff81078b3c (05) e8 1fb2fdff              CALL 0xffffffff81053d60
            store   0xffff8800019eeb90 0x00000000019eeb90 (8)
0e1c2000 ffffffff81053d60 (01) 55                       PUSH RBP
            store   0xffff8800019eeb88 0x00000000019eeb88 (8)
0e1c2000 ffffffff81053d61 (04) 48 8b7f 08               MOV RDI, [RDI+0x8]
            load    0xffff88000f4b7e98 0x000000000f4b7e98 (8)
0e1c2000 ffffffff81053d65 (03) 48 89e5                  MOV RBP, RSP
0e1c2000 ffffffff81053d68 (05) e8 b3fcffff              CALL 0xffffffff81053a20
            store   0xffff8800019eeb80 0x00000000019eeb80 (8)
0e1c2000 ffffffff81053a20 (01) 55                       PUSH RBP
            store   0xffff8800019eeb78 0x00000000019eeb78 (8)
0e1c2000 ffffffff81053a21 (03) 48 89e5                  MOV RBP, RSP
0e1c2000 ffffffff81053a24 (02) 41 57                    PUSH R15
            store   0xffff8800019eeb70 0x00000000019eeb70 (8)
0e1c2000 ffffffff81053a26 (02) 41 56                    PUSH R14
            store   0xffff8800019eeb68 0x00000000019eeb68 (8)
0e1c2000 ffffffff81053a28 (03) 41 89f6                  MOV R14D, ESI
0e1c2000 ffffffff81053a2b (02) 41 55                    PUSH R13
            store   0xffff8800019eeb60 0x00000000019eeb60 (8)
0e1c2000 ffffffff81053a2d (03) 41 89d5                  MOV R13D, EDX
0e1c2000 ffffffff81053a30 (05) ba 00000000              MOV EDX, 0x0
0e1c2000 ffffffff81053a35 (02) 41 54                    PUSH R12
            store   0xffff8800019eeb58 0x00000000019eeb58 (8)
0e1c2000 ffffffff81053a37 (01) 53                       PUSH RBX
            store   0xffff8800019eeb50 0x00000000019eeb50 (8)
0e1c2000 ffffffff81053a38 (03) 48 89fb                  MOV RBX, RDI
0e1c2000 ffffffff81053a3b (04) 48 83ec 28               SUB RSP, 0x28
0e1c2000 ffffffff81053a3f (06) 8b05 5bb57c00            MOV EAX, [RIP+0x7cb55b]
            load    0xffffffff8181efa0 0x000000000181efa0 (4)
0e1c2000 ffffffff81053a45 (02) 84c0                     TEST AL, AL
0e1c2000 ffffffff81053a47 (04) 44 0f49ea                CMOVNS R13D, EDX
0e1c2000 ffffffff81053a4b (03) f6c4 10                  TEST AH, 0x10
0e1c2000 ffffffff81053a4e (02) 74 5a                    JZ 0xffffffff81053aaa
0e1c2000 ffffffff81053a50 (11) 48 813d 6da58b00 c8df9081 CMP QWORD [RIP+0x8ba56d], -0x7e6f2038
            load    0xffffffff8190dfc8 0x000000000190dfc8 (8)
0e1c2000 ffffffff81053a5b (02) 74 4d                    JZ 0xffffffff81053aaa
0e1c2000 ffffffff81053aaa (04) 4c 8d7d c8               LEA R15, [RBP-0x38]
0e1c2000 ffffffff81053aae (03) 48 89df                  MOV RDI, RBX
0e1c2000 ffffffff81053ab1 (03) 45 89f6                  MOV R14D, R14D
0e1c2000 ffffffff81053ab4 (03) 4c 89fe                  MOV RSI, R15
0e1c2000 ffffffff81053ab7 (05) e8 e46effff              CALL 0xffffffff8104a9a0
            store   0xffff8800019eeb20 0x00000000019eeb20 (8)
0e1c2000 ffffffff8104a9a0 (01) 55                       PUSH RBP
            store   0xffff8800019eeb18 0x00000000019eeb18 (8)
0e1c2000 ffffffff8104a9a1 (03) 48 89e5                  MOV RBP, RSP
0e1c2000 ffffffff8104a9a4 (04) 48 83ec 20               SUB RSP, 0x20
0e1c2000 ffffffff8104a9a8 (05) 4c 896424 08             MOV [RSP+0x8], R12
            store   0xffff8800019eeb00 0x00000000019eeb00 (8)
0e1c2000 ffffffff8104a9ad (05) 4c 896c24 10             MOV [RSP+0x10], R13
            store   0xffff8800019eeb08 0x00000000019eeb08 (8)
0e1c2000 ffffffff8104a9b2 (03) 49 89fc                  MOV R12, RDI
0e1c2000 ffffffff8104a9b5 (05) 4c 897424 18             MOV [RSP+0x18], R14
            store   0xffff8800019eeb10 0x00000000019eeb10 (8)
0e1c2000 ffffffff8104a9ba (03) 49 89f5                  MOV R13, RSI
0e1c2000 ffffffff8104a9bd (04) 48 891c24                MOV [RSP], RBX
            store   0xffff8800019eeaf8 0x00000000019eeaf8 (8)
0e1c2000 ffffffff8104a9c1 (07) 48 c7c3 80580100         MOV RBX, 0x15880
0e1c2000 ffffffff8104a9c8 (01) 9c                       PUSHF 
            store   0xffff8800019eeaf0 0x00000000019eeaf0 (8)
0e1c2000 ffffffff8104a9c9 (01) 58                       POP RAX
            load    0xffff8800019eeaf0 0x00000000019eeaf0 (8)
0e1c2000 ffffffff8104a9ca (01) 66                       DB 0x66 
0e1c2000 ffffffff8104a9cb (01) 66                       DB 0x66 
0e1c2000 ffffffff8104a9cb (02) 66 90                    NOP 
0e1c2000 ffffffff8104a9cd (01) 66                       DB 0x66 
0e1c2000 ffffffff8104a9cd (02) 66 90                    NOP 
0e1c2000 ffffffff8104a9cf (03) 48 89c2                  MOV RDX, RAX
0e1c2000 ffffffff8104a9d2 (01) fa                       CLI 
0e1c2000 ffffffff8104a9d3 (01) 66                       DB 0x66 
0e1c2000 ffffffff8104a9d4 (01) 66                       DB 0x66 
0e1c2000 ffffffff8104a9d4 (02) 66 90                    NOP 
0e1c2000 ffffffff8104a9d6 (01) 66                       DB 0x66 
0e1c2000 ffffffff8104a9d7 (01) 66                       DB 0x66 
0e1c2000 ffffffff8104a9d7 (02) 66 90                    NOP 
0e1c2000 ffffffff8104a9d9 (04) 49 8955 00               MOV [R13+0x0], RDX
            store   0xffff8800019eeb40 0x00000000019eeb40 (8)
0e1c2000 ffffffff8104a9dd (05) 49 8b4424 08             MOV RAX, [R12+0x8]
            load    0xffff88000f4b8008 0x000000000f4b8008 (8)
0e1c2000 ffffffff8104a9e2 (03) 49 89de                  MOV R14, RBX
0e1c2000 ffffffff8104a9e5 (03) 8b40 18                  MOV EAX, [RAX+0x18]
            load    0xffff88000f4b6018 0x000000000f4b6018 (4)
0e1c2000 ffffffff8104a9e8 (08) 4c 0334c5 20ea8181       ADD R14, [RAX*8-0x7e7e15e0]
            load    0xffffffff8181ea20 0x000000000181ea20 (8)
0e1c2000 ffffffff8104a9f0 (03) 4c 89f7                  MOV RDI, R14
0e1c2000 ffffffff8104a9f3 (05) e8 48f04d00              CALL 0xffffffff81529a40
            store   0xffff8800019eeaf0 0x00000000019eeaf0 (8)
0e1c2000 ffffffff81529a40 (01) 55                       PUSH RBP
            store   0xffff8800019eeae8 0x00000000019eeae8 (8)
0e1c2000 ffffffff81529a41 (03) 48 89e5                  MOV RBP, RSP
0e1c2000 ffffffff81529a44 (05) e8 37c9b0ff              CALL 0xffffffff81036380
            store   0xffff8800019eeae0 0x00000000019eeae0 (8)
0e1c2000 ffffffff81036380 (01) 55                       PUSH RBP
            store   0xffff8800019eead8 0x00000000019eead8 (8)
0e1c2000 ffffffff81036381 (05) b8 00010000              MOV EAX, 0x100
0e1c2000 ffffffff81036386 (03) 48 89e5                  MOV RBP, RSP
0e1c2000 ffffffff81036389 (01) 3e                       DB 0x3e 
0e1c2000 ffffffff81036389 (05) 3e 66 0fc107             XADD [RDI], AX
            load    0xffff880001a00880 0x0000000001a00880 (2)
            store   0xffff880001a00880 0x0000000001a00880 (2)
0e1c2000 ffffffff8103638e (02) 38e0                     CMP AL, AH
0e1c2000 ffffffff81036390 (02) 74 06                    JZ 0xffffffff81036398
0e1c2000 ffffffff81036398 (01) c9                       LEAVE 
            load    0xffff8800019eead8 0x00000000019eead8 (8)
0e1c2000 ffffffff81036399 (01) c3                       RET 
            load    0xffff8800019eeae0 0x00000000019eeae0 (8)
0e1c2000 ffffffff81529a49 (01) 66                       DB 0x66 
0e1c2000 ffffffff81529a49 (02) 66 90                    NOP 
0e1c2000 ffffffff81529a4b (01) c9                       LEAVE 
            load    0xffff8800019eeae8 0x00000000019eeae8 (8)
0e1c2000 ffffffff81529a4c (01) c3                       RET 
            load    0xffff8800019eeaf0 0x00000000019eeaf0 (8)
0e1c2000 ffffffff8104a9f8 (05) 49 8b4424 08             MOV RAX, [R12+0x8]
            load    0xffff88000f4b8008 0x000000000f4b8008 (8)
0e1c2000 ffffffff8104a9fd (03) 8b40 18                  MOV EAX, [RAX+0x18]
            load    0xffff88000f4b6018 0x000000000f4b6018 (4)
0e1c2000 ffffffff8104aa00 (08) 48 8b14c5 20ea8181       MOV RDX, [RAX*8-0x7e7e15e0]
            load    0xffffffff8181ea20 0x000000000181ea20 (8)
0e1c2000 ffffffff8104aa08 (04) 48 8d0413                LEA RAX, [RBX+RDX]
0e1c2000 ffffffff8104aa0c (03) 49 39c6                  CMP R14, RAX
0e1c2000 ffffffff8104aa0f (02) 75 18                    JNZ 0xffffffff8104aa29
0e1c2000 ffffffff8104aa11 (03) 4c 89f0                  MOV RAX, R14
0e1c2000 ffffffff8104aa14 (04) 48 8b1c24                MOV RBX, [RSP]
            load    0xffff8800019eeaf8 0x00000000019eeaf8 (8)
0e1c2000 ffffffff8104aa18 (05) 4c 8b6424 08             MOV R12, [RSP+0x8]
            load    0xffff8800019eeb00 0x00000000019eeb00 (8)
0e1c2000 ffffffff8104aa1d (05) 4c 8b6c24 10             MOV R13, [RSP+0x10]
            load    0xffff8800019eeb08 0x00000000019eeb08 (8)
0e1c2000 ffffffff8104aa22 (05) 4c 8b7424 18             MOV R14, [RSP+0x18]
            load    0xffff8800019eeb10 0x00000000019eeb10 (8)
0e1c2000 ffffffff8104aa27 (01) c9                       LEAVE 
            load    0xffff8800019eeb18 0x00000000019eeb18 (8)
0e1c2000 ffffffff8104aa28 (01) c3                       RET 
            load    0xffff8800019eeb20 0x00000000019eeb20 (8)
0e1c2000 ffffffff81053abc (06) 8bb8 7c080000            MOV EDI, [RAX+0x87c]
            load    0xffff880001a010fc 0x0000000001a010fc (4)
0e1c2000 ffffffff81053ac2 (03) 49 89c4                  MOV R12, RAX
0e1c2000 ffffffff81053ac5 (05) e8 46ac0200              CALL 0xffffffff8107e710
            store   0xffff8800019eeb20 0x00000000019eeb20 (8)
0e1c2000 ffffffff8107e710 (01) 55                       PUSH RBP
            store   0xffff8800019eeb18 0x00000000019eeb18 (8)
0e1c2000 ffffffff8107e711 (03) 48 89e5                  MOV RBP, RSP
0e1c2000 ffffffff8107e714 (04) 48 83ec 20               SUB RSP, 0x20
0e1c2000 ffffffff8107e718 (06) 8b15 8e097a00            MOV EDX, [RIP+0x7a098e]
            load    0xffffffff8181f0ac 0x000000000181f0ac (4)
0e1c2000 ffffffff8107e71e (05) 4c 897424 18             MOV [RSP+0x18], R14
            store   0xffff8800019eeb10 0x00000000019eeb10 (8)
0e1c2000 ffffffff8107e723 (04) 48 891c24                MOV [RSP], RBX
            store   0xffff8800019eeaf8 0x00000000019eeaf8 (8)
0e1c2000 ffffffff8107e727 (03) 41 89fe                  MOV R14D, EDI
0e1c2000 ffffffff8107e72a (05) 4c 896424 08             MOV [RSP+0x8], R12
            store   0xffff8800019eeb00 0x00000000019eeb00 (8)
0e1c2000 ffffffff8107e72f (05) 4c 896c24 10             MOV [RSP+0x10], R13
            store   0xffff8800019eeb08 0x00000000019eeb08 (8)
0e1c2000 ffffffff8107e734 (02) 85d2                     TEST EDX, EDX
0e1c2000 ffffffff8107e736 (06) 0f85 f4000000            JNZ 0xffffffff8107e830
0e1c2000 ffffffff8107e73c (03) 48 63c7                  MOVSXD RAX, EDI
0e1c2000 ffffffff8107e73f (07) 49 c7c5 40620100         MOV R13, 0x16240
0e1c2000 ffffffff8107e746 (03) 4c 89eb                  MOV RBX, R13
0e1c2000 ffffffff8107e749 (08) 48 031cc5 20ea8181       ADD RBX, [RAX*8-0x7e7e15e0]
            load    0xffffffff8181ea20 0x000000000181ea20 (8)
0e1c2000 ffffffff8107e751 (09) 65 48 8b0425 88cb0000    MOV RAX, GS:[0xcb88]
            load    0xffff8800019f7b88 0x00000000019f7b88 (8)
0e1c2000 ffffffff8107e75a (07) f680 47e0ffff 04         TEST BYTE [RAX-0x1fb9], 0x4
            load    0xffffffff8177201f 0x000000000177201f (1)
0e1c2000 ffffffff8107e761 (06) 0f85 f9000000            JNZ 0xffffffff8107e860
0e1c2000 ffffffff8107e767 (06) 8b05 3b097a00            MOV EAX, [RIP+0x7a093b]
            load    0xffffffff8181f0a8 0x000000000181f0a8 (4)
0e1c2000 ffffffff8107e76d (02) 85c0                     TEST EAX, EAX
0e1c2000 ffffffff8107e76f (06) 0f84 1e010000            JZ 0xffffffff8107e893
0e1c2000 ffffffff8107e775 (01) 9c                       PUSHF 
            store   0xffff8800019eeaf0 0x00000000019eeaf0 (8)
0e1c2000 ffffffff8107e776 (01) 58                       POP RAX
            load    0xffff8800019eeaf0 0x00000000019eeaf0 (8)
0e1c2000 ffffffff8107e777 (01) 66                       DB 0x66 
0e1c2000 ffffffff8107e778 (01) 66                       DB 0x66 
0e1c2000 ffffffff8107e778 (02) 66 90                    NOP 
0e1c2000 ffffffff8107e77a (01) 66                       DB 0x66 
0e1c2000 ffffffff8107e77a (02) 66 90                    NOP 
0e1c2000 ffffffff8107e77c (03) f6c4 02                  TEST AH, 0x2
0e1c2000 ffffffff8107e77f (06) 0f85 e1000000            JNZ 0xffffffff8107e866
0e1c2000 ffffffff8107e785 (05) e8 06a4f9ff              CALL 0xffffffff81018b90
            store   0xffff8800019eeaf0 0x00000000019eeaf0 (8)
0e1c2000 ffffffff81018b90 (01) 55                       PUSH RBP
            store   0xffff8800019eeae8 0x00000000019eeae8 (8)
0e1c2000 ffffffff81018b91 (03) 48 89e5                  MOV RBP, RSP
0e1c2000 ffffffff81018b94 (05) e8 57090000              CALL 0xffffffff810194f0
            store   0xffff8800019eeae0 0x00000000019eeae0 (8)
0e1c2000 ffffffff810194f0 (01) 55                       PUSH RBP
            store   0xffff8800019eead8 0x00000000019eead8 (8)
0e1c2000 ffffffff810194f1 (07) 44 8b15 b4528000         MOV R10D, [RIP+0x8052b4]
            load    0xffffffff8181e7ac 0x000000000181e7ac (4)
0e1c2000 ffffffff810194f8 (03) 48 89e5                  MOV RBP, RSP
0e1c2000 ffffffff810194fb (03) 45 85d2                  TEST R10D, R10D
0e1c2000 ffffffff810194fe (02) 75 37                    JNZ 0xffffffff81019537
0e1c2000 ffffffff81019500 (05) e8 bb000000              CALL 0xffffffff810195c0
            store   0xffff8800019eead0 0x00000000019eead0 (8)
0e1c2000 ffffffff810195c0 (01) 55                       PUSH RBP
            store   0xffff8800019eeac8 0x00000000019eeac8 (8)
0e1c2000 ffffffff810195c1 (03) 48 89e5                  MOV RBP, RSP
0e1c2000 ffffffff810195c4 (02) 0f31                     RDTSC 
0e1c2000 ffffffff810195c6 (02) 89c1                     MOV ECX, EAX
0e1c2000 ffffffff810195c8 (03) 48 89d0                  MOV RAX, RDX
0e1c2000 ffffffff810195cb (04) 48 c1e0 20               SHL RAX, 0x20
0e1c2000 ffffffff810195cf (02) 89c9                     MOV ECX, ECX
0e1c2000 ffffffff810195d1 (03) 48 09c8                  OR RAX, RCX
0e1c2000 ffffffff810195d4 (01) c9                       LEAVE 
            load    0xffff8800019eeac8 0x00000000019eeac8 (8)
0e1c2000 ffffffff810195d5 (01) c3                       RET 
            load    0xffff8800019eead0 0x00000000019eead0 (8)
0e1c2000 ffffffff81019505 (01) 66                       DB 0x66 
0e1c2000 ffffffff81019505 (02) 66 90                    NOP 
0e1c2000 ffffffff81019507 (08) 65 8b0c25 68e30000       MOV ECX, GS:[0xe368]
            load    0xffff8800019f9368 0x00000000019f9368 (4)
0e1c2000 ffffffff8101950f (03) 48 63c9                  MOVSXD RCX, ECX
0e1c2000 ffffffff81019512 (07) 48 c7c2 40cb0000         MOV RDX, 0xcb40
0e1c2000 ffffffff81019519 (08) 48 8b34cd 20ea8181       MOV RSI, [RCX*8-0x7e7e15e0]
            load    0xffffffff8181ea20 0x000000000181ea20 (8)
0e1c2000 ffffffff81019521 (07) 48 c7c1 38cb0000         MOV RCX, 0xcb38
0e1c2000 ffffffff81019528 (05) 48 0faf040e              IMUL RAX, [RSI+RCX]
            load    0xffff8800019f7b38 0x00000000019f7b38 (8)
0e1c2000 ffffffff8101952d (04) 48 c1e8 0a               SHR RAX, 0xa
0e1c2000 ffffffff81019531 (04) 48 030416                ADD RAX, [RSI+RDX]
            load    0xffff8800019f7b40 0x00000000019f7b40 (8)
0e1c2000 ffffffff81019535 (01) c9                       LEAVE 
            load    0xffff8800019eead8 0x00000000019eead8 (8)
0e1c2000 ffffffff81019536 (01) c3                       RET 
            load    0xffff8800019eeae0 0x00000000019eeae0 (8)
0e1c2000 ffffffff81018b99 (01) 66                       DB 0x66 
0e1c2000 ffffffff81018b99 (02) 66 90                    NOP 
0e1c2000 ffffffff81018b9b (01) c9                       LEAVE 
            load    0xffff8800019eeae8 0x00000000019eeae8 (8)
0e1c2000 ffffffff81018b9c (01) c3                       RET 
            load    0xffff8800019eeaf0 0x00000000019eeaf0 (8)
0e1c2000 ffffffff8107e78a (03) 49 89c4                  MOV R12, RAX
0e1c2000 ffffffff8107e78d (08) 65 8b0425 68e30000       MOV EAX, GS:[0xe368]
            load    0xffff8800019f9368 0x00000000019f9368 (4)
0e1c2000 ffffffff8107e795 (03) 41 39c6                  CMP R14D, EAX
0e1c2000 ffffffff8107e798 (06) 0f84 a2000000            JZ 0xffffffff8107e840
0e1c2000 ffffffff8107e840 (03) 48 89df                  MOV RDI, RBX
0e1c2000 ffffffff8107e843 (05) e8 387bfbff              CALL 0xffffffff81036380
            store   0xffff8800019eeaf0 0x00000000019eeaf0 (8)
0e1c2000 ffffffff81036380 (01) 55                       PUSH RBP
            store   0xffff8800019eeae8 0x00000000019eeae8 (8)
0e1c2000 ffffffff81036381 (05) b8 00010000              MOV EAX, 0x100
0e1c2000 ffffffff81036386 (03) 48 89e5                  MOV RBP, RSP
0e1c2000 ffffffff81036389 (01) 3e                       DB 0x3e 
0e1c2000 ffffffff81036389 (05) 3e 66 0fc107             XADD [RDI], AX
            load    0xffff880001a01240 0x0000000001a01240 (2)
            store   0xffff880001a01240 0x0000000001a01240 (2)
0e1c2000 ffffffff8103638e (02) 38e0                     CMP AL, AH
0e1c2000 ffffffff81036390 (02) 74 06                    JZ 0xffffffff81036398
0e1c2000 ffffffff81036398 (01) c9                       LEAVE 
            load    0xffff8800019eeae8 0x00000000019eeae8 (8)
0e1c2000 ffffffff81036399 (01) c3                       RET 
            load    0xffff8800019eeaf0 0x00000000019eeaf0 (8)
0e1c2000 ffffffff8107e848 (01) 66                       DB 0x66 
0e1c2000 ffffffff8107e848 (02) 66 90                    NOP 
0e1c2000 ffffffff8107e84a (03) 4c 89e6                  MOV RSI, R12
0e1c2000 ffffffff8107e84d (03) 48 89df                  MOV RDI, RBX
0e1c2000 ffffffff8107e850 (05) e8 5bfeffff              CALL 0xffffffff8107e6b0
            store   0xffff8800019eeaf0 0x00000000019eeaf0 (8)
0e1c2000 ffffffff8107e6b0 (02) 31c0                     XOR EAX, EAX
0e1c2000 ffffffff8107e6b2 (04) 48 2b77 08               SUB RSI, [RDI+0x8]
            load    0xffff880001a01248 0x0000000001a01248 (8)
0e1c2000 ffffffff8107e6b6 (04) 48 8b57 10               MOV RDX, [RDI+0x10]
            load    0xffff880001a01250 0x0000000001a01250 (8)
0e1c2000 ffffffff8107e6ba (04) 48 8b4f 18               MOV RCX, [RDI+0x18]
            load    0xffff880001a01258 0x0000000001a01258 (8)
0e1c2000 ffffffff8107e6be (01) 55                       PUSH RBP
            store   0xffff8800019eeae8 0x00000000019eeae8 (8)
0e1c2000 ffffffff8107e6bf (03) 48 89e5                  MOV RBP, RSP
0e1c2000 ffffffff8107e6c2 (04) 48 0f49c6                CMOVNS RAX, RSI
0e1c2000 ffffffff8107e6c6 (03) 48 89d6                  MOV RSI, RDX
0e1c2000 ffffffff8107e6c9 (03) 49 89c8                  MOV R8, RCX
0e1c2000 ffffffff8107e6cc (03) 48 29ce                  SUB RSI, RCX
0e1c2000 ffffffff8107e6cf (03) 48 01d0                  ADD RAX, RDX
0e1c2000 ffffffff8107e6d2 (03) 48 85f6                  TEST RSI, RSI
0e1c2000 ffffffff8107e6d5 (03) 48 89ce                  MOV RSI, RCX
0e1c2000 ffffffff8107e6d8 (04) 48 0f4ff2                CMOVG RSI, RDX
0e1c2000 ffffffff8107e6dc (07) 48 81c2 80969800         ADD RDX, 0x989680
0e1c2000 ffffffff8107e6e3 (03) 49 29d0                  SUB R8, RDX
0e1c2000 ffffffff8107e6e6 (03) 4d 85c0                  TEST R8, R8
0e1c2000 ffffffff8107e6e9 (04) 48 0f4fd1                CMOVG RDX, RCX
0e1c2000 ffffffff8107e6ed (03) 48 89c1                  MOV RCX, RAX
0e1c2000 ffffffff8107e6f0 (03) 48 29f1                  SUB RCX, RSI
0e1c2000 ffffffff8107e6f3 (03) 48 85c9                  TEST RCX, RCX
0e1c2000 ffffffff8107e6f6 (04) 48 0f4ec6                CMOVLE RAX, RSI
0e1c2000 ffffffff8107e6fa (03) 48 39d0                  CMP RAX, RDX
0e1c2000 ffffffff8107e6fd (04) 48 0f49c2                CMOVNS RAX, RDX
0e1c2000 ffffffff8107e701 (04) 48 8947 18               MOV [RDI+0x18], RAX
            store   0xffff880001a01258 0x0000000001a01258 (8)
0e1c2000 ffffffff8107e705 (01) c9                       LEAVE 
            load    0xffff8800019eeae8 0x00000000019eeae8 (8)
0e1c2000 ffffffff8107e706 (01) c3                       RET 
            load    0xffff8800019eeaf0 0x00000000019eeaf0 (8)
0e1c2000 ffffffff8107e855 (03) 49 89c4                  MOV R12, RAX
0e1c2000 ffffffff8107e858 (02) eb 93                    JMP 0xffffffff8107e7ed
0e1c2000 ffffffff8107e7ed (03) 48 89df                  MOV RDI, RBX
0e1c2000 ffffffff8107e7f0 (05) e8 cb7bfbff              CALL 0xffffffff810363c0
            store   0xffff8800019eeaf0 0x00000000019eeaf0 (8)
0e1c2000 ffffffff810363c0 (01) 55                       PUSH RBP
            store   0xffff8800019eeae8 0x00000000019eeae8 (8)
0e1c2000 ffffffff810363c1 (03) 48 89e5                  MOV RBP, RSP
0e1c2000 ffffffff810363c4 (02) fe07                     INC BYTE [RDI]
            load    0xffff880001a01240 0x0000000001a01240 (1)
            store   0xffff880001a01240 0x0000000001a01240 (1)
0e1c2000 ffffffff810363c6 (01) c9                       LEAVE 
            load    0xffff8800019eeae8 0x00000000019eeae8 (8)
0e1c2000 ffffffff810363c7 (01) c3                       RET 
            load    0xffff8800019eeaf0 0x00000000019eeaf0 (8)
0e1c2000 ffffffff8107e7f5 (01) 66                       DB 0x66 
0e1c2000 ffffffff8107e7f5 (02) 66 90                    NOP 
0e1c2000 ffffffff8107e7f7 (03) 4c 89e0                  MOV RAX, R12
0e1c2000 ffffffff8107e7fa (04) 48 8b1c24                MOV RBX, [RSP]
            load    0xffff8800019eeaf8 0x00000000019eeaf8 (8)
0e1c2000 ffffffff8107e7fe (05) 4c 8b6424 08             MOV R12, [RSP+0x8]
            load    0xffff8800019eeb00 0x00000000019eeb00 (8)
0e1c2000 ffffffff8107e803 (05) 4c 8b6c24 10             MOV R13, [RSP+0x10]
            load    0xffff8800019eeb08 0x00000000019eeb08 (8)
0e1c2000 ffffffff8107e808 (05) 4c 8b7424 18             MOV R14, [RSP+0x18]
            load    0xffff8800019eeb10 0x00000000019eeb10 (8)
0e1c2000 ffffffff8107e80d (01) c9                       LEAVE 
            load    0xffff8800019eeb18 0x00000000019eeb18 (8)
0e1c2000 ffffffff8107e80e (01) c3                       RET 
            load    0xffff8800019eeb20 0x00000000019eeb20 (8)
0e1c2000 ffffffff81053aca (08) 49 898424 50080000       MOV [R12+0x850], RAX
            store   0xffff880001a010d0 0x0000000001a010d0 (8)
0e1c2000 ffffffff81053ad2 (03) 48 8b03                  MOV RAX, [RBX]
            load    0xffff88000f4b8000 0x000000000f4b8000 (8)
0e1c2000 ffffffff81053ad5 (03) 49 85c6                  TEST R14, RAX
0e1c2000 ffffffff81053ad8 (06) 0f84 02020000            JZ 0xffffffff81053ce0
0e1c2000 ffffffff81053ade (03) 8b43 70                  MOV EAX, [RBX+0x70]
            load    0xffff88000f4b8070 0x000000000f4b8070 (4)
0e1c2000 ffffffff81053ae1 (02) 85c0                     TEST EAX, EAX
0e1c2000 ffffffff81053ae3 (02) 74 6b                    JZ 0xffffffff81053b50
0e1c2000 ffffffff81053b50 (04) 48 8b43 08               MOV RAX, [RBX+0x8]
            load    0xffff88000f4b8008 0x000000000f4b8008 (8)
0e1c2000 ffffffff81053b54 (03) 8b40 18                  MOV EAX, [RAX+0x18]
            load    0xffff88000f4b6018 0x000000000f4b6018 (4)
0e1c2000 ffffffff81053b57 (03) 8945 bc                  MOV [RBP-0x44], EAX
            store   0xffff8800019eeb34 0x00000000019eeb34 (4)
0e1c2000 ffffffff81053b5a (08) 65 8b0425 68e30000       MOV EAX, GS:[0xe368]
            load    0xffff8800019f9368 0x00000000019f9368 (4)
0e1c2000 ffffffff81053b62 (03) 8945 b8                  MOV [RBP-0x48], EAX
            store   0xffff8800019eeb30 0x00000000019eeb30 (4)
0e1c2000 ffffffff81053b65 (08) 49 3b9c24 30080000       CMP RBX, [R12+0x830]
            load    0xffff880001a010b0 0x0000000001a010b0 (8)
0e1c2000 ffffffff81053b6d (06) 0f84 d7010000            JZ 0xffffffff81053d4a
0e1c2000 ffffffff81053b73 (04) 48 8b43 30               MOV RAX, [RBX+0x30]
            load    0xffff88000f4b8030 0x000000000f4b8030 (8)
0e1c2000 ffffffff81053b77 (03) 48 89df                  MOV RDI, RBX
0e1c2000 ffffffff81053b7a (03) 44 89ee                  MOV ESI, R13D
0e1c2000 ffffffff81053b7d (03) ff50 38                  CALL [RAX+0x38]
            load    0xffffffff81540c78 0x0000000001540c78 (8)
            store   0xffff8800019eeb20 0x00000000019eeb20 (8)
0e1c2000 ffffffff8104aef0 (01) 55                       PUSH RBP
            store   0xffff8800019eeb18 0x00000000019eeb18 (8)
0e1c2000 ffffffff8104aef1 (03) 41 89f1                  MOV R9D, ESI
0e1c2000 ffffffff8104aef4 (03) 48 89e5                  MOV RBP, RSP
0e1c2000 ffffffff8104aef7 (02) 41 57                    PUSH R15
            store   0xffff8800019eeb10 0x00000000019eeb10 (8)
0e1c2000 ffffffff8104aef9 (02) 41 56                    PUSH R14
            store   0xffff8800019eeb08 0x00000000019eeb08 (8)
0e1c2000 ffffffff8104aefb (02) 41 55                    PUSH R13
            store   0xffff8800019eeb00 0x00000000019eeb00 (8)
0e1c2000 ffffffff8104aefd (03) 49 89fd                  MOV R13, RDI
0e1c2000 ffffffff8104af00 (02) 41 54                    PUSH R12
            store   0xffff8800019eeaf8 0x00000000019eeaf8 (8)
0e1c2000 ffffffff8104af02 (01) 53                       PUSH RBX
            store   0xffff8800019eeaf0 0x00000000019eeaf0 (8)
0e1c2000 ffffffff8104af03 (04) 48 83ec 38               SUB RSP, 0x38
0e1c2000 ffffffff8104af07 (04) 48 8b47 08               MOV RAX, [RDI+0x8]
            load    0xffff88000f4b8008 0x000000000f4b8008 (8)
0e1c2000 ffffffff8104af0b (07) 48 c7c7 80580100         MOV RDI, 0x15880
0e1c2000 ffffffff8104af12 (09) 65 44 8b3425 68e30000    MOV R14D, GS:[0xe368]
            load    0xffff8800019f9368 0x00000000019f9368 (4)
0e1c2000 ffffffff8104af1b (03) 48 89fa                  MOV RDX, RDI
0e1c2000 ffffffff8104af1e (03) 8b58 18                  MOV EBX, [RAX+0x18]
            load    0xffff88000f4b6018 0x000000000f4b6018 (4)
0e1c2000 ffffffff8104af21 (03) 49 63c6                  MOVSXD RAX, R14D
0e1c2000 ffffffff8104af24 (08) 48 8b0cc5 20ea8181       MOV RCX, [RAX*8-0x7e7e15e0]
            load    0xffffffff8181ea20 0x000000000181ea20 (8)
0e1c2000 ffffffff8104af2c (03) 44 39f3                  CMP EBX, R14D
0e1c2000 ffffffff8104af2f (06) 0f84 ea000000            JZ 0xffffffff8104b01f
0e1c2000 ffffffff8104b01f (03) 4c 89ee                  MOV RSI, R13
0e1c2000 ffffffff8104b022 (02) 89df                     MOV EDI, EBX
0e1c2000 ffffffff8104b024 (05) e8 67fcffff              CALL 0xffffffff8104ac90
            store   0xffff8800019eeab0 0x00000000019eeab0 (8)
0e1c2000 ffffffff8104ac90 (01) 55                       PUSH RBP
            store   0xffff8800019eeaa8 0x00000000019eeaa8 (8)
0e1c2000 ffffffff8104ac91 (07) 48 c7c0 80580100         MOV RAX, 0x15880
0e1c2000 ffffffff8104ac98 (03) 48 89c1                  MOV RCX, RAX
0e1c2000 ffffffff8104ac9b (03) 48 89e5                  MOV RBP, RSP
0e1c2000 ffffffff8104ac9e (02) 41 57                    PUSH R15
            store   0xffff8800019eeaa0 0x00000000019eeaa0 (8)
0e1c2000 ffffffff8104aca0 (02) 41 56                    PUSH R14
            store   0xffff8800019eea98 0x00000000019eea98 (8)
0e1c2000 ffffffff8104aca2 (02) 41 55                    PUSH R13
            store   0xffff8800019eea90 0x00000000019eea90 (8)
0e1c2000 ffffffff8104aca4 (02) 41 54                    PUSH R12
            store   0xffff8800019eea88 0x00000000019eea88 (8)
0e1c2000 ffffffff8104aca6 (01) 53                       PUSH RBX
            store   0xffff8800019eea80 0x00000000019eea80 (8)
0e1c2000 ffffffff8104aca7 (04) 48 83ec 28               SUB RSP, 0x28
0e1c2000 ffffffff8104acab (03) 897d c4                  MOV [RBP-0x3c], EDI
            store   0xffff8800019eea6c 0x00000000019eea6c (4)
0e1c2000 ffffffff8104acae (04) 48 8975 c8               MOV [RBP-0x38], RSI
            store   0xffff8800019eea70 0x00000000019eea70 (8)
0e1c2000 ffffffff8104acb2 (08) 65 8b1425 68e30000       MOV EDX, GS:[0xe368]
            load    0xffff8800019f9368 0x00000000019f9368 (4)
0e1c2000 ffffffff8104acba (03) 48 63d2                  MOVSXD RDX, EDX
0e1c2000 ffffffff8104acbd (07) 833d c0318c00 01         CMP DWORD [RIP+0x8c31c0], 0x1
            load    0xffffffff8190de84 0x000000000190de84 (4)
0e1c2000 ffffffff8104acc4 (08) 48 8b1cd5 20ea8181       MOV RBX, [RDX*8-0x7e7e15e0]
            load    0xffffffff8181ea20 0x000000000181ea20 (8)
0e1c2000 ffffffff8104accc (08) 48 8b940b 60080000       MOV RDX, [RBX+RCX+0x860]
            load    0xffff880001a010e0 0x0000000001a010e0 (8)
0e1c2000 ffffffff8104acd4 (06) 8bb2 98070000            MOV ESI, [RDX+0x798]
            load    0xffff88000f405798 0x000000000f405798 (4)
0e1c2000 ffffffff8104acda (06) 0f8e 78010000            JLE 0xffffffff8104ae58
0e1c2000 ffffffff8104ae58 (04) 48 6355 c4               MOVSXD RDX, [RBP-0x3c]
            load    0xffff8800019eea6c 0x00000000019eea6c (4)
0e1c2000 ffffffff8104ae5c (08) 48 8b14d5 20ea8181       MOV RDX, [RDX*8-0x7e7e15e0]
            load    0xffffffff8181ea20 0x000000000181ea20 (8)
0e1c2000 ffffffff8104ae64 (05) e9 98feffff              JMP 0xffffffff8104ad01
0e1c2000 ffffffff8104ad01 (08) 48 8bbc02 38080000       MOV RDI, [RDX+RAX+0x838]
            load    0xffff880001a010b8 0x0000000001a010b8 (8)
0e1c2000 ffffffff8104ad09 (08) 48 39bc02 30080000       CMP [RDX+RAX+0x830], RDI
            load    0xffff880001a010b0 0x0000000001a010b0 (8)
0e1c2000 ffffffff8104ad11 (02) 74 0b                    JZ 0xffffffff8104ad1e
0e1c2000 ffffffff8104ad1e (03) 8b4d c4                  MOV ECX, [RBP-0x3c]
            load    0xffff8800019eea6c 0x00000000019eea6c (4)
0e1c2000 ffffffff8104ad21 (04) 48 83c4 28               ADD RSP, 0x28
0e1c2000 ffffffff8104ad25 (02) 89c8                     MOV EAX, ECX
0e1c2000 ffffffff8104ad27 (01) 5b                       POP RBX
            load    0xffff8800019eea80 0x00000000019eea80 (8)
0e1c2000 ffffffff8104ad28 (02) 41 5c                    POP R12
            load    0xffff8800019eea88 0x00000000019eea88 (8)
0e1c2000 ffffffff8104ad2a (02) 41 5d                    POP R13
            load    0xffff8800019eea90 0x00000000019eea90 (8)
0e1c2000 ffffffff8104ad2c (02) 41 5e                    POP R14
            load    0xffff8800019eea98 0x00000000019eea98 (8)
0e1c2000 ffffffff8104ad2e (02) 41 5f                    POP R15
            load    0xffff8800019eeaa0 0x00000000019eeaa0 (8)
0e1c2000 ffffffff8104ad30 (01) c9                       LEAVE 
            load    0xffff8800019eeaa8 0x00000000019eeaa8 (8)
0e1c2000 ffffffff8104ad31 (01) c3                       RET 
            load    0xffff8800019eeab0 0x00000000019eeab0 (8)
0e1c2000 ffffffff8104b029 (04) 48 83c4 38               ADD RSP, 0x38
0e1c2000 ffffffff8104b02d (01) 5b                       POP RBX
            load    0xffff8800019eeaf0 0x00000000019eeaf0 (8)
0e1c2000 ffffffff8104b02e (02) 41 5c                    POP R12
            load    0xffff8800019eeaf8 0x00000000019eeaf8 (8)
0e1c2000 ffffffff8104b030 (02) 41 5d                    POP R13
            load    0xffff8800019eeb00 0x00000000019eeb00 (8)
0e1c2000 ffffffff8104b032 (02) 41 5e                    POP R14
            load    0xffff8800019eeb08 0x00000000019eeb08 (8)
0e1c2000 ffffffff8104b034 (02) 41 5f                    POP R15
            load    0xffff8800019eeb10 0x00000000019eeb10 (8)
0e1c2000 ffffffff8104b036 (01) c9                       LEAVE 
            load    0xffff8800019eeb18 0x00000000019eeb18 (8)
0e1c2000 ffffffff8104b037 (01) c3                       RET 
            load    0xffff8800019eeb20 0x00000000019eeb20 (8)
0e1c2000 ffffffff81053b80 (03) 8b4d bc                  MOV ECX, [RBP-0x44]
            load    0xffff8800019eeb34 0x00000000019eeb34 (4)
0e1c2000 ffffffff81053b83 (03) 8b7d b8                  MOV EDI, [RBP-0x48]
            load    0xffff8800019eeb30 0x00000000019eeb30 (4)
0e1c2000 ffffffff81053b86 (02) 39c1                     CMP ECX, EAX
0e1c2000 ffffffff81053b88 (02) 74 4c                    JZ 0xffffffff81053bd6
0e1c2000 ffffffff81053bd6 (09) 41 838424 98090000 01    ADD DWORD [R12+0x998], 0x1
            load    0xffff880001a01218 0x0000000001a01218 (4)
            store   0xffff880001a01218 0x0000000001a01218 (4)
0e1c2000 ffffffff81053bdf (02) 39f9                     CMP ECX, EDI
0e1c2000 ffffffff81053be1 (06) 0f84 09010000            JZ 0xffffffff81053cf0
0e1c2000 ffffffff81053cf0 (09) 41 838424 9c090000 01    ADD DWORD [R12+0x99c], 0x1
            load    0xffff880001a0121c 0x0000000001a0121c (4)
            store   0xffff880001a0121c 0x0000000001a0121c (4)
0e1c2000 ffffffff81053cf9 (02) 89cf                     MOV EDI, ECX
0e1c2000 ffffffff81053cfb (05) e9 2cffffff              JMP 0xffffffff81053c2c
0e1c2000 ffffffff81053c2c (08) 48 8383 48010000 01      ADD QWORD [RBX+0x148], 0x1
            load    0xffff88000f4b8148 0x000000000f4b8148 (8)
            store   0xffff88000f4b8148 0x000000000f4b8148 (8)
0e1c2000 ffffffff81053c34 (03) 45 85ed                  TEST R13D, R13D
0e1c2000 ffffffff81053c37 (02) 74 08                    JZ 0xffffffff81053c41
0e1c2000 ffffffff81053c41 (03) 3b4d bc                  CMP ECX, [RBP-0x44]
            load    0xffff8800019eeb34 0x00000000019eeb34 (4)
0e1c2000 ffffffff81053c44 (02) 74 08                    JZ 0xffffffff81053c4e
0e1c2000 ffffffff81053c4e (02) 39f9                     CMP ECX, EDI
0e1c2000 ffffffff81053c50 (06) 0f84 aa000000            JZ 0xffffffff81053d00
0e1c2000 ffffffff81053d00 (08) 48 8383 60010000 01      ADD QWORD [RBX+0x160], 0x1
            load    0xffff88000f4b8160 0x000000000f4b8160 (8)
            store   0xffff88000f4b8160 0x000000000f4b8160 (8)
0e1c2000 ffffffff81053d08 (05) e9 51ffffff              JMP 0xffffffff81053c5e
0e1c2000 ffffffff81053c5e (05) ba 01000000              MOV EDX, 0x1
0e1c2000 ffffffff81053c63 (03) 48 89de                  MOV RSI, RBX
0e1c2000 ffffffff81053c66 (03) 4c 89e7                  MOV RDI, R12
0e1c2000 ffffffff81053c69 (05) e8 7218ffff              CALL 0xffffffff810454e0
            store   0xffff8800019eeb20 0x00000000019eeb20 (8)
0e1c2000 ffffffff810454e0 (01) 55                       PUSH RBP
            store   0xffff8800019eeb18 0x00000000019eeb18 (8)
0e1c2000 ffffffff810454e1 (03) 48 89e5                  MOV RBP, RSP
0e1c2000 ffffffff810454e4 (01) 53                       PUSH RBX
            store   0xffff8800019eeb10 0x00000000019eeb10 (8)
0e1c2000 ffffffff810454e5 (03) 48 89fb                  MOV RBX, RDI
0e1c2000 ffffffff810454e8 (04) 48 83ec 08               SUB RSP, 0x8
0e1c2000 ffffffff810454ec (03) 48 8b06                  MOV RAX, [RSI]
            load    0xffff88000f4b8000 0x000000000f4b8000 (8)
0e1c2000 ffffffff810454ef (02) a8 02                    TEST AL, 0x2
0e1c2000 ffffffff810454f1 (02) 74 0e                    JZ 0xffffffff81045501
0e1c2000 ffffffff81045501 (03) 48 89df                  MOV RDI, RBX
0e1c2000 ffffffff81045504 (05) e8 77feffff              CALL 0xffffffff81045380
            store   0xffff8800019eeb00 0x00000000019eeb00 (8)
0e1c2000 ffffffff81045380 (01) 55                       PUSH RBP
            store   0xffff8800019eeaf8 0x00000000019eeaf8 (8)
0e1c2000 ffffffff81045381 (03) 48 89e5                  MOV RBP, RSP
0e1c2000 ffffffff81045384 (01) 53                       PUSH RBX
            store   0xffff8800019eeaf0 0x00000000019eeaf0 (8)
0e1c2000 ffffffff81045385 (03) 48 89f3                  MOV RBX, RSI
0e1c2000 ffffffff81045388 (04) 48 83ec 08               SUB RSP, 0x8
0e1c2000 ffffffff8104538c (02) 85d2                     TEST EDX, EDX
0e1c2000 ffffffff8104538e (02) 74 0e                    JZ 0xffffffff8104539e
0e1c2000 ffffffff81045390 (07) 48 8b86 80000000         MOV RAX, [RSI+0x80]
            load    0xffff88000f4b8080 0x000000000f4b8080 (8)
0e1c2000 ffffffff81045397 (07) 48 8986 b0000000         MOV [RSI+0xb0], RAX
            store   0xffff88000f4b80b0 0x000000000f4b80b0 (8)
0e1c2000 ffffffff8104539e (08) 48 83bb 20020000 00      CMP QWORD [RBX+0x220], 0x0
            load    0xffff88000f4b8220 0x000000000f4b8220 (8)
0e1c2000 ffffffff810453a6 (02) 75 25                    JNZ 0xffffffff810453cd
0e1c2000 ffffffff810453a8 (04) 48 8b4b 08               MOV RCX, [RBX+0x8]
            load    0xffff88000f4b8008 0x000000000f4b8008 (8)
0e1c2000 ffffffff810453ac (07) 48 c7c0 80580100         MOV RAX, 0x15880
0e1c2000 ffffffff810453b3 (03) 8b49 18                  MOV ECX, [RCX+0x18]
            load    0xffff88000f4b6018 0x000000000f4b6018 (4)
0e1c2000 ffffffff810453b6 (08) 48 8b0ccd 20ea8181       MOV RCX, [RCX*8-0x7e7e15e0]
            load    0xffffffff8181ea20 0x000000000181ea20 (8)
0e1c2000 ffffffff810453be (08) 48 8b8408 50080000       MOV RAX, [RAX+RCX+0x850]
            load    0xffff880001a010d0 0x0000000001a010d0 (8)
0e1c2000 ffffffff810453c6 (07) 48 8983 20020000         MOV [RBX+0x220], RAX
            store   0xffff88000f4b8220 0x000000000f4b8220 (8)
0e1c2000 ffffffff810453cd (04) 48 8b43 30               MOV RAX, [RBX+0x30]
            load    0xffff88000f4b8030 0x000000000f4b8030 (8)
0e1c2000 ffffffff810453d1 (03) 48 89de                  MOV RSI, RBX
0e1c2000 ffffffff810453d4 (03) ff50 08                  CALL [RAX+0x8]
            load    0xffffffff81540c48 0x0000000001540c48 (8)
            store   0xffff8800019eeae0 0x00000000019eeae0 (8)
0e1c2000 ffffffff81055470 (01) 55                       PUSH RBP
            store   0xffff8800019eead8 0x00000000019eead8 (8)
0e1c2000 ffffffff81055471 (03) 48 89e5                  MOV RBP, RSP
0e1c2000 ffffffff81055474 (02) 41 54                    PUSH R12
            store   0xffff8800019eead0 0x00000000019eead0 (8)
0e1c2000 ffffffff81055476 (03) 49 89fc                  MOV R12, RDI
0e1c2000 ffffffff81055479 (01) 53                       PUSH RBX
            store   0xffff8800019eeac8 0x00000000019eeac8 (8)
0e1c2000 ffffffff8105547a (03) 48 89f3                  MOV RBX, RSI
0e1c2000 ffffffff8105547d (04) 48 83c3 38               ADD RBX, 0x38
0e1c2000 ffffffff81055481 (02) 74 36                    JZ 0xffffffff810554b9
0e1c2000 ffffffff81055483 (04) 44 8b4e 70               MOV R9D, [RSI+0x70]
            load    0xffff88000f4b8070 0x000000000f4b8070 (4)
0e1c2000 ffffffff81055487 (03) 45 85c9                  TEST R9D, R9D
0e1c2000 ffffffff8105548a (02) 74 12                    JZ 0xffffffff8105549e
0e1c2000 ffffffff8105549e (07) 48 8bbb 60010000         MOV RDI, [RBX+0x160]
            load    0xffff88000f4b8198 0x000000000f4b8198 (8)
0e1c2000 ffffffff810554a5 (03) 48 89de                  MOV RSI, RBX
0e1c2000 ffffffff810554a8 (05) e8 83feffff              CALL 0xffffffff81055330
            store   0xffff8800019eeac0 0x00000000019eeac0 (8)
0e1c2000 ffffffff81055330 (01) 55                       PUSH RBP
            store   0xffff8800019eeab8 0x00000000019eeab8 (8)
0e1c2000 ffffffff81055331 (03) 48 89e5                  MOV RBP, RSP
0e1c2000 ffffffff81055334 (04) 48 83ec 20               SUB RSP, 0x20
0e1c2000 ffffffff81055338 (04) 48 895d e8               MOV [RBP-0x18], RBX
            store   0xffff8800019eeaa0 0x00000000019eeaa0 (8)
0e1c2000 ffffffff8105533c (04) 4c 8965 f0               MOV [RBP-0x10], R12
            store   0xffff8800019eeaa8 0x00000000019eeaa8 (8)
0e1c2000 ffffffff81055340 (03) 48 89fb                  MOV RBX, RDI
0e1c2000 ffffffff81055343 (03) 49 89f4                  MOV R12, RSI
0e1c2000 ffffffff81055346 (04) 4c 896d f8               MOV [RBP-0x8], R13
            store   0xffff8800019eeab0 0x00000000019eeab0 (8)
0e1c2000 ffffffff8105534a (03) 41 89d5                  MOV R13D, EDX
0e1c2000 ffffffff8105534d (05) e8 3eccffff              CALL 0xffffffff81051f90
            store   0xffff8800019eea90 0x00000000019eea90 (8)
0e1c2000 ffffffff81051f90 (01) 55                       PUSH RBP
            store   0xffff8800019eea88 0x00000000019eea88 (8)
0e1c2000 ffffffff81051f91 (03) 48 89e5                  MOV RBP, RSP
0e1c2000 ffffffff81051f94 (04) 48 83ec 20               SUB RSP, 0x20
0e1c2000 ffffffff81051f98 (05) 4c 896424 08             MOV [RSP+0x8], R12
            store   0xffff8800019eea70 0x00000000019eea70 (8)
0e1c2000 ffffffff81051f9d (04) 48 891c24                MOV [RSP], RBX
            store   0xffff8800019eea68 0x00000000019eea68 (8)
0e1c2000 ffffffff81051fa1 (03) 49 89fc                  MOV R12, RDI
0e1c2000 ffffffff81051fa4 (05) 4c 896c24 10             MOV [RSP+0x10], R13
            store   0xffff8800019eea78 0x00000000019eea78 (8)
0e1c2000 ffffffff81051fa9 (05) 4c 897424 18             MOV [RSP+0x18], R14
            store   0xffff8800019eea80 0x00000000019eea80 (8)
0e1c2000 ffffffff81051fae (04) 48 8b5f 50               MOV RBX, [RDI+0x50]
            load    0xffff880001a00940 0x0000000001a00940 (8)
0e1c2000 ffffffff81051fb2 (04) 48 8b47 70               MOV RAX, [RDI+0x70]
            load    0xffff880001a00960 0x0000000001a00960 (8)
0e1c2000 ffffffff81051fb6 (03) 48 85db                  TEST RBX, RBX
0e1c2000 ffffffff81051fb9 (07) 4c 8bb0 50080000         MOV R14, [RAX+0x850]
            load    0xffff880001a010d0 0x0000000001a010d0 (8)
0e1c2000 ffffffff81051fc0 (02) 74 09                    JZ 0xffffffff81051fcb
0e1c2000 ffffffff81051fcb (04) 48 8b1c24                MOV RBX, [RSP]
            load    0xffff8800019eea68 0x00000000019eea68 (8)
0e1c2000 ffffffff81051fcf (05) 4c 8b6424 08             MOV R12, [RSP+0x8]
            load    0xffff8800019eea70 0x00000000019eea70 (8)
0e1c2000 ffffffff81051fd4 (05) 4c 8b6c24 10             MOV R13, [RSP+0x10]
            load    0xffff8800019eea78 0x00000000019eea78 (8)
0e1c2000 ffffffff81051fd9 (05) 4c 8b7424 18             MOV R14, [RSP+0x18]
            load    0xffff8800019eea80 0x00000000019eea80 (8)
0e1c2000 ffffffff81051fde (01) c9                       LEAVE 
            load    0xffff8800019eea88 0x00000000019eea88 (8)
0e1c2000 ffffffff81051fdf (01) c3                       RET 
            load    0xffff8800019eea90 0x00000000019eea90 (8)
0e1c2000 ffffffff81055352 (04) 49 8b0424                MOV RAX, [R12]
            load    0xffff88000f4b8038 0x000000000f4b8038 (8)
0e1c2000 ffffffff81055356 (03) 48 0103                  ADD [RBX], RAX
            load    0xffff880001a008f0 0x0000000001a008f0 (8)
            store   0xffff880001a008f0 0x0000000001a008f0 (8)
0e1c2000 ffffffff81055359 (08) 48 c743 08 00000000      MOV QWORD [RBX+0x8], 0x0
            store   0xffff880001a008f8 0x0000000001a008f8 (8)
0e1c2000 ffffffff81055361 (09) 49 83bc24 58010000 00    CMP QWORD [R12+0x158], 0x0
            load    0xffff88000f4b8190 0x000000000f4b8190 (8)
0e1c2000 ffffffff8105536a (06) 0f84 e0000000            JZ 0xffffffff81055450
0e1c2000 ffffffff81055450 (04) 48 8b43 70               MOV RAX, [RBX+0x70]
            load    0xffff880001a00960 0x0000000001a00960 (8)
0e1c2000 ffffffff81055454 (04) 49 8b1424                MOV RDX, [R12]
            load    0xffff88000f4b8038 0x000000000f4b8038 (8)
0e1c2000 ffffffff81055458 (08) 48 c740 50 00000000      MOV QWORD [RAX+0x50], 0x0
            store   0xffff880001a008d0 0x0000000001a008d0 (8)
0e1c2000 ffffffff81055460 (04) 48 0150 48               ADD [RAX+0x48], RDX
            load    0xffff880001a008c8 0x0000000001a008c8 (8)
            store   0xffff880001a008c8 0x0000000001a008c8 (8)
0e1c2000 ffffffff81055464 (05) e9 07ffffff              JMP 0xffffffff81055370
0e1c2000 ffffffff81055370 (09) 49 83bc24 68010000 00    CMP QWORD [R12+0x168], 0x0
            load    0xffff88000f4b81a0 0x000000000f4b81a0 (8)
0e1c2000 ffffffff81055379 (06) 0f84 99000000            JZ 0xffffffff81055418
0e1c2000 ffffffff81055418 (04) 48 8b53 38               MOV RDX, [RBX+0x38]
            load    0xffff880001a00928 0x0000000001a00928 (8)
0e1c2000 ffffffff8105541c (04) 49 8b0424                MOV RAX, [R12]
            load    0xffff88000f4b8038 0x000000000f4b8038 (8)
0e1c2000 ffffffff81055420 (07) 48 0183 90000000         ADD [RBX+0x90], RAX
            load    0xffff880001a00980 0x0000000001a00980 (8)
            store   0xffff880001a00980 0x0000000001a00980 (8)
0e1c2000 ffffffff81055427 (05) 49 8d4424 28             LEA RAX, [R12+0x28]
0e1c2000 ffffffff8105542c (04) 48 8942 08               MOV [RDX+0x8], RAX
            store   0xffff880001a00930 0x0000000001a00930 (8)
0e1c2000 ffffffff81055430 (05) 49 895424 28             MOV [R12+0x28], RDX
            store   0xffff88000f4b8060 0x000000000f4b8060 (8)
0e1c2000 ffffffff81055435 (04) 48 8d53 38               LEA RDX, [RBX+0x38]
0e1c2000 ffffffff81055439 (05) 49 895424 30             MOV [R12+0x30], RDX
            store   0xffff88000f4b8068 0x000000000f4b8068 (8)
0e1c2000 ffffffff8105543e (04) 48 8943 38               MOV [RBX+0x38], RAX
            store   0xffff880001a00928 0x0000000001a00928 (8)
0e1c2000 ffffffff81055442 (05) e9 38ffffff              JMP 0xffffffff8105537f
0e1c2000 ffffffff8105537f (05) 48 8343 10 01            ADD QWORD [RBX+0x10], 0x1
            load    0xffff880001a00900 0x0000000001a00900 (8)
            store   0xffff880001a00900 0x0000000001a00900 (8)
0e1c2000 ffffffff81055384 (03) 45 85ed                  TEST R13D, R13D
0e1c2000 ffffffff81055387 (09) 41 c74424 38 01000000    MOV DWORD [R12+0x38], 0x1
            store   0xffff88000f4b8070 0x000000000f4b8070 (4)
0e1c2000 ffffffff81055390 (02) 75 66                    JNZ 0xffffffff810553f8
0e1c2000 ffffffff810553f8 (03) 4c 89e6                  MOV RSI, R12
0e1c2000 ffffffff810553fb (03) 48 89df                  MOV RDI, RBX
0e1c2000 ffffffff810553fe (02) 31d2                     XOR EDX, EDX
0e1c2000 ffffffff81055400 (05) e8 1bfeffff              CALL 0xffffffff81055220
            store   0xffff8800019eea90 0x00000000019eea90 (8)
0e1c2000 ffffffff81055220 (01) 55                       PUSH RBP
            store   0xffff8800019eea88 0x00000000019eea88 (8)
0e1c2000 ffffffff81055221 (03) 48 89e5                  MOV RBP, RSP
0e1c2000 ffffffff81055224 (04) 48 83ec 10               SUB RSP, 0x10
0e1c2000 ffffffff81055228 (02) 85d2                     TEST EDX, EDX
0e1c2000 ffffffff8105522a (05) 4c 896424 08             MOV [RSP+0x8], R12
            store   0xffff8800019eea80 0x00000000019eea80 (8)
0e1c2000 ffffffff8105522f (04) 48 891c24                MOV [RSP], RBX
            store   0xffff8800019eea78 0x00000000019eea78 (8)
0e1c2000 ffffffff81055233 (03) 49 89f4                  MOV R12, RSI
0e1c2000 ffffffff81055236 (04) 48 8b5f 20               MOV RBX, [RDI+0x20]
            load    0xffff880001a00910 0x0000000001a00910 (8)
0e1c2000 ffffffff8105523a (02) 74 24                    JZ 0xffffffff81055260
0e1c2000 ffffffff81055260 (06) 8b15 3a9d7c00            MOV EDX, [RIP+0x7c9d3a]
            load    0xffffffff8181efa0 0x000000000181efa0 (4)
0e1c2000 ffffffff81055266 (03) f6c2 01                  TEST DL, 0x1
0e1c2000 ffffffff81055269 (02) 74 22                    JZ 0xffffffff8105528d
0e1c2000 ffffffff8105528d (05) 49 8b4424 50             MOV RAX, [R12+0x50]
            load    0xffff88000f4b8088 0x000000000f4b8088 (8)
0e1c2000 ffffffff81055292 (03) 48 89da                  MOV RDX, RBX
0e1c2000 ffffffff81055295 (03) 48 29c2                  SUB RDX, RAX
0e1c2000 ffffffff81055298 (03) 48 85d2                  TEST RDX, RDX
0e1c2000 ffffffff8105529b (04) 48 0f4fc3                CMOVG RAX, RBX
0e1c2000 ffffffff8105529f (02) eb a7                    JMP 0xffffffff81055248
0e1c2000 ffffffff81055248 (05) 49 894424 50             MOV [R12+0x50], RAX
            store   0xffff88000f4b8088 0x000000000f4b8088 (8)
0e1c2000 ffffffff8105524d (04) 48 8b1c24                MOV RBX, [RSP]
            load    0xffff8800019eea78 0x00000000019eea78 (8)
0e1c2000 ffffffff81055251 (05) 4c 8b6424 08             MOV R12, [RSP+0x8]
            load    0xffff8800019eea80 0x00000000019eea80 (8)
0e1c2000 ffffffff81055256 (01) c9                       LEAVE 
            load    0xffff8800019eea88 0x00000000019eea88 (8)
0e1c2000 ffffffff81055257 (01) c3                       RET 
            load    0xffff8800019eea90 0x00000000019eea90 (8)
0e1c2000 ffffffff81055405 (03) 4c 89e6                  MOV RSI, R12
0e1c2000 ffffffff81055408 (03) 48 89df                  MOV RDI, RBX
0e1c2000 ffffffff8105540b (05) e8 f073ffff              CALL 0xffffffff8104c800
            store   0xffff8800019eea90 0x00000000019eea90 (8)
0e1c2000 ffffffff8104c800 (01) 55                       PUSH RBP
            store   0xffff8800019eea88 0x00000000019eea88 (8)
0e1c2000 ffffffff8104c801 (04) 48 8d46 c8               LEA RAX, [RSI-0x38]
0e1c2000 ffffffff8104c805 (03) 48 89e5                  MOV RBP, RSP
0e1c2000 ffffffff8104c808 (04) 48 83ec 20               SUB RSP, 0x20
0e1c2000 ffffffff8104c80c (04) 48 891c24                MOV [RSP], RBX
            store   0xffff8800019eea68 0x00000000019eea68 (8)
0e1c2000 ffffffff8104c810 (05) 4c 896c24 10             MOV [RSP+0x10], R13
            store   0xffff8800019eea78 0x00000000019eea78 (8)
0e1c2000 ffffffff8104c815 (02) 31db                     XOR EBX, EBX
0e1c2000 ffffffff8104c817 (05) 4c 897424 18             MOV [RSP+0x18], R14
            store   0xffff8800019eea80 0x00000000019eea80 (8)
0e1c2000 ffffffff8104c81c (05) 4c 896424 08             MOV [RSP+0x8], R12
            store   0xffff8800019eea70 0x00000000019eea70 (8)
0e1c2000 ffffffff8104c821 (03) 49 89fe                  MOV R14, RDI
0e1c2000 ffffffff8104c824 (08) 48 83be 68010000 00      CMP QWORD [RSI+0x168], 0x0
            load    0xffff88000f4b81a0 0x000000000f4b81a0 (8)
0e1c2000 ffffffff8104c82c (03) 49 89f5                  MOV R13, RSI
0e1c2000 ffffffff8104c82f (04) 48 0f44d8                CMOVZ RBX, RAX
0e1c2000 ffffffff8104c833 (07) 48 8b86 a8000000         MOV RAX, [RSI+0xa8]
            load    0xffff88000f4b80e0 0x000000000f4b80e0 (8)
0e1c2000 ffffffff8104c83a (03) 48 85c0                  TEST RAX, RAX
0e1c2000 ffffffff8104c83d (02) 74 47                    JZ 0xffffffff8104c886
0e1c2000 ffffffff8104c83f (04) 48 8b57 70               MOV RDX, [RDI+0x70]
            load    0xffff880001a00960 0x0000000001a00960 (8)
0e1c2000 ffffffff8104c843 (07) 48 8bb2 50080000         MOV RSI, [RDX+0x850]
            load    0xffff880001a010d0 0x0000000001a010d0 (8)
0e1c2000 ffffffff8104c84a (03) 48 29c6                  SUB RSI, RAX
0e1c2000 ffffffff8104c84d (03) 48 89f0                  MOV RAX, RSI
0e1c2000 ffffffff8104c850 (06) 0f88 a2000000            JS 0xffffffff8104c8f8
0e1c2000 ffffffff8104c856 (07) 49 3bb5 b0000000         CMP RSI, [R13+0xb0]
            load    0xffff88000f4b80e8 0x000000000f4b80e8 (8)
0e1c2000 ffffffff8104c85d (06) 0f87 e6000000            JA 0xffffffff8104c949
0e1c2000 ffffffff8104c863 (07) 49 0185 b8000000         ADD [R13+0xb8], RAX
            load    0xffff88000f4b80f0 0x000000000f4b80f0 (8)
            store   0xffff88000f4b80f0 0x000000000f4b80f0 (8)
0e1c2000 ffffffff8104c86a (03) 48 85db                  TEST RBX, RBX
0e1c2000 ffffffff8104c86d (11) 49 c785 a8000000 00000000 MOV QWORD [R13+0xa8], 0x0
            store   0xffff88000f4b80e0 0x000000000f4b80e0 (8)
0e1c2000 ffffffff8104c878 (02) 74 0c                    JZ 0xffffffff8104c886
0e1c2000 ffffffff8104c87a (07) 44 8b15 1f509300         MOV R10D, [RIP+0x93501f]
            load    0xffffffff819818a0 0x00000000019818a0 (4)
0e1c2000 ffffffff8104c881 (03) 45 85d2                  TEST R10D, R10D
0e1c2000 ffffffff8104c884 (02) 75 79                    JNZ 0xffffffff8104c8ff
0e1c2000 ffffffff8104c886 (07) 49 8b85 c0000000         MOV RAX, [R13+0xc0]
            load    0xffff88000f4b80f8 0x000000000f4b80f8 (8)
0e1c2000 ffffffff8104c88d (03) 48 85c0                  TEST RAX, RAX
0e1c2000 ffffffff8104c890 (02) 74 49                    JZ 0xffffffff8104c8db
0e1c2000 ffffffff8104c8db (04) 48 8b1c24                MOV RBX, [RSP]
            load    0xffff8800019eea68 0x00000000019eea68 (8)
0e1c2000 ffffffff8104c8df (05) 4c 8b6424 08             MOV R12, [RSP+0x8]
            load    0xffff8800019eea70 0x00000000019eea70 (8)
0e1c2000 ffffffff8104c8e4 (05) 4c 8b6c24 10             MOV R13, [RSP+0x10]
            load    0xffff8800019eea78 0x00000000019eea78 (8)
0e1c2000 ffffffff8104c8e9 (05) 4c 8b7424 18             MOV R14, [RSP+0x18]
            load    0xffff8800019eea80 0x00000000019eea80 (8)
0e1c2000 ffffffff8104c8ee (01) c9                       LEAVE 
            load    0xffff8800019eea88 0x00000000019eea88 (8)
0e1c2000 ffffffff8104c8ef (01) c3                       RET 
            load    0xffff8800019eea90 0x00000000019eea90 (8)
0e1c2000 ffffffff81055410 (02) eb 80                    JMP 0xffffffff81055392
0e1c2000 ffffffff81055392 (04) 4c 3b63 50               CMP R12, [RBX+0x50]
            load    0xffff880001a00940 0x0000000001a00940 (8)
0e1c2000 ffffffff81055396 (02) 74 13                    JZ 0xffffffff810553ab
0e1c2000 ffffffff81055398 (04) 48 8b43 70               MOV RAX, [RBX+0x70]
            load    0xffff880001a00960 0x0000000001a00960 (8)
0e1c2000 ffffffff8105539c (07) 48 8b80 50080000         MOV RAX, [RAX+0x850]
            load    0xffff880001a010d0 0x0000000001a010d0 (8)
0e1c2000 ffffffff810553a3 (08) 49 898424 88000000       MOV [R12+0x88], RAX
            store   0xffff88000f4b80c0 0x000000000f4b80c0 (8)
0e1c2000 ffffffff810553ab (05) 49 8b4424 50             MOV RAX, [R12+0x50]
            load    0xffff88000f4b8088 0x000000000f4b8088 (8)
0e1c2000 ffffffff810553b0 (04) 48 2b43 20               SUB RAX, [RBX+0x20]
            load    0xffff880001a00910 0x0000000001a00910 (8)
0e1c2000 ffffffff810553b4 (06) 8b15 96c27400            MOV EDX, [RIP+0x74c296]
            load    0xffffffff817a1650 0x00000000017a1650 (4)
0e1c2000 ffffffff810553ba (03) 8d0c52                   LEA ECX, [RDX+RDX*2]
0e1c2000 ffffffff810553bd (03) 48 89c2                  MOV RDX, RAX
0e1c2000 ffffffff810553c0 (04) 48 c1fa 3f               SAR RDX, 0x3f
0e1c2000 ffffffff810553c4 (03) 48 31d0                  XOR RAX, RDX
0e1c2000 ffffffff810553c7 (03) 48 29d0                  SUB RAX, RDX
0e1c2000 ffffffff810553ca (03) 48 39c1                  CMP RCX, RAX
0e1c2000 ffffffff810553cd (02) 7d 04                    JGE 0xffffffff810553d3
0e1c2000 ffffffff810553d3 (04) 4c 3963 50               CMP [RBX+0x50], R12
            load    0xffff880001a00940 0x0000000001a00940 (8)
0e1c2000 ffffffff810553d7 (02) 74 0b                    JZ 0xffffffff810553e4
0e1c2000 ffffffff810553d9 (03) 4c 89e6                  MOV RSI, R12
0e1c2000 ffffffff810553dc (03) 48 89df                  MOV RDI, RBX
0e1c2000 ffffffff810553df (05) e8 cc5cffff              CALL 0xffffffff8104b0b0
            store   0xffff8800019eea90 0x00000000019eea90 (8)
0e1c2000 ffffffff8104b0b0 (01) 55                       PUSH RBP
            store   0xffff8800019eea88 0x00000000019eea88 (8)
0e1c2000 ffffffff8104b0b1 (04) 4c 8d5f 28               LEA R11, [RDI+0x28]
0e1c2000 ffffffff8104b0b5 (04) 4c 8b4f 20               MOV R9, [RDI+0x20]
            load    0xffff880001a00910 0x0000000001a00910 (8)
0e1c2000 ffffffff8104b0b9 (03) 48 89f8                  MOV RAX, RDI
0e1c2000 ffffffff8104b0bc (04) 48 8b7e 50               MOV RDI, [RSI+0x50]
            load    0xffff88000f4b8088 0x000000000f4b8088 (8)
0e1c2000 ffffffff8104b0c0 (06) 41 ba 01000000           MOV R10D, 0x1
0e1c2000 ffffffff8104b0c6 (03) 48 89e5                  MOV RBP, RSP
0e1c2000 ffffffff8104b0c9 (03) 4c 89d9                  MOV RCX, R11
0e1c2000 ffffffff8104b0cc (03) 45 31c0                  XOR R8D, R8D
0e1c2000 ffffffff8104b0cf (03) 4c 29cf                  SUB RDI, R9
0e1c2000 ffffffff8104b0d2 (02) eb 0b                    JMP 0xffffffff8104b0df
0e1c2000 ffffffff8104b0df (03) 48 8b11                  MOV RDX, [RCX]
            load    0xffff880001a00918 0x0000000001a00918 (8)
0e1c2000 ffffffff8104b0e2 (03) 48 85d2                  TEST RDX, RDX
0e1c2000 ffffffff8104b0e5 (02) 74 19                    JZ 0xffffffff8104b100
0e1c2000 ffffffff8104b100 (03) 45 85d2                  TEST R10D, R10D
0e1c2000 ffffffff8104b103 (04) 48 8d7e 10               LEA RDI, [RSI+0x10]
0e1c2000 ffffffff8104b107 (02) 74 04                    JZ 0xffffffff8104b10d
0e1c2000 ffffffff8104b109 (04) 48 8978 30               MOV [RAX+0x30], RDI
            store   0xffff880001a00920 0x0000000001a00920 (8)
0e1c2000 ffffffff8104b10d (04) 4c 8946 10               MOV [RSI+0x10], R8
            store   0xffff88000f4b8048 0x000000000f4b8048 (8)
0e1c2000 ffffffff8104b111 (08) 48 c746 18 00000000      MOV QWORD [RSI+0x18], 0x0
            store   0xffff88000f4b8050 0x000000000f4b8050 (8)
0e1c2000 ffffffff8104b119 (08) 48 c746 20 00000000      MOV QWORD [RSI+0x20], 0x0
            store   0xffff88000f4b8058 0x000000000f4b8058 (8)
0e1c2000 ffffffff8104b121 (03) 48 8939                  MOV [RCX], RDI
            store   0xffff880001a00918 0x0000000001a00918 (8)
0e1c2000 ffffffff8104b124 (03) 4c 89de                  MOV RSI, R11
0e1c2000 ffffffff8104b127 (05) e8 74ce2200              CALL 0xffffffff81277fa0
            store   0xffff8800019eea80 0x00000000019eea80 (8)
0e1c2000 ffffffff81277fa0 (01) 55                       PUSH RBP
            store   0xffff8800019eea78 0x00000000019eea78 (8)
0e1c2000 ffffffff81277fa1 (03) 48 89e5                  MOV RBP, RSP
0e1c2000 ffffffff81277fa4 (02) 41 57                    PUSH R15
            store   0xffff8800019eea70 0x00000000019eea70 (8)
0e1c2000 ffffffff81277fa6 (02) 41 56                    PUSH R14
            store   0xffff8800019eea68 0x00000000019eea68 (8)
0e1c2000 ffffffff81277fa8 (03) 49 89fe                  MOV R14, RDI
0e1c2000 ffffffff81277fab (02) 41 55                    PUSH R13
            store   0xffff8800019eea60 0x00000000019eea60 (8)
0e1c2000 ffffffff81277fad (02) 41 54                    PUSH R12
            store   0xffff8800019eea58 0x00000000019eea58 (8)
0e1c2000 ffffffff81277faf (01) 53                       PUSH RBX
            store   0xffff8800019eea50 0x00000000019eea50 (8)
0e1c2000 ffffffff81277fb0 (04) 48 83ec 08               SUB RSP, 0x8
0e1c2000 ffffffff81277fb4 (04) 48 8975 d0               MOV [RBP-0x30], RSI
            store   0xffff8800019eea48 0x00000000019eea48 (8)
0e1c2000 ffffffff81277fb8 (03) 4c 8b2f                  MOV R13, [RDI]
            load    0xffff88000f4b8048 0x000000000f4b8048 (8)
0e1c2000 ffffffff81277fbb (02) eb 21                    JMP 0xffffffff81277fde
0e1c2000 ffffffff81277fde (04) 49 83e5 fc               AND R13, -0x4
0e1c2000 ffffffff81277fe2 (06) 0f84 98000000            JZ 0xffffffff81278080
0e1c2000 ffffffff81278080 (04) 48 8b55 d0               MOV RDX, [RBP-0x30]
            load    0xffff8800019eea48 0x00000000019eea48 (8)
0e1c2000 ffffffff81278084 (03) 48 8b02                  MOV RAX, [RDX]
            load    0xffff880001a00918 0x0000000001a00918 (8)
0e1c2000 ffffffff81278087 (04) 48 8308 01               OR QWORD [RAX], 0x1
            load    0xffff88000f4b8048 0x000000000f4b8048 (8)
            store   0xffff88000f4b8048 0x000000000f4b8048 (8)
0e1c2000 ffffffff8127808b (04) 48 83c4 08               ADD RSP, 0x8
0e1c2000 ffffffff8127808f (01) 5b                       POP RBX
            load    0xffff8800019eea50 0x00000000019eea50 (8)
0e1c2000 ffffffff81278090 (02) 41 5c                    POP R12
            load    0xffff8800019eea58 0x00000000019eea58 (8)
0e1c2000 ffffffff81278092 (02) 41 5d                    POP R13
            load    0xffff8800019eea60 0x00000000019eea60 (8)
0e1c2000 ffffffff81278094 (02) 41 5e                    POP R14
            load    0xffff8800019eea68 0x00000000019eea68 (8)
0e1c2000 ffffffff81278096 (02) 41 5f                    POP R15
            load    0xffff8800019eea70 0x00000000019eea70 (8)
0e1c2000 ffffffff81278098 (01) c9                       LEAVE 
            load    0xffff8800019eea78 0x00000000019eea78 (8)
0e1c2000 ffffffff81278099 (01) c3                       RET 
            load    0xffff8800019eea80 0x00000000019eea80 (8)
0e1c2000 ffffffff8104b12c (01) c9                       LEAVE 
            load    0xffff8800019eea88 0x00000000019eea88 (8)
0e1c2000 ffffffff8104b12d (01) c3                       RET 
            load    0xffff8800019eea90 0x00000000019eea90 (8)
0e1c2000 ffffffff810553e4 (04) 48 8b5d e8               MOV RBX, [RBP-0x18]
            load    0xffff8800019eeaa0 0x00000000019eeaa0 (8)
0e1c2000 ffffffff810553e8 (04) 4c 8b65 f0               MOV R12, [RBP-0x10]
            load    0xffff8800019eeaa8 0x00000000019eeaa8 (8)
0e1c2000 ffffffff810553ec (04) 4c 8b6d f8               MOV R13, [RBP-0x8]
            load    0xffff8800019eeab0 0x00000000019eeab0 (8)
0e1c2000 ffffffff810553f0 (01) c9                       LEAVE 
            load    0xffff8800019eeab8 0x00000000019eeab8 (8)
0e1c2000 ffffffff810553f1 (01) c3                       RET 
            load    0xffff8800019eeac0 0x00000000019eeac0 (8)
0e1c2000 ffffffff810554ad (07) 48 8b9b 58010000         MOV RBX, [RBX+0x158]
            load    0xffff88000f4b8190 0x000000000f4b8190 (8)
0e1c2000 ffffffff810554b4 (03) 48 85db                  TEST RBX, RBX
0e1c2000 ffffffff810554b7 (02) 75 d7                    JNZ 0xffffffff81055490
0e1c2000 ffffffff810554b9 (08) 49 8bb424 30080000       MOV RSI, [R12+0x830]
            load    0xffff880001a010b0 0x0000000001a010b0 (8)
0e1c2000 ffffffff810554c1 (08) 48 817e 30 400c5481      CMP QWORD [RSI+0x30], -0x7eabf3c0
            load    0xffffffff8179a630 0x000000000179a630 (8)
0e1c2000 ffffffff810554c9 (02) 74 05                    JZ 0xffffffff810554d0
0e1c2000 ffffffff810554cb (01) 5b                       POP RBX
            load    0xffff8800019eeac8 0x00000000019eeac8 (8)
0e1c2000 ffffffff810554cc (02) 41 5c                    POP R12
            load    0xffff8800019eead0 0x00000000019eead0 (8)
0e1c2000 ffffffff810554ce (01) c9                       LEAVE 
            load    0xffff8800019eead8 0x00000000019eead8 (8)
0e1c2000 ffffffff810554cf (01) c3                       RET 
            load    0xffff8800019eeae0 0x00000000019eeae0 (8)
0e1c2000 ffffffff810453d7 (07) c743 70 01000000         MOV DWORD [RBX+0x70], 0x1
            store   0xffff88000f4b8070 0x000000000f4b8070 (4)
0e1c2000 ffffffff810453de (04) 48 83c4 08               ADD RSP, 0x8
0e1c2000 ffffffff810453e2 (01) 5b                       POP RBX
            load    0xffff8800019eeaf0 0x00000000019eeaf0 (8)
0e1c2000 ffffffff810453e3 (01) c9                       LEAVE 
            load    0xffff8800019eeaf8 0x00000000019eeaf8 (8)
0e1c2000 ffffffff810453e4 (01) c3                       RET 
            load    0xffff8800019eeb00 0x00000000019eeb00 (8)
0e1c2000 ffffffff81045509 (05) 48 8343 08 01            ADD QWORD [RBX+0x8], 0x1
            load    0xffff880001a00888 0x0000000001a00888 (8)
            store   0xffff880001a00888 0x0000000001a00888 (8)
0e1c2000 ffffffff8104550e (04) 48 83c4 08               ADD RSP, 0x8
0e1c2000 ffffffff81045512 (01) 5b                       POP RBX
            load    0xffff8800019eeb10 0x00000000019eeb10 (8)
0e1c2000 ffffffff81045513 (01) c9                       LEAVE 
            load    0xffff8800019eeb18 0x00000000019eeb18 (8)
0e1c2000 ffffffff81045514 (01) c3                       RET 
            load    0xffff8800019eeb20 0x00000000019eeb20 (8)
0e1c2000 ffffffff81053c6e (09) 65 48 8b0425 88cb0000    MOV RAX, GS:[0xcb88]
            load    0xffff8800019f7b88 0x00000000019f7b88 (8)
0e1c2000 ffffffff81053c77 (07) 48 6380 44e0ffff         MOVSXD RAX, [RAX-0x1fbc]
            load    0xffffffff8177201c 0x000000000177201c (4)
0e1c2000 ffffffff81053c7e (06) 41 be 01000000           MOV R14D, 0x1
0e1c2000 ffffffff81053c84 (05) a9 00ffff07              TEST EAX, 0x7ffff00
0e1c2000 ffffffff81053c89 (06) 0f85 59feffff            JNZ 0xffffffff81053ae8
0e1c2000 ffffffff81053ae8 (07) 44 8b1d b9647c00         MOV R11D, [RIP+0x7c64b9]
            load    0xffffffff81819fa8 0x0000000001819fa8 (4)
0e1c2000 ffffffff81053aef (03) 45 85db                  TEST R11D, R11D
0e1c2000 ffffffff81053af2 (06) 0f85 23020000            JNZ 0xffffffff81053d1b
0e1c2000 ffffffff81053af8 (08) 49 8b8424 30080000       MOV RAX, [R12+0x830]
            load    0xffff880001a010b0 0x0000000001a010b0 (8)
0e1c2000 ffffffff81053b00 (03) 44 89ea                  MOV EDX, R13D
0e1c2000 ffffffff81053b03 (03) 48 89de                  MOV RSI, RBX
0e1c2000 ffffffff81053b06 (03) 4c 89e7                  MOV RDI, R12
0e1c2000 ffffffff81053b09 (04) 48 8b40 30               MOV RAX, [RAX+0x30]
            load    0xffffffff8179a630 0x000000000179a630 (8)
0e1c2000 ffffffff81053b0d (03) ff50 20                  CALL [RAX+0x20]
            load    0xffffffff81540ae0 0x0000000001540ae0 (8)
            store   0xffff8800019eeb20 0x00000000019eeb20 (8)
0e1c2000 ffffffff810496f0 (01) 55                       PUSH RBP
            store   0xffff8800019eeb18 0x00000000019eeb18 (8)
0e1c2000 ffffffff810496f1 (07) 48 8bbf 38080000         MOV RDI, [RDI+0x838]
            load    0xffff880001a010b8 0x0000000001a010b8 (8)
0e1c2000 ffffffff810496f8 (03) 48 89e5                  MOV RBP, RSP
0e1c2000 ffffffff810496fb (05) e8 60ffffff              CALL 0xffffffff81049660
            store   0xffff8800019eeb10 0x00000000019eeb10 (8)
0e1c2000 ffffffff81049660 (01) 55                       PUSH RBP
            store   0xffff8800019eeb08 0x00000000019eeb08 (8)
0e1c2000 ffffffff81049661 (03) 48 89e5                  MOV RBP, RSP
0e1c2000 ffffffff81049664 (01) 53                       PUSH RBX
            store   0xffff8800019eeb00 0x00000000019eeb00 (8)
0e1c2000 ffffffff81049665 (03) 48 89fb                  MOV RBX, RDI
0e1c2000 ffffffff81049668 (07) 48 c7c7 80580100         MOV RDI, 0x15880
0e1c2000 ffffffff8104966f (04) 48 83ec 08               SUB RSP, 0x8
0e1c2000 ffffffff81049673 (04) 48 8b43 08               MOV RAX, [RBX+0x8]
            load    0xffffffff8179a608 0x000000000179a608 (8)
0e1c2000 ffffffff81049677 (03) 8b40 18                  MOV EAX, [RAX+0x18]
            load    0xffffffff81772018 0x0000000001772018 (4)
0e1c2000 ffffffff8104967a (08) 48 033cc5 20ea8181       ADD RDI, [RAX*8-0x7e7e15e0]
            load    0xffffffff8181ea20 0x000000000181ea20 (8)
0e1c2000 ffffffff81049682 (05) e8 49cdfeff              CALL 0xffffffff810363d0
            store   0xffff8800019eeaf0 0x00000000019eeaf0 (8)
0e1c2000 ffffffff810363d0 (02) 8b17                     MOV EDX, [RDI]
            load    0xffff880001a00880 0x0000000001a00880 (4)
0e1c2000 ffffffff810363d2 (01) 55                       PUSH RBP
            store   0xffff8800019eeae8 0x00000000019eeae8 (8)
0e1c2000 ffffffff810363d3 (03) 48 89e5                  MOV RBP, RSP
0e1c2000 ffffffff810363d6 (01) c9                       LEAVE 
            load    0xffff8800019eeae8 0x00000000019eeae8 (8)
0e1c2000 ffffffff810363d7 (02) 89d0                     MOV EAX, EDX
0e1c2000 ffffffff810363d9 (03) c1f8 08                  SAR EAX, 0x8
0e1c2000 ffffffff810363dc (02) 31d0                     XOR EAX, EDX
0e1c2000 ffffffff810363de (02) 84c0                     TEST AL, AL
0e1c2000 ffffffff810363e0 (03) 0f95c0                   SETNZ AL
0e1c2000 ffffffff810363e3 (03) 0fb6c0                   MOVZX EAX, AL
0e1c2000 ffffffff810363e6 (01) c3                       RET 
            load    0xffff8800019eeaf0 0x00000000019eeaf0 (8)
0e1c2000 ffffffff81049687 (01) 66                       DB 0x66 
0e1c2000 ffffffff81049687 (02) 66 90                    NOP 
0e1c2000 ffffffff81049689 (02) 85c0                     TEST EAX, EAX
0e1c2000 ffffffff8104968b (02) 74 50                    JZ 0xffffffff810496dd
0e1c2000 ffffffff8104968d (04) 48 8b43 08               MOV RAX, [RBX+0x8]
            load    0xffffffff8179a608 0x000000000179a608 (8)
0e1c2000 ffffffff81049691 (04) 48 8b50 10               MOV RDX, [RAX+0x10]
            load    0xffffffff81772010 0x0000000001772010 (8)
0e1c2000 ffffffff81049695 (03) 83e2 08                  AND EDX, 0x8
0e1c2000 ffffffff81049698 (02) 75 25                    JNZ 0xffffffff810496bf
0e1c2000 ffffffff8104969a (01) 3e                       DB 0x3e 
0e1c2000 ffffffff8104969a (05) 3e 8048 10 08            OR BYTE [RAX+0x10], 0x8
            load    0xffffffff81772010 0x0000000001772010 (1)
            store   0xffffffff81772010 0x0000000001772010 (1)
0e1c2000 ffffffff8104969f (04) 48 8b43 08               MOV RAX, [RBX+0x8]
            load    0xffffffff8179a608 0x000000000179a608 (8)
0e1c2000 ffffffff810496a3 (03) 8b78 18                  MOV EDI, [RAX+0x18]
            load    0xffffffff81772018 0x0000000001772018 (4)
0e1c2000 ffffffff810496a6 (08) 65 8b0425 68e30000       MOV EAX, GS:[0xe368]
            load    0xffff8800019f9368 0x00000000019f9368 (4)
0e1c2000 ffffffff810496ae (02) 39c7                     CMP EDI, EAX
0e1c2000 ffffffff810496b0 (02) 74 0d                    JZ 0xffffffff810496bf
0e1c2000 ffffffff810496bf (04) 48 83c4 08               ADD RSP, 0x8
0e1c2000 ffffffff810496c3 (01) 5b                       POP RBX
            load    0xffff8800019eeb00 0x00000000019eeb00 (8)
0e1c2000 ffffffff810496c4 (01) c9                       LEAVE 
            load    0xffff8800019eeb08 0x00000000019eeb08 (8)
0e1c2000 ffffffff810496c5 (01) c3                       RET 
            load    0xffff8800019eeb10 0x00000000019eeb10 (8)
0e1c2000 ffffffff81049700 (01) c9                       LEAVE 
            load    0xffff8800019eeb18 0x00000000019eeb18 (8)
0e1c2000 ffffffff81049701 (01) c3                       RET 
            load    0xffff8800019eeb20 0x00000000019eeb20 (8)
0e1c2000 ffffffff81053b10 (04) 48 8b43 30               MOV RAX, [RBX+0x30]
            load    0xffff88000f4b8030 0x000000000f4b8030 (8)
0e1c2000 ffffffff81053b14 (07) 48 c703 00000000         MOV QWORD [RBX], 0x0
            store   0xffff88000f4b8000 0x000000000f4b8000 (8)
0e1c2000 ffffffff81053b1b (04) 48 8b40 68               MOV RAX, [RAX+0x68]
            load    0xffffffff81540ca8 0x0000000001540ca8 (8)
0e1c2000 ffffffff81053b1f (03) 48 85c0                  TEST RAX, RAX
0e1c2000 ffffffff81053b22 (02) 74 08                    JZ 0xffffffff81053b2c
0e1c2000 ffffffff81053b2c (04) 48 8b75 c8               MOV RSI, [RBP-0x38]
            load    0xffff8800019eeb40 0x00000000019eeb40 (8)
0e1c2000 ffffffff81053b30 (03) 4c 89e7                  MOV RDI, R12
0e1c2000 ffffffff81053b33 (05) e8 685f4d00              CALL 0xffffffff81529aa0
            store   0xffff8800019eeb20 0x00000000019eeb20 (8)
0e1c2000 ffffffff81529aa0 (01) 55                       PUSH RBP
            store   0xffff8800019eeb18 0x00000000019eeb18 (8)
0e1c2000 ffffffff81529aa1 (03) 48 89e5                  MOV RBP, RSP
0e1c2000 ffffffff81529aa4 (01) 53                       PUSH RBX
            store   0xffff8800019eeb10 0x00000000019eeb10 (8)
0e1c2000 ffffffff81529aa5 (03) 48 89f3                  MOV RBX, RSI
0e1c2000 ffffffff81529aa8 (05) e8 13c9b0ff              CALL 0xffffffff810363c0
            store   0xffff8800019eeb08 0x00000000019eeb08 (8)
0e1c2000 ffffffff810363c0 (01) 55                       PUSH RBP
            store   0xffff8800019eeb00 0x00000000019eeb00 (8)
0e1c2000 ffffffff810363c1 (03) 48 89e5                  MOV RBP, RSP
0e1c2000 ffffffff810363c4 (02) fe07                     INC BYTE [RDI]
            load    0xffff880001a00880 0x0000000001a00880 (1)
            store   0xffff880001a00880 0x0000000001a00880 (1)
0e1c2000 ffffffff810363c6 (01) c9                       LEAVE 
            load    0xffff8800019eeb00 0x00000000019eeb00 (8)
0e1c2000 ffffffff810363c7 (01) c3                       RET 
            load    0xffff8800019eeb08 0x00000000019eeb08 (8)
0e1c2000 ffffffff81529aad (01) 66                       DB 0x66 
0e1c2000 ffffffff81529aad (02) 66 90                    NOP 
0e1c2000 ffffffff81529aaf (03) 48 89df                  MOV RDI, RBX
0e1c2000 ffffffff81529ab2 (01) 57                       PUSH RDI
            store   0xffff8800019eeb08 0x00000000019eeb08 (8)
0e1c2000 ffffffff81529ab3 (01) 9d                       POPF 
            load    0xffff8800019eeb08 0x00000000019eeb08 (8)
0e1c2000 ffffffff81529ab4 (01) 66                       DB 0x66 
0e1c2000 ffffffff81529ab5 (01) 66                       DB 0x66 
0e1c2000 ffffffff81529ab5 (02) 66 90                    NOP 
0e1c2000 ffffffff81529ab7 (01) 66                       DB 0x66 
0e1c2000 ffffffff81529ab7 (02) 66 90                    NOP 
0e1c2000 ffffffff81529ab9 (01) 5b                       POP RBX
            load    0xffff8800019eeb10 0x00000000019eeb10 (8)
0e1c2000 ffffffff81529aba (01) c9                       LEAVE 
            load    0xffff8800019eeb18 0x00000000019eeb18 (8)
0e1c2000 ffffffff81529abb (01) c3                       RET 
            load    0xffff8800019eeb20 0x00000000019eeb20 (8)
0e1c2000 ffffffff81053b38 (04) 48 83c4 28               ADD RSP, 0x28
0e1c2000 ffffffff81053b3c (03) 44 89f0                  MOV EAX, R14D
0e1c2000 ffffffff81053b3f (01) 5b                       POP RBX
            load    0xffff8800019eeb50 0x00000000019eeb50 (8)
0e1c2000 ffffffff81053b40 (02) 41 5c                    POP R12
            load    0xffff8800019eeb58 0x00000000019eeb58 (8)
0e1c2000 ffffffff81053b42 (02) 41 5d                    POP R13
            load    0xffff8800019eeb60 0x00000000019eeb60 (8)
0e1c2000 ffffffff81053b44 (02) 41 5e                    POP R14
            load    0xffff8800019eeb68 0x00000000019eeb68 (8)
0e1c2000 ffffffff81053b46 (02) 41 5f                    POP R15
            load    0xffff8800019eeb70 0x00000000019eeb70 (8)
0e1c2000 ffffffff81053b48 (01) c9                       LEAVE 
            load    0xffff8800019eeb78 0x00000000019eeb78 (8)
0e1c2000 ffffffff81053b49 (01) c3                       RET 
            load    0xffff8800019eeb80 0x00000000019eeb80 (8)
0e1c2000 ffffffff81053d6d (01) c9                       LEAVE 
            load    0xffff8800019eeb88 0x00000000019eeb88 (8)
0e1c2000 ffffffff81053d6e (01) c3                       RET 
            load    0xffff8800019eeb90 0x00000000019eeb90 (8)
0e1c2000 ffffffff81078b41 (02) 85c0                     TEST EAX, EAX
0e1c2000 ffffffff81078b43 (02) 74 1b                    JZ 0xffffffff81078b60
0e1c2000 ffffffff81078b45 (04) 48 8b73 18               MOV RSI, [RBX+0x18]
            load    0xffff88000f4b7ea8 0x000000000f4b7ea8 (8)
0e1c2000 ffffffff81078b49 (04) 48 8b4b 20               MOV RCX, [RBX+0x20]
            load    0xffff88000f4b7eb0 0x000000000f4b7eb0 (8)
0e1c2000 ffffffff81078b4d (04) 48 8d53 18               LEA RDX, [RBX+0x18]
0e1c2000 ffffffff81078b51 (04) 48 894e 08               MOV [RSI+0x8], RCX
            store   0xffff880001a03328 0x0000000001a03328 (8)
0e1c2000 ffffffff81078b55 (03) 48 8931                  MOV [RCX], RSI
            store   0xffff880001a03320 0x0000000001a03320 (8)
0e1c2000 ffffffff81078b58 (04) 48 8953 18               MOV [RBX+0x18], RDX
            store   0xffff88000f4b7ea8 0x000000000f4b7ea8 (8)
0e1c2000 ffffffff81078b5c (04) 48 8953 20               MOV [RBX+0x20], RDX
            store   0xffff88000f4b7eb0 0x000000000f4b7eb0 (8)
0e1c2000 ffffffff81078b60 (04) 48 83c4 08               ADD RSP, 0x8
0e1c2000 ffffffff81078b64 (01) 5b                       POP RBX
            load    0xffff8800019eeba0 0x00000000019eeba0 (8)
0e1c2000 ffffffff81078b65 (01) c9                       LEAVE 
            load    0xffff8800019eeba8 0x00000000019eeba8 (8)
0e1c2000 ffffffff81078b66 (01) c3                       RET 
            load    0xffff8800019eebb0 0x00000000019eebb0 (8)
0e1c2000 ffffffff81045d09 (02) 85c0                     TEST EAX, EAX
0e1c2000 ffffffff81045d0b (02) 74 0c                    JZ 0xffffffff81045d19
0e1c2000 ffffffff81045d0d (04) 41 83e4 01               AND R12D, 0x1
0e1c2000 ffffffff81045d11 (02) 74 06                    JZ 0xffffffff81045d19
0e1c2000 ffffffff81045d19 (04) 48 8d43 18               LEA RAX, [RBX+0x18]
0e1c2000 ffffffff81045d1d (04) 48 8b53 18               MOV RDX, [RBX+0x18]
            load    0xffff880001a03320 0x0000000001a03320 (8)
0e1c2000 ffffffff81045d21 (03) 49 39c5                  CMP R13, RAX
0e1c2000 ffffffff81045d24 (02) 75 ca                    JNZ 0xffffffff81045cf0
0e1c2000 ffffffff81045d26 (04) 48 83c4 18               ADD RSP, 0x18
0e1c2000 ffffffff81045d2a (01) 5b                       POP RBX
            load    0xffff8800019eebd0 0x00000000019eebd0 (8)
0e1c2000 ffffffff81045d2b (02) 41 5c                    POP R12
            load    0xffff8800019eebd8 0x00000000019eebd8 (8)
0e1c2000 ffffffff81045d2d (02) 41 5d                    POP R13
            load    0xffff8800019eebe0 0x00000000019eebe0 (8)
0e1c2000 ffffffff81045d2f (02) 41 5e                    POP R14
            load    0xffff8800019eebe8 0x00000000019eebe8 (8)
0e1c2000 ffffffff81045d31 (02) 41 5f                    POP R15
            load    0xffff8800019eebf0 0x00000000019eebf0 (8)
0e1c2000 ffffffff81045d33 (01) c9                       LEAVE 
            load    0xffff8800019eebf8 0x00000000019eebf8 (8)
0e1c2000 ffffffff81045d34 (01) c3                       RET 
            load    0xffff8800019eec00 0x00000000019eec00 (8)
0e1c2000 ffffffff8104a873 (03) 4c 89e6                  MOV RSI, R12
0e1c2000 ffffffff8104a876 (03) 48 89df                  MOV RDI, RBX
0e1c2000 ffffffff8104a879 (05) e8 22f24d00              CALL 0xffffffff81529aa0
            store   0xffff8800019eec00 0x00000000019eec00 (8)
0e1c2000 ffffffff81529aa0 (01) 55                       PUSH RBP
            store   0xffff8800019eebf8 0x00000000019eebf8 (8)
0e1c2000 ffffffff81529aa1 (03) 48 89e5                  MOV RBP, RSP
0e1c2000 ffffffff81529aa4 (01) 53                       PUSH RBX
            store   0xffff8800019eebf0 0x00000000019eebf0 (8)
0e1c2000 ffffffff81529aa5 (03) 48 89f3                  MOV RBX, RSI
0e1c2000 ffffffff81529aa8 (05) e8 13c9b0ff              CALL 0xffffffff810363c0
            store   0xffff8800019eebe8 0x00000000019eebe8 (8)
0e1c2000 ffffffff810363c0 (01) 55                       PUSH RBP
            store   0xffff8800019eebe0 0x00000000019eebe0 (8)
0e1c2000 ffffffff810363c1 (03) 48 89e5                  MOV RBP, RSP
0e1c2000 ffffffff810363c4 (02) fe07                     INC BYTE [RDI]
            load    0xffff880001a03318 0x0000000001a03318 (1)
            store   0xffff880001a03318 0x0000000001a03318 (1)
0e1c2000 ffffffff810363c6 (01) c9                       LEAVE 
            load    0xffff8800019eebe0 0x00000000019eebe0 (8)
0e1c2000 ffffffff810363c7 (01) c3                       RET 
            load    0xffff8800019eebe8 0x00000000019eebe8 (8)
0e1c2000 ffffffff81529aad (01) 66                       DB 0x66 
0e1c2000 ffffffff81529aad (02) 66 90                    NOP 
0e1c2000 ffffffff81529aaf (03) 48 89df                  MOV RDI, RBX
0e1c2000 ffffffff81529ab2 (01) 57                       PUSH RDI
            store   0xffff8800019eebe8 0x00000000019eebe8 (8)
0e1c2000 ffffffff81529ab3 (01) 9d                       POPF 
            load    0xffff8800019eebe8 0x00000000019eebe8 (8)
0e1c2000 ffffffff81529ab4 (01) 66                       DB 0x66 
0e1c2000 ffffffff81529ab5 (01) 66                       DB 0x66 
0e1c2000 ffffffff81529ab5 (02) 66 90                    NOP 
0e1c2000 ffffffff81529ab7 (01) 66                       DB 0x66 
0e1c2000 ffffffff81529ab7 (02) 66 90                    NOP 
0e1c2000 ffffffff81529ab9 (01) 5b                       POP RBX
            load    0xffff8800019eebf0 0x00000000019eebf0 (8)
0e1c2000 ffffffff81529aba (01) c9                       LEAVE 
            load    0xffff8800019eebf8 0x00000000019eebf8 (8)
0e1c2000 ffffffff81529abb (01) c3                       RET 
            load    0xffff8800019eec00 0x00000000019eec00 (8)
0e1c2000 ffffffff8104a87e (04) 48 8b5d d8               MOV RBX, [RBP-0x28]
            load    0xffff8800019eec10 0x00000000019eec10 (8)
0e1c2000 ffffffff8104a882 (04) 4c 8b65 e0               MOV R12, [RBP-0x20]
            load    0xffff8800019eec18 0x00000000019eec18 (8)
0e1c2000 ffffffff8104a886 (04) 4c 8b6d e8               MOV R13, [RBP-0x18]
            load    0xffff8800019eec20 0x00000000019eec20 (8)
0e1c2000 ffffffff8104a88a (04) 4c 8b75 f0               MOV R14, [RBP-0x10]
            load    0xffff8800019eec28 0x00000000019eec28 (8)
0e1c2000 ffffffff8104a88e (04) 4c 8b7d f8               MOV R15, [RBP-0x8]
            load    0xffff8800019eec30 0x00000000019eec30 (8)
0e1c2000 ffffffff8104a892 (01) c9                       LEAVE 
            load    0xffff8800019eec38 0x00000000019eec38 (8)
0e1c2000 ffffffff8104a893 (01) c3                       RET 
            load    0xffff8800019eec40 0x00000000019eec40 (8)
0e1c2000 ffffffff81073d82 (04) 48 8b5d e0               MOV RBX, [RBP-0x20]
            load    0xffff8800019eec58 0x00000000019eec58 (8)
0e1c2000 ffffffff81073d86 (04) 4c 8b65 e8               MOV R12, [RBP-0x18]
            load    0xffff8800019eec60 0x00000000019eec60 (8)
0e1c2000 ffffffff81073d8a (04) 4c 8b6d f0               MOV R13, [RBP-0x10]
            load    0xffff8800019eec68 0x00000000019eec68 (8)
0e1c2000 ffffffff81073d8e (04) 4c 8b75 f8               MOV R14, [RBP-0x8]
            load    0xffff8800019eec70 0x00000000019eec70 (8)
0e1c2000 ffffffff81073d92 (01) c9                       LEAVE 
            load    0xffff8800019eec78 0x00000000019eec78 (8)
0e1c2000 ffffffff81073d93 (01) c3                       RET 
            load    0xffff8800019eec80 0x00000000019eec80 (8)
0e1c2000 ffffffff810741c1 (03) 4c 89e6                  MOV RSI, R12
0e1c2000 ffffffff810741c4 (03) 48 89df                  MOV RDI, RBX
0e1c2000 ffffffff810741c7 (05) e8 d4584b00              CALL 0xffffffff81529aa0
            store   0xffff8800019eec80 0x00000000019eec80 (8)
0e1c2000 ffffffff81529aa0 (01) 55                       PUSH RBP
            store   0xffff8800019eec78 0x00000000019eec78 (8)
0e1c2000 ffffffff81529aa1 (03) 48 89e5                  MOV RBP, RSP
0e1c2000 ffffffff81529aa4 (01) 53                       PUSH RBX
            store   0xffff8800019eec70 0x00000000019eec70 (8)
0e1c2000 ffffffff81529aa5 (03) 48 89f3                  MOV RBX, RSI
0e1c2000 ffffffff81529aa8 (05) e8 13c9b0ff              CALL 0xffffffff810363c0
            store   0xffff8800019eec68 0x00000000019eec68 (8)
0e1c2000 ffffffff810363c0 (01) 55                       PUSH RBP
            store   0xffff8800019eec60 0x00000000019eec60 (8)
0e1c2000 ffffffff810363c1 (03) 48 89e5                  MOV RBP, RSP
0e1c2000 ffffffff810363c4 (02) fe07                     INC BYTE [RDI]
            load    0xffff880001a03300 0x0000000001a03300 (1)
            store   0xffff880001a03300 0x0000000001a03300 (1)
0e1c2000 ffffffff810363c6 (01) c9                       LEAVE 
            load    0xffff8800019eec60 0x00000000019eec60 (8)
0e1c2000 ffffffff810363c7 (01) c3                       RET 
            load    0xffff8800019eec68 0x00000000019eec68 (8)
0e1c2000 ffffffff81529aad (01) 66                       DB 0x66 
0e1c2000 ffffffff81529aad (02) 66 90                    NOP 
0e1c2000 ffffffff81529aaf (03) 48 89df                  MOV RDI, RBX
0e1c2000 ffffffff81529ab2 (01) 57                       PUSH RDI
            store   0xffff8800019eec68 0x00000000019eec68 (8)
0e1c2000 ffffffff81529ab3 (01) 9d                       POPF 
            load    0xffff8800019eec68 0x00000000019eec68 (8)
0e1c2000 ffffffff81529ab4 (01) 66                       DB 0x66 
0e1c2000 ffffffff81529ab5 (01) 66                       DB 0x66 
0e1c2000 ffffffff81529ab5 (02) 66 90                    NOP 
0e1c2000 ffffffff81529ab7 (01) 66                       DB 0x66 
0e1c2000 ffffffff81529ab7 (02) 66 90                    NOP 
0e1c2000 ffffffff81529ab9 (01) 5b                       POP RBX
            load    0xffff8800019eec70 0x00000000019eec70 (8)
0e1c2000 ffffffff81529aba (01) c9                       LEAVE 
            load    0xffff8800019eec78 0x00000000019eec78 (8)
0e1c2000 ffffffff81529abb (01) c3                       RET 
            load    0xffff8800019eec80 0x00000000019eec80 (8)
0e1c2000 ffffffff810741cc (04) 48 8b5d e8               MOV RBX, [RBP-0x18]
            load    0xffff8800019eec90 0x00000000019eec90 (8)
0e1c2000 ffffffff810741d0 (04) 4c 8b65 f0               MOV R12, [RBP-0x10]
            load    0xffff8800019eec98 0x00000000019eec98 (8)
0e1c2000 ffffffff810741d4 (04) 4c 8b6d f8               MOV R13, [RBP-0x8]
            load    0xffff8800019eeca0 0x00000000019eeca0 (8)
0e1c2000 ffffffff810741d8 (01) c9                       LEAVE 
            load    0xffff8800019eeca8 0x00000000019eeca8 (8)
0e1c2000 ffffffff810741d9 (01) c3                       RET 
            load    0xffff8800019eecb0 0x00000000019eecb0 (8)
0e1c2000 ffffffff8107425d (05) b8 01000000              MOV EAX, 0x1
0e1c2000 ffffffff81074262 (01) c9                       LEAVE 
            load    0xffff8800019eecb8 0x00000000019eecb8 (8)
0e1c2000 ffffffff81074263 (01) c3                       RET 
            load    0xffff8800019eecc0 0x00000000019eecc0 (8)
0e1c2000 ffffffff810742aa (01) c9                       LEAVE 
            load    0xffff8800019eecc8 0x00000000019eecc8 (8)
0e1c2000 ffffffff810742ab (01) c3                       RET 
            load    0xffff8800019eecd0 0x00000000019eecd0 (8)
0e1c2000 ffffffff810742c3 (01) c9                       LEAVE 
            load    0xffff8800019eecd8 0x00000000019eecd8 (8)
0e1c2000 ffffffff810742c4 (01) c3                       RET 
            load    0xffff8800019eece0 0x00000000019eece0 (8)
0e1c2000 ffffffff81304da0 (01) c9                       LEAVE 
            load    0xffff8800019eece8 0x00000000019eece8 (8)
0e1c2000 ffffffff81304da1 (01) c3                       RET 
            load    0xffff8800019eecf0 0x00000000019eecf0 (8)
0e1c2000 ffffffff81302b65 (01) c9                       LEAVE 
            load    0xffff8800019eecf8 0x00000000019eecf8 (8)
0e1c2000 ffffffff81302b66 (01) c3                       RET 
            load    0xffff8800019eed00 0x00000000019eed00 (8)
0e1c2000 ffffffff813c4606 (02) eb d0                    JMP 0xffffffff813c45d8
0e1c2000 ffffffff813c45d8 (03) 48 8b3b                  MOV RDI, [RBX]
            load    0xffff88000d985ce8 0x000000000d985ce8 (8)
0e1c2000 ffffffff813c45db (04) 48 83ef 28               SUB RDI, 0x28
0e1c2000 ffffffff813c45df (04) 48 8b47 28               MOV RAX, [RDI+0x28]
            load    0xffff88000da58a38 0x000000000da58a38 (8)
0e1c2000 ffffffff813c45e3 (04) 48 8d5f 28               LEA RBX, [RDI+0x28]
0e1c2000 ffffffff813c45e7 (03) 49 39df                  CMP R15, RBX
0e1c2000 ffffffff813c45ea (03) 0f1808                   PREFETCHT0 [RAX]
0e1c2000 ffffffff813c45ed (02) 74 9c                    JZ 0xffffffff813c458b
0e1c2000 ffffffff813c45ef (03) 8b47 08                  MOV EAX, [RDI+0x8]
            load    0xffff88000da58a18 0x000000000da58a18 (4)
0e1c2000 ffffffff813c45f2 (02) 85c0                     TEST EAX, EAX
0e1c2000 ffffffff813c45f4 (02) 74 e2                    JZ 0xffffffff813c45d8
0e1c2000 ffffffff813c45d8 (03) 48 8b3b                  MOV RDI, [RBX]
            load    0xffff88000da58a38 0x000000000da58a38 (8)
0e1c2000 ffffffff813c45db (04) 48 83ef 28               SUB RDI, 0x28
0e1c2000 ffffffff813c45df (04) 48 8b47 28               MOV RAX, [RDI+0x28]
            load    0xffff88000d9ac980 0x000000000d9ac980 (8)
0e1c2000 ffffffff813c45e3 (04) 48 8d5f 28               LEA RBX, [RDI+0x28]
0e1c2000 ffffffff813c45e7 (03) 49 39df                  CMP R15, RBX
0e1c2000 ffffffff813c45ea (03) 0f1808                   PREFETCHT0 [RAX]
0e1c2000 ffffffff813c45ed (02) 74 9c                    JZ 0xffffffff813c458b
0e1c2000 ffffffff813c458b (04) 48 8b5d d8               MOV RBX, [RBP-0x28]
            load    0xffff8800019eed10 0x00000000019eed10 (8)
0e1c2000 ffffffff813c458f (04) 4c 8b65 e0               MOV R12, [RBP-0x20]
            load    0xffff8800019eed18 0x00000000019eed18 (8)
0e1c2000 ffffffff813c4593 (04) 4c 8b6d e8               MOV R13, [RBP-0x18]
            load    0xffff8800019eed20 0x00000000019eed20 (8)
0e1c2000 ffffffff813c4597 (04) 4c 8b75 f0               MOV R14, [RBP-0x10]
            load    0xffff8800019eed28 0x00000000019eed28 (8)
0e1c2000 ffffffff813c459b (04) 4c 8b7d f8               MOV R15, [RBP-0x8]
            load    0xffff8800019eed30 0x00000000019eed30 (8)
0e1c2000 ffffffff813c459f (01) c9                       LEAVE 
            load    0xffff8800019eed38 0x00000000019eed38 (8)
0e1c2000 ffffffff813c45a0 (01) c3                       RET 
            load    0xffff8800019eed40 0x00000000019eed40 (8)
0e1c2000 ffffffff813c5fd3 (04) 48 8b5d d8               MOV RBX, [RBP-0x28]
            load    0xffff8800019eed50 0x00000000019eed50 (8)
0e1c2000 ffffffff813c5fd7 (04) 4c 8b65 e0               MOV R12, [RBP-0x20]
            load    0xffff8800019eed58 0x00000000019eed58 (8)
0e1c2000 ffffffff813c5fdb (04) 4c 8b6d e8               MOV R13, [RBP-0x18]
            load    0xffff8800019eed60 0x00000000019eed60 (8)
0e1c2000 ffffffff813c5fdf (04) 4c 8b75 f0               MOV R14, [RBP-0x10]
            load    0xffff8800019eed68 0x00000000019eed68 (8)
0e1c2000 ffffffff813c5fe3 (04) 4c 8b7d f8               MOV R15, [RBP-0x8]
            load    0xffff8800019eed70 0x00000000019eed70 (8)
0e1c2000 ffffffff813c5fe7 (01) c9                       LEAVE 
            load    0xffff8800019eed78 0x00000000019eed78 (8)
0e1c2000 ffffffff813c5fe8 (01) c3                       RET 
            load    0xffff8800019eed80 0x00000000019eed80 (8)
0e1c2000 ffffffff813c68f4 (03) 4c 89fe                  MOV RSI, R15
0e1c2000 ffffffff813c68f7 (03) 4c 89f7                  MOV RDI, R14
0e1c2000 ffffffff813c68fa (05) e8 a1311600              CALL 0xffffffff81529aa0
            store   0xffff8800019eed80 0x00000000019eed80 (8)
0e1c2000 ffffffff81529aa0 (01) 55                       PUSH RBP
            store   0xffff8800019eed78 0x00000000019eed78 (8)
0e1c2000 ffffffff81529aa1 (03) 48 89e5                  MOV RBP, RSP
0e1c2000 ffffffff81529aa4 (01) 53                       PUSH RBX
            store   0xffff8800019eed70 0x00000000019eed70 (8)
0e1c2000 ffffffff81529aa5 (03) 48 89f3                  MOV RBX, RSI
0e1c2000 ffffffff81529aa8 (05) e8 13c9b0ff              CALL 0xffffffff810363c0
            store   0xffff8800019eed68 0x00000000019eed68 (8)
0e1c2000 ffffffff810363c0 (01) 55                       PUSH RBP
            store   0xffff8800019eed60 0x00000000019eed60 (8)
0e1c2000 ffffffff810363c1 (03) 48 89e5                  MOV RBP, RSP
0e1c2000 ffffffff810363c4 (02) fe07                     INC BYTE [RDI]
            load    0xffff88000d9ac800 0x000000000d9ac800 (1)
            store   0xffff88000d9ac800 0x000000000d9ac800 (1)
0e1c2000 ffffffff810363c6 (01) c9                       LEAVE 
            load    0xffff8800019eed60 0x00000000019eed60 (8)
0e1c2000 ffffffff810363c7 (01) c3                       RET 
            load    0xffff8800019eed68 0x00000000019eed68 (8)
0e1c2000 ffffffff81529aad (01) 66                       DB 0x66 
0e1c2000 ffffffff81529aad (02) 66 90                    NOP 
0e1c2000 ffffffff81529aaf (03) 48 89df                  MOV RDI, RBX
0e1c2000 ffffffff81529ab2 (01) 57                       PUSH RDI
            store   0xffff8800019eed68 0x00000000019eed68 (8)
0e1c2000 ffffffff81529ab3 (01) 9d                       POPF 
            load    0xffff8800019eed68 0x00000000019eed68 (8)
0e1c2000 ffffffff81529ab4 (01) 66                       DB 0x66 
0e1c2000 ffffffff81529ab5 (01) 66                       DB 0x66 
0e1c2000 ffffffff81529ab5 (02) 66 90                    NOP 
0e1c2000 ffffffff81529ab7 (01) 66                       DB 0x66 
0e1c2000 ffffffff81529ab7 (02) 66 90                    NOP 
0e1c2000 ffffffff81529ab9 (01) 5b                       POP RBX
            load    0xffff8800019eed70 0x00000000019eed70 (8)
0e1c2000 ffffffff81529aba (01) c9                       LEAVE 
            load    0xffff8800019eed78 0x00000000019eed78 (8)
0e1c2000 ffffffff81529abb (01) c3                       RET 
            load    0xffff8800019eed80 0x00000000019eed80 (8)
0e1c2000 ffffffff813c68ff (02) eb a2                    JMP 0xffffffff813c68a3
0e1c2000 ffffffff813c68a3 (04) 48 8b5d d8               MOV RBX, [RBP-0x28]
            load    0xffff8800019eeda0 0x00000000019eeda0 (8)
0e1c2000 ffffffff813c68a7 (04) 4c 8b65 e0               MOV R12, [RBP-0x20]
            load    0xffff8800019eeda8 0x00000000019eeda8 (8)
0e1c2000 ffffffff813c68ab (04) 4c 8b6d e8               MOV R13, [RBP-0x18]
            load    0xffff8800019eedb0 0x00000000019eedb0 (8)
0e1c2000 ffffffff813c68af (04) 4c 8b75 f0               MOV R14, [RBP-0x10]
            load    0xffff8800019eedb8 0x00000000019eedb8 (8)
0e1c2000 ffffffff813c68b3 (04) 4c 8b7d f8               MOV R15, [RBP-0x8]
            load    0xffff8800019eedc0 0x00000000019eedc0 (8)
0e1c2000 ffffffff813c68b7 (01) c9                       LEAVE 
            load    0xffff8800019eedc8 0x00000000019eedc8 (8)
0e1c2000 ffffffff813c68b8 (01) c3                       RET 
            load    0xffff8800019eedd0 0x00000000019eedd0 (8)
0e1c2000 ffffffff813cbbcd (06) 66 41 81fe fb00          CMP R14W, 0xfb
0e1c2000 ffffffff813cbbd3 (06) 0f84 01020000            JZ 0xffffffff813cbdda
0e1c2000 ffffffff813cbbd9 (06) 0f87 0a010000            JA 0xffffffff813cbce9
0e1c2000 ffffffff813cbbdf (03) 45 31db                  XOR R11D, R11D
0e1c2000 ffffffff813cbbe2 (06) 66 41 81fe f800          CMP R14W, 0xf8
0e1c2000 ffffffff813cbbe8 (06) 41 ba ffffffff           MOV R10D, -0x1
0e1c2000 ffffffff813cbbee (07) c745 bc 01000000         MOV DWORD [RBP-0x44], 0x1
            store   0xffff8800019eedf4 0x00000000019eedf4 (4)
0e1c2000 ffffffff813cbbf5 (06) 0f84 4ffeffff            JZ 0xffffffff813cba4a
0e1c2000 ffffffff813cbbfb (06) 0f87 01020000            JA 0xffffffff813cbe02
0e1c2000 ffffffff813cbc01 (04) 66 45 85f65              TEST R14W, R14W
0e1c2000 ffffffff813cbc05 (06) 0f85 0b010000            JNZ 0xffffffff813cbd16
0e1c2000 ffffffff813cbd16 (07) 80bb 0a050000 00         CMP BYTE [RBX+0x50a], 0x0
            load    0xffff88000f28bd0a 0x000000000f28bd0a (1)
0e1c2000 ffffffff813cbd1d (06) 0f84 15010000            JZ 0xffffffff813cbe38
0e1c2000 ffffffff813cbe38 (07) 80bb 04050000 00         CMP BYTE [RBX+0x504], 0x0
            load    0xffff88000f28bd04 0x000000000f28bd04 (1)
0e1c2000 ffffffff813cbe3f (02) 75 64                    JNZ 0xffffffff813cbea5
0e1c2000 ffffffff813cbe41 (04) 45 0fb7f6                MOVZX R14D, R14W
0e1c2000 ffffffff813cbe45 (08) 45 0fa3b7 58020000       BT [R15+0x258], R14D
            load    0xffff88000d9ac25c 0x000000000d9ac25c (4)
0e1c2000 ffffffff813cbe4d (02) 19c0                     SBB EAX, EAX
0e1c2000 ffffffff813cbe4f (02) 85c0                     TEST EAX, EAX
0e1c2000 ffffffff813cbe51 (03) 45 89f5                  MOV R13D, R14D
0e1c2000 ffffffff813cbe54 (02) 74 53                    JZ 0xffffffff813cbea9
0e1c2000 ffffffff813cbea9 (07) 44 89a3 18050000         MOV [RBX+0x518], R12D
            store   0xffff88000f28bd18 0x000000000f28bd18 (4)
0e1c2000 ffffffff813cbeb0 (07) 41 8bbf 4c020000         MOV EDI, [R15+0x24c]
            load    0xffff88000d9ac24c 0x000000000d9ac24c (4)
0e1c2000 ffffffff813cbeb7 (05) e8 4478c9ff              CALL 0xffffffff81063700
            store   0xffff8800019eedd0 0x00000000019eedd0 (8)
0e1c2000 ffffffff81063700 (01) 55                       PUSH RBP
            store   0xffff8800019eedc8 0x00000000019eedc8 (8)
0e1c2000 ffffffff81063701 (02) 85ff                     TEST EDI, EDI
0e1c2000 ffffffff81063703 (10) 48 ba feffffffffffff3f   MOV RDX, 0x3ffffffffffffffe
0e1c2000 ffffffff8106370d (03) 48 89e5                  MOV RBP, RSP
0e1c2000 ffffffff81063710 (02) 78 1a                    JS 0xffffffff8106372c
0e1c2000 ffffffff81063712 (02) 89fa                     MOV EDX, EDI
0e1c2000 ffffffff81063714 (10) 48 b9 6766666666666666   MOV RCX, 0x6666666666666667
0e1c2000 ffffffff8106371e (04) 48 83c2 09               ADD RDX, 0x9
0e1c2000 ffffffff81063722 (03) 48 89d0                  MOV RAX, RDX
0e1c2000 ffffffff81063725 (03) 48 f7e9                  IMUL RCX
0e1c2000 ffffffff81063728 (04) 48 c1fa 02               SAR RDX, 0x2
0e1c2000 ffffffff8106372c (03) 48 89d0                  MOV RAX, RDX
0e1c2000 ffffffff8106372f (01) c9                       LEAVE 
            load    0xffff8800019eedc8 0x00000000019eedc8 (8)
0e1c2000 ffffffff81063730 (01) c3                       RET 
            load    0xffff8800019eedd0 0x00000000019eedd0 (8)
0e1c2000 ffffffff813cbebc (07) 48 8b15 fd894500         MOV RDX, [RIP+0x4589fd]
            load    0xffffffff818248c0 0x00000000018248c0 (8)
0e1c2000 ffffffff813cbec3 (03) 48 d1e8                  SHR RAX, 0x1
0e1c2000 ffffffff813cbec6 (05) b9 01000000              MOV ECX, 0x1
0e1c2000 ffffffff813cbecb (03) 48 01d0                  ADD RAX, RDX
0e1c2000 ffffffff813cbece (07) 48 8983 20050000         MOV [RBX+0x520], RAX
            store   0xffff88000f28bd20 0x000000000f28bd20 (8)
0e1c2000 ffffffff813cbed5 (02) eb 98                    JMP 0xffffffff813cbe6f
0e1c2000 ffffffff813cbe6f (03) 44 89ea                  MOV EDX, R13D
0e1c2000 ffffffff813cbe72 (05) be 01000000              MOV ESI, 0x1
0e1c2000 ffffffff813cbe77 (03) 4c 89ff                  MOV RDI, R15
0e1c2000 ffffffff813cbe7a (05) e8 f1a9ffff              CALL 0xffffffff813c6870
            store   0xffff8800019eedd0 0x00000000019eedd0 (8)
0e1c2000 ffffffff813c6870 (01) 55                       PUSH RBP
            store   0xffff8800019eedc8 0x00000000019eedc8 (8)
0e1c2000 ffffffff813c6871 (03) 48 89e5                  MOV RBP, RSP
0e1c2000 ffffffff813c6874 (04) 48 83ec 40               SUB RSP, 0x40
0e1c2000 ffffffff813c6878 (03) 83fe 1f                  CMP ESI, 0x1f
0e1c2000 ffffffff813c687b (04) 48 895d d8               MOV [RBP-0x28], RBX
            store   0xffff8800019eeda0 0x00000000019eeda0 (8)
0e1c2000 ffffffff813c687f (04) 4c 8965 e0               MOV [RBP-0x20], R12
            store   0xffff8800019eeda8 0x00000000019eeda8 (8)
0e1c2000 ffffffff813c6883 (02) 89f3                     MOV EBX, ESI
0e1c2000 ffffffff813c6885 (04) 4c 896d e8               MOV [RBP-0x18], R13
            store   0xffff8800019eedb0 0x00000000019eedb0 (8)
0e1c2000 ffffffff813c6889 (04) 4c 8975 f0               MOV [RBP-0x10], R14
            store   0xffff8800019eedb8 0x00000000019eedb8 (8)
0e1c2000 ffffffff813c688d (03) 49 89fc                  MOV R12, RDI
0e1c2000 ffffffff813c6890 (04) 4c 897d f8               MOV [RBP-0x8], R15
            store   0xffff8800019eedc0 0x00000000019eedc0 (8)
0e1c2000 ffffffff813c6894 (03) 41 89d5                  MOV R13D, EDX
0e1c2000 ffffffff813c6897 (02) 77 0a                    JA 0xffffffff813c68a3
0e1c2000 ffffffff813c6899 (04) 0fa377 20                BT [RDI+0x20], ESI
            load    0xffff88000d9ac020 0x000000000d9ac020 (4)
0e1c2000 ffffffff813c689d (02) 19c0                     SBB EAX, EAX
0e1c2000 ffffffff813c689f (02) 85c0                     TEST EAX, EAX
0e1c2000 ffffffff813c68a1 (02) 75 1d                    JNZ 0xffffffff813c68c0
0e1c2000 ffffffff813c68c0 (07) 4c 8db7 00080000         LEA R14, [RDI+0x800]
0e1c2000 ffffffff813c68c7 (03) 894d c8                  MOV [RBP-0x38], ECX
            store   0xffff8800019eed90 0x00000000019eed90 (4)
0e1c2000 ffffffff813c68ca (03) 4c 89f7                  MOV RDI, R14
0e1c2000 ffffffff813c68cd (05) e8 6e301600              CALL 0xffffffff81529940
            store   0xffff8800019eed80 0x00000000019eed80 (8)
0e1c2000 ffffffff81529940 (01) 55                       PUSH RBP
            store   0xffff8800019eed78 0x00000000019eed78 (8)
0e1c2000 ffffffff81529941 (03) 48 89e5                  MOV RBP, RSP
0e1c2000 ffffffff81529944 (04) 48 83ec 10               SUB RSP, 0x10
0e1c2000 ffffffff81529948 (04) 48 891c24                MOV [RSP], RBX
            store   0xffff8800019eed68 0x00000000019eed68 (8)
0e1c2000 ffffffff8152994c (05) 4c 896424 08             MOV [RSP+0x8], R12
            store   0xffff8800019eed70 0x00000000019eed70 (8)
0e1c2000 ffffffff81529951 (01) 9c                       PUSHF 
            store   0xffff8800019eed60 0x00000000019eed60 (8)
0e1c2000 ffffffff81529952 (01) 58                       POP RAX
            load    0xffff8800019eed60 0x00000000019eed60 (8)
0e1c2000 ffffffff81529953 (01) 66                       DB 0x66 
0e1c2000 ffffffff81529954 (01) 66                       DB 0x66 
0e1c2000 ffffffff81529954 (02) 66 90                    NOP 
0e1c2000 ffffffff81529956 (01) 66                       DB 0x66 
0e1c2000 ffffffff81529956 (02) 66 90                    NOP 
0e1c2000 ffffffff81529958 (03) 48 89c3                  MOV RBX, RAX
0e1c2000 ffffffff8152995b (01) fa                       CLI 
0e1c2000 ffffffff8152995c (01) 66                       DB 0x66 
0e1c2000 ffffffff8152995d (01) 66                       DB 0x66 
0e1c2000 ffffffff8152995d (02) 66 90                    NOP 
0e1c2000 ffffffff8152995f (01) 66                       DB 0x66 
0e1c2000 ffffffff81529960 (01) 66                       DB 0x66 
0e1c2000 ffffffff81529960 (02) 66 90                    NOP 
0e1c2000 ffffffff81529962 (03) 48 89de                  MOV RSI, RBX
0e1c2000 ffffffff81529965 (05) e8 a6cab0ff              CALL 0xffffffff81036410
            store   0xffff8800019eed60 0x00000000019eed60 (8)
0e1c2000 ffffffff81036410 (01) 55                       PUSH RBP
            store   0xffff8800019eed58 0x00000000019eed58 (8)
0e1c2000 ffffffff81036411 (03) 48 89e5                  MOV RBP, RSP
0e1c2000 ffffffff81036414 (05) e8 67ffffff              CALL 0xffffffff81036380
            store   0xffff8800019eed50 0x00000000019eed50 (8)
0e1c2000 ffffffff81036380 (01) 55                       PUSH RBP
            store   0xffff8800019eed48 0x00000000019eed48 (8)
0e1c2000 ffffffff81036381 (05) b8 00010000              MOV EAX, 0x100
0e1c2000 ffffffff81036386 (03) 48 89e5                  MOV RBP, RSP
0e1c2000 ffffffff81036389 (01) 3e                       DB 0x3e 
0e1c2000 ffffffff81036389 (05) 3e 66 0fc107             XADD [RDI], AX
            load    0xffff88000d9ac800 0x000000000d9ac800 (2)
            store   0xffff88000d9ac800 0x000000000d9ac800 (2)
0e1c2000 ffffffff8103638e (02) 38e0                     CMP AL, AH
0e1c2000 ffffffff81036390 (02) 74 06                    JZ 0xffffffff81036398
0e1c2000 ffffffff81036398 (01) c9                       LEAVE 
            load    0xffff8800019eed48 0x00000000019eed48 (8)
0e1c2000 ffffffff81036399 (01) c3                       RET 
            load    0xffff8800019eed50 0x00000000019eed50 (8)
0e1c2000 ffffffff81036419 (01) 66                       DB 0x66 
0e1c2000 ffffffff81036419 (02) 66 90                    NOP 
0e1c2000 ffffffff8103641b (01) c9                       LEAVE 
            load    0xffff8800019eed58 0x00000000019eed58 (8)
0e1c2000 ffffffff8103641c (01) c3                       RET 
            load    0xffff8800019eed60 0x00000000019eed60 (8)
0e1c2000 ffffffff8152996a (01) 66                       DB 0x66 
0e1c2000 ffffffff8152996a (02) 66 90                    NOP 
0e1c2000 ffffffff8152996c (03) 48 89d8                  MOV RAX, RBX
0e1c2000 ffffffff8152996f (05) 4c 8b6424 08             MOV R12, [RSP+0x8]
            load    0xffff8800019eed70 0x00000000019eed70 (8)
0e1c2000 ffffffff81529974 (04) 48 8b1c24                MOV RBX, [RSP]
            load    0xffff8800019eed68 0x00000000019eed68 (8)
0e1c2000 ffffffff81529978 (01) c9                       LEAVE 
            load    0xffff8800019eed78 0x00000000019eed78 (8)
0e1c2000 ffffffff81529979 (01) c3                       RET 
            load    0xffff8800019eed80 0x00000000019eed80 (8)
0e1c2000 ffffffff813c68d2 (03) 8b4d c8                  MOV ECX, [RBP-0x38]
            load    0xffff8800019eed90 0x00000000019eed90 (4)
0e1c2000 ffffffff813c68d5 (03) 44 89ee                  MOV ESI, R13D
0e1c2000 ffffffff813c68d8 (02) 89df                     MOV EDI, EBX
0e1c2000 ffffffff813c68da (03) 49 89c7                  MOV R15, RAX
0e1c2000 ffffffff813c68dd (02) 89ca                     MOV EDX, ECX
0e1c2000 ffffffff813c68df (05) e8 aca1f2ff              CALL 0xffffffff812f0a90
            store   0xffff8800019eed80 0x00000000019eed80 (8)
0e1c2000 ffffffff812f0a90 (07) 0fb605 a9f96d00          MOVZX EAX, BYTE [RIP+0x6df9a9]
            load    0xffffffff819d0440 0x00000000019d0440 (1)
0e1c2000 ffffffff812f0a97 (01) 55                       PUSH RBP
            store   0xffff8800019eed78 0x00000000019eed78 (8)
0e1c2000 ffffffff812f0a98 (03) 48 89e5                  MOV RBP, RSP
0e1c2000 ffffffff812f0a9b (02) 39d0                     CMP EAX, EDX
0e1c2000 ffffffff812f0a9d (02) 74 20                    JZ 0xffffffff812f0abf
0e1c2000 ffffffff812f0a9f (03) c1e7 04                  SHL EDI, 0x4
0e1c2000 ffffffff812f0aa2 (06) 8815 98f96d00            MOV [RIP+0x6df998], DL
            store   0xffffffff819d0440 0x00000000019d0440 (1)
0e1c2000 ffffffff812f0aa8 (02) 31f7                     XOR EDI, ESI
0e1c2000 ffffffff812f0aaa (03) c1ee 04                  SHR ESI, 0x4
0e1c2000 ffffffff812f0aad (02) 31d7                     XOR EDI, EDX
0e1c2000 ffffffff812f0aaf (02) 31f7                     XOR EDI, ESI
0e1c2000 ffffffff812f0ab1 (02) 89fe                     MOV ESI, EDI
0e1c2000 ffffffff812f0ab3 (07) 48 c7c7 60049d81         MOV RDI, -0x7e62fba0
0e1c2000 ffffffff812f0aba (05) e8 91feffff              CALL 0xffffffff812f0950
            store   0xffff8800019eed70 0x00000000019eed70 (8)
0e1c2000 ffffffff812f0950 (01) 55                       PUSH RBP
            store   0xffff8800019eed68 0x00000000019eed68 (8)
0e1c2000 ffffffff812f0951 (03) 48 89e5                  MOV RBP, RSP
0e1c2000 ffffffff812f0954 (02) 41 54                    PUSH R12
            store   0xffff8800019eed60 0x00000000019eed60 (8)
0e1c2000 ffffffff812f0956 (03) 41 89f4                  MOV R12D, ESI
0e1c2000 ffffffff812f0959 (01) 53                       PUSH RBX
            store   0xffff8800019eed58 0x00000000019eed58 (8)
0e1c2000 ffffffff812f095a (03) 48 89fb                  MOV RBX, RDI
0e1c2000 ffffffff812f095d (04) 48 83ec 20               SUB RSP, 0x20
0e1c2000 ffffffff812f0961 (06) 8b05 89004e00            MOV EAX, [RIP+0x4e0089]
            load    0xffffffff817d09f0 0x00000000017d09f0 (4)
0e1c2000 ffffffff812f0967 (06) 3b05 d3075300            CMP EAX, [RIP+0x5307d3]
            load    0xffffffff81821140 0x0000000001821140 (4)
0e1c2000 ffffffff812f096d (02) 7e 27                    JLE 0xffffffff812f0996
0e1c2000 ffffffff812f0996 (07) 48 8b05 233f5300         MOV RAX, [RIP+0x533f23]
            load    0xffffffff818248c0 0x00000000018248c0 (8)
0e1c2000 ffffffff812f099d (04) 48 8945 d8               MOV [RBP-0x28], RAX
            store   0xffff8800019eed40 0x00000000019eed40 (8)
0e1c2000 ffffffff812f09a1 (05) e8 1a8cd2ff              CALL 0xffffffff810195c0
            store   0xffff8800019eed30 0x00000000019eed30 (8)
0e1c2000 ffffffff810195c0 (01) 55                       PUSH RBP
            store   0xffff8800019eed28 0x00000000019eed28 (8)
0e1c2000 ffffffff810195c1 (03) 48 89e5                  MOV RBP, RSP
0e1c2000 ffffffff810195c4 (02) 0f31                     RDTSC 
0e1c2000 ffffffff810195c6 (02) 89c1                     MOV ECX, EAX
0e1c2000 ffffffff810195c8 (03) 48 89d0                  MOV RAX, RDX
0e1c2000 ffffffff810195cb (04) 48 c1e0 20               SHL RAX, 0x20
0e1c2000 ffffffff810195cf (02) 89c9                     MOV ECX, ECX
0e1c2000 ffffffff810195d1 (03) 48 09c8                  OR RAX, RCX
0e1c2000 ffffffff810195d4 (01) c9                       LEAVE 
            load    0xffff8800019eed28 0x00000000019eed28 (8)
0e1c2000 ffffffff810195d5 (01) c3                       RET 
            load    0xffff8800019eed30 0x00000000019eed30 (8)
0e1c2000 ffffffff812f09a6 (01) 66                       DB 0x66 
0e1c2000 ffffffff812f09a6 (02) 66 90                    NOP 
0e1c2000 ffffffff812f09a8 (04) 48 8d75 d0               LEA RSI, [RBP-0x30]
0e1c2000 ffffffff812f09ac (02) 31c9                     XOR ECX, ECX
0e1c2000 ffffffff812f09ae (05) ba 18000000              MOV EDX, 0x18
0e1c2000 ffffffff812f09b3 (07) 48 c7c7 c0097d81         MOV RDI, -0x7e82f640
0e1c2000 ffffffff812f09ba (04) 48 8945 d0               MOV [RBP-0x30], RAX
            store   0xffff8800019eed38 0x00000000019eed38 (8)
0e1c2000 ffffffff812f09be (04) 44 8965 e0               MOV [RBP-0x20], R12D
            store   0xffff8800019eed48 0x00000000019eed48 (4)
0e1c2000 ffffffff812f09c2 (05) e8 89fbffff              CALL 0xffffffff812f0550
            store   0xffff8800019eed30 0x00000000019eed30 (8)
0e1c2000 ffffffff812f0550 (01) 55                       PUSH RBP
            store   0xffff8800019eed28 0x00000000019eed28 (8)
0e1c2000 ffffffff812f0551 (03) 41 89d2                  MOV R10D, EDX
0e1c2000 ffffffff812f0554 (03) 48 89e5                  MOV RBP, RSP
0e1c2000 ffffffff812f0557 (02) 41 57                    PUSH R15
            store   0xffff8800019eed20 0x00000000019eed20 (8)
0e1c2000 ffffffff812f0559 (02) 41 56                    PUSH R14
            store   0xffff8800019eed18 0x00000000019eed18 (8)
0e1c2000 ffffffff812f055b (02) 41 55                    PUSH R13
            store   0xffff8800019eed10 0x00000000019eed10 (8)
0e1c2000 ffffffff812f055d (02) 41 54                    PUSH R12
            store   0xffff8800019eed08 0x00000000019eed08 (8)
0e1c2000 ffffffff812f055f (03) 49 89cc                  MOV R12, RCX
0e1c2000 ffffffff812f0562 (01) 53                       PUSH RBX
            store   0xffff8800019eed00 0x00000000019eed00 (8)
0e1c2000 ffffffff812f0563 (03) 48 89fb                  MOV RBX, RDI
0e1c2000 ffffffff812f0566 (04) 48 83ec 48               SUB RSP, 0x48
0e1c2000 ffffffff812f056a (03) 48 8b07                  MOV RAX, [RDI]
            load    0xffffffff817d09c0 0x00000000017d09c0 (8)
0e1c2000 ffffffff812f056d (02) 8b10                     MOV EDX, [RAX]
            load    0xffffffff817d0b40 0x00000000017d0b40 (4)
0e1c2000 ffffffff812f056f (03) 83ea 01                  SUB EDX, 0x1
0e1c2000 ffffffff812f0572 (03) 8955 b4                  MOV [RBP-0x4c], EDX
            store   0xffff8800019eecdc 0x00000000019eecdc (4)
0e1c2000 ffffffff812f0575 (04) 48 6350 04               MOVSXD RDX, [RAX+0x4]
            load    0xffffffff817d0b44 0x00000000017d0b44 (4)
0e1c2000 ffffffff812f0579 (04) 4c 6378 08               MOVSXD R15, [RAX+0x8]
            load    0xffffffff817d0b48 0x00000000017d0b48 (4)
0e1c2000 ffffffff812f057d (04) 4c 6370 0c               MOVSXD R14, [RAX+0xc]
            load    0xffffffff817d0b4c 0x00000000017d0b4c (4)
0e1c2000 ffffffff812f0581 (04) 4c 6368 10               MOVSXD R13, [RAX+0x10]
            load    0xffffffff817d0b50 0x00000000017d0b50 (4)
0e1c2000 ffffffff812f0585 (04) 48 6340 14               MOVSXD RAX, [RAX+0x14]
            load    0xffffffff817d0b54 0x00000000017d0b54 (4)
0e1c2000 ffffffff812f0589 (04) 48 8975 98               MOV [RBP-0x68], RSI
            store   0xffff8800019eecc0 0x00000000019eecc0 (8)
0e1c2000 ffffffff812f058d (04) 44 8955 90               MOV [RBP-0x70], R10D
            store   0xffff8800019eecb8 0x00000000019eecb8 (4)
0e1c2000 ffffffff812f0591 (04) 48 8955 a0               MOV [RBP-0x60], RDX
            store   0xffff8800019eecc8 0x00000000019eecc8 (8)
0e1c2000 ffffffff812f0595 (04) 48 8945 c0               MOV [RBP-0x40], RAX
            store   0xffff8800019eece8 0x00000000019eece8 (8)
0e1c2000 ffffffff812f0599 (04) 48 8d47 28               LEA RAX, [RDI+0x28]
0e1c2000 ffffffff812f059d (03) 48 89c7                  MOV RDI, RAX
0e1c2000 ffffffff812f05a0 (04) 48 8945 b8               MOV [RBP-0x48], RAX
            store   0xffff8800019eece0 0x00000000019eece0 (8)
0e1c2000 ffffffff812f05a4 (05) e8 97932300              CALL 0xffffffff81529940
            store   0xffff8800019eecb0 0x00000000019eecb0 (8)
0e1c2000 ffffffff81529940 (01) 55                       PUSH RBP
            store   0xffff8800019eeca8 0x00000000019eeca8 (8)
0e1c2000 ffffffff81529941 (03) 48 89e5                  MOV RBP, RSP
0e1c2000 ffffffff81529944 (04) 48 83ec 10               SUB RSP, 0x10
0e1c2000 ffffffff81529948 (04) 48 891c24                MOV [RSP], RBX
            store   0xffff8800019eec98 0x00000000019eec98 (8)
0e1c2000 ffffffff8152994c (05) 4c 896424 08             MOV [RSP+0x8], R12
            store   0xffff8800019eeca0 0x00000000019eeca0 (8)
0e1c2000 ffffffff81529951 (01) 9c                       PUSHF 
            store   0xffff8800019eec90 0x00000000019eec90 (8)
0e1c2000 ffffffff81529952 (01) 58                       POP RAX
            load    0xffff8800019eec90 0x00000000019eec90 (8)
0e1c2000 ffffffff81529953 (01) 66                       DB 0x66 
0e1c2000 ffffffff81529954 (01) 66                       DB 0x66 
0e1c2000 ffffffff81529954 (02) 66 90                    NOP 
0e1c2000 ffffffff81529956 (01) 66                       DB 0x66 
0e1c2000 ffffffff81529956 (02) 66 90                    NOP 
0e1c2000 ffffffff81529958 (03) 48 89c3                  MOV RBX, RAX
0e1c2000 ffffffff8152995b (01) fa                       CLI 
0e1c2000 ffffffff8152995c (01) 66                       DB 0x66 
0e1c2000 ffffffff8152995d (01) 66                       DB 0x66 
0e1c2000 ffffffff8152995d (02) 66 90                    NOP 
0e1c2000 ffffffff8152995f (01) 66                       DB 0x66 
0e1c2000 ffffffff81529960 (01) 66                       DB 0x66 
0e1c2000 ffffffff81529960 (02) 66 90                    NOP 
0e1c2000 ffffffff81529962 (03) 48 89de                  MOV RSI, RBX
0e1c2000 ffffffff81529965 (05) e8 a6cab0ff              CALL 0xffffffff81036410
            store   0xffff8800019eec90 0x00000000019eec90 (8)
0e1c2000 ffffffff81036410 (01) 55                       PUSH RBP
            store   0xffff8800019eec88 0x00000000019eec88 (8)
0e1c2000 ffffffff81036411 (03) 48 89e5                  MOV RBP, RSP
0e1c2000 ffffffff81036414 (05) e8 67ffffff              CALL 0xffffffff81036380
            store   0xffff8800019eec80 0x00000000019eec80 (8)
0e1c2000 ffffffff81036380 (01) 55                       PUSH RBP
            store   0xffff8800019eec78 0x00000000019eec78 (8)
0e1c2000 ffffffff81036381 (05) b8 00010000              MOV EAX, 0x100
0e1c2000 ffffffff81036386 (03) 48 89e5                  MOV RBP, RSP
0e1c2000 ffffffff81036389 (01) 3e                       DB 0x3e 
0e1c2000 ffffffff81036389 (05) 3e 66 0fc107             XADD [RDI], AX
            load    0xffffffff817d09e8 0x00000000017d09e8 (2)
            store   0xffffffff817d09e8 0x00000000017d09e8 (2)
0e1c2000 ffffffff8103638e (02) 38e0                     CMP AL, AH
0e1c2000 ffffffff81036390 (02) 74 06                    JZ 0xffffffff81036398
0e1c2000 ffffffff81036398 (01) c9                       LEAVE 
            load    0xffff8800019eec78 0x00000000019eec78 (8)
0e1c2000 ffffffff81036399 (01) c3                       RET 
            load    0xffff8800019eec80 0x00000000019eec80 (8)
0e1c2000 ffffffff81036419 (01) 66                       DB 0x66 
0e1c2000 ffffffff81036419 (02) 66 90                    NOP 
0e1c2000 ffffffff8103641b (01) c9                       LEAVE 
            load    0xffff8800019eec88 0x00000000019eec88 (8)
0e1c2000 ffffffff8103641c (01) c3                       RET 
            load    0xffff8800019eec90 0x00000000019eec90 (8)
0e1c2000 ffffffff8152996a (01) 66                       DB 0x66 
0e1c2000 ffffffff8152996a (02) 66 90                    NOP 
0e1c2000 ffffffff8152996c (03) 48 89d8                  MOV RAX, RBX
0e1c2000 ffffffff8152996f (05) 4c 8b6424 08             MOV R12, [RSP+0x8]
            load    0xffff8800019eeca0 0x00000000019eeca0 (8)
0e1c2000 ffffffff81529974 (04) 48 8b1c24                MOV RBX, [RSP]
            load    0xffff8800019eec98 0x00000000019eec98 (8)
0e1c2000 ffffffff81529978 (01) c9                       LEAVE 
            load    0xffff8800019eeca8 0x00000000019eeca8 (8)
0e1c2000 ffffffff81529979 (01) c3                       RET 
            load    0xffff8800019eecb0 0x00000000019eecb0 (8)
0e1c2000 ffffffff812f05a9 (04) 44 8b55 90               MOV R10D, [RBP-0x70]
            load    0xffff8800019eecb8 0x00000000019eecb8 (4)
0e1c2000 ffffffff812f05ad (04) 48 8945 a8               MOV [RBP-0x58], RAX
            store   0xffff8800019eecd0 0x00000000019eecd0 (8)
0e1c2000 ffffffff812f05b1 (04) 44 8b4b 34               MOV R9D, [RBX+0x34]
            load    0xffffffff817d09f4 0x00000000017d09f4 (4)
0e1c2000 ffffffff812f05b5 (03) 8b73 2c                  MOV ESI, [RBX+0x2c]
            load    0xffffffff817d09ec 0x00000000017d09ec (4)
0e1c2000 ffffffff812f05b8 (04) 48 8b55 a0               MOV RDX, [RBP-0x60]
            load    0xffff8800019eecc8 0x00000000019eecc8 (8)
0e1c2000 ffffffff812f05bc (04) 4c 8b45 98               MOV R8, [RBP-0x68]
            load    0xffff8800019eecc0 0x00000000019eecc0 (8)
0e1c2000 ffffffff812f05c0 (03) 45 85d2                  TEST R10D, R10D
0e1c2000 ffffffff812f05c3 (06) 0f84 a9000000            JZ 0xffffffff812f0672
0e1c2000 ffffffff812f05c9 (04) 41 83ea 01               SUB R10D, 0x1
0e1c2000 ffffffff812f05cd (04) 48 637d b4               MOVSXD RDI, [RBP-0x4c]
            load    0xffff8800019eecdc 0x00000000019eecdc (4)
0e1c2000 ffffffff812f05d1 (05) 4f 8d5410 01             LEA R10, [R8+R10+0x1]
0e1c2000 ffffffff812f05d6 (04) 4c 8955 c8               MOV [RBP-0x38], R10
            store   0xffff8800019eecf0 0x00000000019eecf0 (8)
0e1c2000 ffffffff812f05da (04) 4c 8b55 c0               MOV R10, [RBP-0x40]
            load    0xffff8800019eece8 0x00000000019eece8 (8)
0e1c2000 ffffffff812f05de (04) 4c 8965 c0               MOV [RBP-0x40], R12
            store   0xffff8800019eece8 0x00000000019eece8 (8)
0e1c2000 ffffffff812f05e2 (06) 66 0f1f4400 00           NOP WORD [RAX+RAX+0x0]
0e1c2000 ffffffff812f05e8 (04) 41 0fbe00                MOVSX EAX, BYTE [R8]
            load    0xffff8800019eed38 0x00000000019eed38 (1)
0e1c2000 ffffffff812f05ec (03) 44 89c9                  MOV ECX, R9D
0e1c2000 ffffffff812f05ef (04) 48 83ee 01               SUB RSI, 0x1
0e1c2000 ffffffff812f05f3 (03) 83e1 1f                  AND ECX, 0x1f
0e1c2000 ffffffff812f05f6 (03) 48 21fe                  AND RSI, RDI
0e1c2000 ffffffff812f05f9 (04) 49 83c0 01               ADD R8, 0x1
0e1c2000 ffffffff812f05fd (04) 4c 8d1c16                LEA R11, [RSI+RDX]
0e1c2000 ffffffff812f0601 (02) d3c0                     ROL EAX, CL
0e1c2000 ffffffff812f0603 (04) 48 8b4b 08               MOV RCX, [RBX+0x8]
            load    0xffffffff817d09c8 0x00000000017d09c8 (8)
0e1c2000 ffffffff812f0607 (03) 49 21fb                  AND R11, RDI
0e1c2000 ffffffff812f060a (04) 4c 8d24b1                LEA R12, [RCX+RSI*4]
0e1c2000 ffffffff812f060e (04) 41 330424                XOR EAX, [R12]
            load    0xffffffff819d05c4 0x00000000019d05c4 (4)
0e1c2000 ffffffff812f0612 (04) 42 330499                XOR EAX, [RCX+R11*4]
            load    0xffffffff819d0560 0x00000000019d0560 (4)
0e1c2000 ffffffff812f0616 (04) 4e 8d1c3e                LEA R11, [RSI+R15]
0e1c2000 ffffffff812f061a (03) 49 21fb                  AND R11, RDI
0e1c2000 ffffffff812f061d (04) 42 330499                XOR EAX, [RCX+R11*4]
            load    0xffffffff819d06f4 0x00000000019d06f4 (4)
0e1c2000 ffffffff812f0621 (04) 4e 8d1c36                LEA R11, [RSI+R14]
0e1c2000 ffffffff812f0625 (03) 49 21fb                  AND R11, RDI
0e1c2000 ffffffff812f0628 (04) 42 330499                XOR EAX, [RCX+R11*4]
            load    0xffffffff819d0690 0x00000000019d0690 (4)
0e1c2000 ffffffff812f062c (04) 4e 8d1c2e                LEA R11, [RSI+R13]
0e1c2000 ffffffff812f0630 (03) 49 21fb                  AND R11, RDI
0e1c2000 ffffffff812f0633 (04) 42 330499                XOR EAX, [RCX+R11*4]
            load    0xffffffff819d0628 0x00000000019d0628 (4)
0e1c2000 ffffffff812f0637 (04) 4e 8d1c16                LEA R11, [RSI+R10]
0e1c2000 ffffffff812f063b (03) 49 21fb                  AND R11, RDI
0e1c2000 ffffffff812f063e (04) 42 330499                XOR EAX, [RCX+R11*4]
            load    0xffffffff819d05c8 0x00000000019d05c8 (4)
0e1c2000 ffffffff812f0642 (03) 48 89c1                  MOV RCX, RAX
0e1c2000 ffffffff812f0645 (03) c1e8 03                  SHR EAX, 0x3
0e1c2000 ffffffff812f0648 (03) 83e1 07                  AND ECX, 0x7
0e1c2000 ffffffff812f064b (07) 33048d 401b5781          XOR EAX, [RCX*4-0x7ea8e4c0]
            load    0xffffffff81571b48 0x0000000001571b48 (4)
0e1c2000 ffffffff812f0652 (04) 48 83fe 01               CMP RSI, 0x1
0e1c2000 ffffffff812f0656 (04) 41 890424                MOV [R12], EAX
            store   0xffffffff819d05c4 0x00000000019d05c4 (4)
0e1c2000 ffffffff812f065a (02) 19c0                     SBB EAX, EAX
0e1c2000 ffffffff812f065c (03) 83e0 07                  AND EAX, 0x7
0e1c2000 ffffffff812f065f (04) 4c 3b45 c8               CMP R8, [RBP-0x38]
            load    0xffff8800019eecf0 0x00000000019eecf0 (8)
0e1c2000 ffffffff812f0663 (05) 45 8d4c01 07             LEA R9D, [R9+RAX+0x7]
0e1c2000 ffffffff812f0668 (06) 0f85 7affffff            JNZ 0xffffffff812f05e8
0e1c2000 ffffffff812f05e8 (04) 41 0fbe00                MOVSX EAX, BYTE [R8]
            load    0xffff8800019eed39 0x00000000019eed39 (1)
0e1c2000 ffffffff812f05ec (03) 44 89c9                  MOV ECX, R9D
0e1c2000 ffffffff812f05ef (04) 48 83ee 01               SUB RSI, 0x1
0e1c2000 ffffffff812f05f3 (03) 83e1 1f                  AND ECX, 0x1f
0e1c2000 ffffffff812f05f6 (03) 48 21fe                  AND RSI, RDI
0e1c2000 ffffffff812f05f9 (04) 49 83c0 01               ADD R8, 0x1
0e1c2000 ffffffff812f05fd (04) 4c 8d1c16                LEA R11, [RSI+RDX]
0e1c2000 ffffffff812f0601 (02) d3c0                     ROL EAX, CL
0e1c2000 ffffffff812f0603 (04) 48 8b4b 08               MOV RCX, [RBX+0x8]
            load    0xffffffff817d09c8 0x00000000017d09c8 (8)
0e1c2000 ffffffff812f0607 (03) 49 21fb                  AND R11, RDI
0e1c2000 ffffffff812f060a (04) 4c 8d24b1                LEA R12, [RCX+RSI*4]
0e1c2000 ffffffff812f060e (04) 41 330424                XOR EAX, [R12]
            load    0xffffffff819d05c0 0x00000000019d05c0 (4)
0e1c2000 ffffffff812f0612 (04) 42 330499                XOR EAX, [RCX+R11*4]
            load    0xffffffff819d055c 0x00000000019d055c (4)
0e1c2000 ffffffff812f0616 (04) 4e 8d1c3e                LEA R11, [RSI+R15]
0e1c2000 ffffffff812f061a (03) 49 21fb                  AND R11, RDI
0e1c2000 ffffffff812f061d (04) 42 330499                XOR EAX, [RCX+R11*4]
            load    0xffffffff819d06f0 0x00000000019d06f0 (4)
0e1c2000 ffffffff812f0621 (04) 4e 8d1c36                LEA R11, [RSI+R14]
0e1c2000 ffffffff812f0625 (03) 49 21fb                  AND R11, RDI
0e1c2000 ffffffff812f0628 (04) 42 330499                XOR EAX, [RCX+R11*4]
            load    0xffffffff819d068c 0x00000000019d068c (4)
0e1c2000 ffffffff812f062c (04) 4e 8d1c2e                LEA R11, [RSI+R13]
0e1c2000 ffffffff812f0630 (03) 49 21fb                  AND R11, RDI
0e1c2000 ffffffff812f0633 (04) 42 330499                XOR EAX, [RCX+R11*4]
            load    0xffffffff819d0624 0x00000000019d0624 (4)
0e1c2000 ffffffff812f0637 (04) 4e 8d1c16                LEA R11, [RSI+R10]
0e1c2000 ffffffff812f063b (03) 49 21fb                  AND R11, RDI
0e1c2000 ffffffff812f063e (04) 42 330499                XOR EAX, [RCX+R11*4]
            load    0xffffffff819d05c4 0x00000000019d05c4 (4)
0e1c2000 ffffffff812f0642 (03) 48 89c1                  MOV RCX, RAX
0e1c2000 ffffffff812f0645 (03) c1e8 03                  SHR EAX, 0x3
0e1c2000 ffffffff812f0648 (03) 83e1 07                  AND ECX, 0x7
0e1c2000 ffffffff812f064b (07) 33048d 401b5781          XOR EAX, [RCX*4-0x7ea8e4c0]
            load    0xffffffff81571b48 0x0000000001571b48 (4)
0e1c2000 ffffffff812f0652 (04) 48 83fe 01               CMP RSI, 0x1
0e1c2000 ffffffff812f0656 (04) 41 890424                MOV [R12], EAX
            store   0xffffffff819d05c0 0x00000000019d05c0 (4)
0e1c2000 ffffffff812f065a (02) 19c0                     SBB EAX, EAX
0e1c2000 ffffffff812f065c (03) 83e0 07                  AND EAX, 0x7
0e1c2000 ffffffff812f065f (04) 4c 3b45 c8               CMP R8, [RBP-0x38]
            load    0xffff8800019eecf0 0x00000000019eecf0 (8)
0e1c2000 ffffffff812f0663 (05) 45 8d4c01 07             LEA R9D, [R9+RAX+0x7]
0e1c2000 ffffffff812f0668 (06) 0f85 7affffff            JNZ 0xffffffff812f05e8
0e1c2000 ffffffff812f05e8 (04) 41 0fbe00                MOVSX EAX, BYTE [R8]
            load    0xffff8800019eed3a 0x00000000019eed3a (1)
0e1c2000 ffffffff812f05ec (03) 44 89c9                  MOV ECX, R9D
0e1c2000 ffffffff812f05ef (04) 48 83ee 01               SUB RSI, 0x1
0e1c2000 ffffffff812f05f3 (03) 83e1 1f                  AND ECX, 0x1f
0e1c2000 ffffffff812f05f6 (03) 48 21fe                  AND RSI, RDI
0e1c2000 ffffffff812f05f9 (04) 49 83c0 01               ADD R8, 0x1
0e1c2000 ffffffff812f05fd (04) 4c 8d1c16                LEA R11, [RSI+RDX]
0e1c2000 ffffffff812f0601 (02) d3c0                     ROL EAX, CL
0e1c2000 ffffffff812f0603 (04) 48 8b4b 08               MOV RCX, [RBX+0x8]
            load    0xffffffff817d09c8 0x00000000017d09c8 (8)
0e1c2000 ffffffff812f0607 (03) 49 21fb                  AND R11, RDI
0e1c2000 ffffffff812f060a (04) 4c 8d24b1                LEA R12, [RCX+RSI*4]
0e1c2000 ffffffff812f060e (04) 41 330424                XOR EAX, [R12]
            load    0xffffffff819d05bc 0x00000000019d05bc (4)
0e1c2000 ffffffff812f0612 (04) 42 330499                XOR EAX, [RCX+R11*4]
            load    0xffffffff819d0558 0x00000000019d0558 (4)
0e1c2000 ffffffff812f0616 (04) 4e 8d1c3e                LEA R11, [RSI+R15]
0e1c2000 ffffffff812f061a (03) 49 21fb                  AND R11, RDI
0e1c2000 ffffffff812f061d (04) 42 330499                XOR EAX, [RCX+R11*4]
            load    0xffffffff819d06ec 0x00000000019d06ec (4)
0e1c2000 ffffffff812f0621 (04) 4e 8d1c36                LEA R11, [RSI+R14]
0e1c2000 ffffffff812f0625 (03) 49 21fb                  AND R11, RDI
0e1c2000 ffffffff812f0628 (04) 42 330499                XOR EAX, [RCX+R11*4]
            load    0xffffffff819d0688 0x00000000019d0688 (4)
0e1c2000 ffffffff812f062c (04) 4e 8d1c2e                LEA R11, [RSI+R13]
0e1c2000 ffffffff812f0630 (03) 49 21fb                  AND R11, RDI
0e1c2000 ffffffff812f0633 (04) 42 330499                XOR EAX, [RCX+R11*4]
            load    0xffffffff819d0620 0x00000000019d0620 (4)
0e1c2000 ffffffff812f0637 (04) 4e 8d1c16                LEA R11, [RSI+R10]
0e1c2000 ffffffff812f063b (03) 49 21fb                  AND R11, RDI
0e1c2000 ffffffff812f063e (04) 42 330499                XOR EAX, [RCX+R11*4]
            load    0xffffffff819d05c0 0x00000000019d05c0 (4)
0e1c2000 ffffffff812f0642 (03) 48 89c1                  MOV RCX, RAX
0e1c2000 ffffffff812f0645 (03) c1e8 03                  SHR EAX, 0x3
0e1c2000 ffffffff812f0648 (03) 83e1 07                  AND ECX, 0x7
0e1c2000 ffffffff812f064b (07) 33048d 401b5781          XOR EAX, [RCX*4-0x7ea8e4c0]
            load    0xffffffff81571b4c 0x0000000001571b4c (4)
0e1c2000 ffffffff812f0652 (04) 48 83fe 01               CMP RSI, 0x1
0e1c2000 ffffffff812f0656 (04) 41 890424                MOV [R12], EAX
            store   0xffffffff819d05bc 0x00000000019d05bc (4)
0e1c2000 ffffffff812f065a (02) 19c0                     SBB EAX, EAX
0e1c2000 ffffffff812f065c (03) 83e0 07                  AND EAX, 0x7
0e1c2000 ffffffff812f065f (04) 4c 3b45 c8               CMP R8, [RBP-0x38]
            load    0xffff8800019eecf0 0x00000000019eecf0 (8)
0e1c2000 ffffffff812f0663 (05) 45 8d4c01 07             LEA R9D, [R9+RAX+0x7]
0e1c2000 ffffffff812f0668 (06) 0f85 7affffff            JNZ 0xffffffff812f05e8
0e1c2000 ffffffff812f05e8 (04) 41 0fbe00                MOVSX EAX, BYTE [R8]
            load    0xffff8800019eed3b 0x00000000019eed3b (1)
0e1c2000 ffffffff812f05ec (03) 44 89c9                  MOV ECX, R9D
0e1c2000 ffffffff812f05ef (04) 48 83ee 01               SUB RSI, 0x1
0e1c2000 ffffffff812f05f3 (03) 83e1 1f                  AND ECX, 0x1f
0e1c2000 ffffffff812f05f6 (03) 48 21fe                  AND RSI, RDI
0e1c2000 ffffffff812f05f9 (04) 49 83c0 01               ADD R8, 0x1
0e1c2000 ffffffff812f05fd (04) 4c 8d1c16                LEA R11, [RSI+RDX]
0e1c2000 ffffffff812f0601 (02) d3c0                     ROL EAX, CL
0e1c2000 ffffffff812f0603 (04) 48 8b4b 08               MOV RCX, [RBX+0x8]
            load    0xffffffff817d09c8 0x00000000017d09c8 (8)
0e1c2000 ffffffff812f0607 (03) 49 21fb                  AND R11, RDI
0e1c2000 ffffffff812f060a (04) 4c 8d24b1                LEA R12, [RCX+RSI*4]
0e1c2000 ffffffff812f060e (04) 41 330424                XOR EAX, [R12]
            load    0xffffffff819d05b8 0x00000000019d05b8 (4)
0e1c2000 ffffffff812f0612 (04) 42 330499                XOR EAX, [RCX+R11*4]
            load    0xffffffff819d0554 0x00000000019d0554 (4)
0e1c2000 ffffffff812f0616 (04) 4e 8d1c3e                LEA R11, [RSI+R15]
0e1c2000 ffffffff812f061a (03) 49 21fb                  AND R11, RDI
0e1c2000 ffffffff812f061d (04) 42 330499                XOR EAX, [RCX+R11*4]
            load    0xffffffff819d06e8 0x00000000019d06e8 (4)
0e1c2000 ffffffff812f0621 (04) 4e 8d1c36                LEA R11, [RSI+R14]
0e1c2000 ffffffff812f0625 (03) 49 21fb                  AND R11, RDI
0e1c2000 ffffffff812f0628 (04) 42 330499                XOR EAX, [RCX+R11*4]
            load    0xffffffff819d0684 0x00000000019d0684 (4)
0e1c2000 ffffffff812f062c (04) 4e 8d1c2e                LEA R11, [RSI+R13]
0e1c2000 ffffffff812f0630 (03) 49 21fb                  AND R11, RDI
0e1c2000 ffffffff812f0633 (04) 42 330499                XOR EAX, [RCX+R11*4]
            load    0xffffffff819d061c 0x00000000019d061c (4)
0e1c2000 ffffffff812f0637 (04) 4e 8d1c16                LEA R11, [RSI+R10]
0e1c2000 ffffffff812f063b (03) 49 21fb                  AND R11, RDI
0e1c2000 ffffffff812f063e (04) 42 330499                XOR EAX, [RCX+R11*4]
            load    0xffffffff819d05bc 0x00000000019d05bc (4)
0e1c2000 ffffffff812f0642 (03) 48 89c1                  MOV RCX, RAX
0e1c2000 ffffffff812f0645 (03) c1e8 03                  SHR EAX, 0x3
0e1c2000 ffffffff812f0648 (03) 83e1 07                  AND ECX, 0x7
0e1c2000 ffffffff812f064b (07) 33048d 401b5781          XOR EAX, [RCX*4-0x7ea8e4c0]
            load    0xffffffff81571b5c 0x0000000001571b5c (4)
0e1c2000 ffffffff812f0652 (04) 48 83fe 01               CMP RSI, 0x1
0e1c2000 ffffffff812f0656 (04) 41 890424                MOV [R12], EAX
            store   0xffffffff819d05b8 0x00000000019d05b8 (4)
0e1c2000 ffffffff812f065a (02) 19c0                     SBB EAX, EAX
0e1c2000 ffffffff812f065c (03) 83e0 07                  AND EAX, 0x7
0e1c2000 ffffffff812f065f (04) 4c 3b45 c8               CMP R8, [RBP-0x38]
            load    0xffff8800019eecf0 0x00000000019eecf0 (8)
0e1c2000 ffffffff812f0663 (05) 45 8d4c01 07             LEA R9D, [R9+RAX+0x7]
0e1c2000 ffffffff812f0668 (06) 0f85 7affffff            JNZ 0xffffffff812f05e8
0e1c2000 ffffffff812f05e8 (04) 41 0fbe00                MOVSX EAX, BYTE [R8]
            load    0xffff8800019eed3c 0x00000000019eed3c (1)
0e1c2000 ffffffff812f05ec (03) 44 89c9                  MOV ECX, R9D
0e1c2000 ffffffff812f05ef (04) 48 83ee 01               SUB RSI, 0x1
0e1c2000 ffffffff812f05f3 (03) 83e1 1f                  AND ECX, 0x1f
0e1c2000 ffffffff812f05f6 (03) 48 21fe                  AND RSI, RDI
0e1c2000 ffffffff812f05f9 (04) 49 83c0 01               ADD R8, 0x1
0e1c2000 ffffffff812f05fd (04) 4c 8d1c16                LEA R11, [RSI+RDX]
0e1c2000 ffffffff812f0601 (02) d3c0                     ROL EAX, CL
0e1c2000 ffffffff812f0603 (04) 48 8b4b 08               MOV RCX, [RBX+0x8]
            load    0xffffffff817d09c8 0x00000000017d09c8 (8)
0e1c2000 ffffffff812f0607 (03) 49 21fb                  AND R11, RDI
0e1c2000 ffffffff812f060a (04) 4c 8d24b1                LEA R12, [RCX+RSI*4]
0e1c2000 ffffffff812f060e (04) 41 330424                XOR EAX, [R12]
            load    0xffffffff819d05b4 0x00000000019d05b4 (4)
0e1c2000 ffffffff812f0612 (04) 42 330499                XOR EAX, [RCX+R11*4]
            load    0xffffffff819d0550 0x00000000019d0550 (4)
0e1c2000 ffffffff812f0616 (04) 4e 8d1c3e                LEA R11, [RSI+R15]
0e1c2000 ffffffff812f061a (03) 49 21fb                  AND R11, RDI
0e1c2000 ffffffff812f061d (04) 42 330499                XOR EAX, [RCX+R11*4]
            load    0xffffffff819d06e4 0x00000000019d06e4 (4)
0e1c2000 ffffffff812f0621 (04) 4e 8d1c36                LEA R11, [RSI+R14]
0e1c2000 ffffffff812f0625 (03) 49 21fb                  AND R11, RDI
0e1c2000 ffffffff812f0628 (04) 42 330499                XOR EAX, [RCX+R11*4]
            load    0xffffffff819d0680 0x00000000019d0680 (4)
0e1c2000 ffffffff812f062c (04) 4e 8d1c2e                LEA R11, [RSI+R13]
0e1c2000 ffffffff812f0630 (03) 49 21fb                  AND R11, RDI
0e1c2000 ffffffff812f0633 (04) 42 330499                XOR EAX, [RCX+R11*4]
            load    0xffffffff819d0618 0x00000000019d0618 (4)
0e1c2000 ffffffff812f0637 (04) 4e 8d1c16                LEA R11, [RSI+R10]
0e1c2000 ffffffff812f063b (03) 49 21fb                  AND R11, RDI
0e1c2000 ffffffff812f063e (04) 42 330499                XOR EAX, [RCX+R11*4]
            load    0xffffffff819d05b8 0x00000000019d05b8 (4)
0e1c2000 ffffffff812f0642 (03) 48 89c1                  MOV RCX, RAX
0e1c2000 ffffffff812f0645 (03) c1e8 03                  SHR EAX, 0x3
0e1c2000 ffffffff812f0648 (03) 83e1 07                  AND ECX, 0x7
0e1c2000 ffffffff812f064b (07) 33048d 401b5781          XOR EAX, [RCX*4-0x7ea8e4c0]
            load    0xffffffff81571b40 0x0000000001571b40 (4)
0e1c2000 ffffffff812f0652 (04) 48 83fe 01               CMP RSI, 0x1
0e1c2000 ffffffff812f0656 (04) 41 890424                MOV [R12], EAX
            store   0xffffffff819d05b4 0x00000000019d05b4 (4)
0e1c2000 ffffffff812f065a (02) 19c0                     SBB EAX, EAX
0e1c2000 ffffffff812f065c (03) 83e0 07                  AND EAX, 0x7
0e1c2000 ffffffff812f065f (04) 4c 3b45 c8               CMP R8, [RBP-0x38]
            load    0xffff8800019eecf0 0x00000000019eecf0 (8)
0e1c2000 ffffffff812f0663 (05) 45 8d4c01 07             LEA R9D, [R9+RAX+0x7]
0e1c2000 ffffffff812f0668 (06) 0f85 7affffff            JNZ 0xffffffff812f05e8
0e1c2000 ffffffff812f05e8 (04) 41 0fbe00                MOVSX EAX, BYTE [R8]
            load    0xffff8800019eed3d 0x00000000019eed3d (1)
0e1c2000 ffffffff812f05ec (03) 44 89c9                  MOV ECX, R9D
0e1c2000 ffffffff812f05ef (04) 48 83ee 01               SUB RSI, 0x1
0e1c2000 ffffffff812f05f3 (03) 83e1 1f                  AND ECX, 0x1f
0e1c2000 ffffffff812f05f6 (03) 48 21fe                  AND RSI, RDI
0e1c2000 ffffffff812f05f9 (04) 49 83c0 01               ADD R8, 0x1
0e1c2000 ffffffff812f05fd (04) 4c 8d1c16                LEA R11, [RSI+RDX]
0e1c2000 ffffffff812f0601 (02) d3c0                     ROL EAX, CL
0e1c2000 ffffffff812f0603 (04) 48 8b4b 08               MOV RCX, [RBX+0x8]
            load    0xffffffff817d09c8 0x00000000017d09c8 (8)
0e1c2000 ffffffff812f0607 (03) 49 21fb                  AND R11, RDI
0e1c2000 ffffffff812f060a (04) 4c 8d24b1                LEA R12, [RCX+RSI*4]
0e1c2000 ffffffff812f060e (04) 41 330424                XOR EAX, [R12]
            load    0xffffffff819d05b0 0x00000000019d05b0 (4)
0e1c2000 ffffffff812f0612 (04) 42 330499                XOR EAX, [RCX+R11*4]
            load    0xffffffff819d054c 0x00000000019d054c (4)
0e1c2000 ffffffff812f0616 (04) 4e 8d1c3e                LEA R11, [RSI+R15]
0e1c2000 ffffffff812f061a (03) 49 21fb                  AND R11, RDI
0e1c2000 ffffffff812f061d (04) 42 330499                XOR EAX, [RCX+R11*4]
            load    0xffffffff819d06e0 0x00000000019d06e0 (4)
0e1c2000 ffffffff812f0621 (04) 4e 8d1c36                LEA R11, [RSI+R14]
0e1c2000 ffffffff812f0625 (03) 49 21fb                  AND R11, RDI
0e1c2000 ffffffff812f0628 (04) 42 330499                XOR EAX, [RCX+R11*4]
            load    0xffffffff819d067c 0x00000000019d067c (4)
0e1c2000 ffffffff812f062c (04) 4e 8d1c2e                LEA R11, [RSI+R13]
0e1c2000 ffffffff812f0630 (03) 49 21fb                  AND R11, RDI
0e1c2000 ffffffff812f0633 (04) 42 330499                XOR EAX, [RCX+R11*4]
            load    0xffffffff819d0614 0x00000000019d0614 (4)
0e1c2000 ffffffff812f0637 (04) 4e 8d1c16                LEA R11, [RSI+R10]
0e1c2000 ffffffff812f063b (03) 49 21fb                  AND R11, RDI
0e1c2000 ffffffff812f063e (04) 42 330499                XOR EAX, [RCX+R11*4]
            load    0xffffffff819d05b4 0x00000000019d05b4 (4)
0e1c2000 ffffffff812f0642 (03) 48 89c1                  MOV RCX, RAX
0e1c2000 ffffffff812f0645 (03) c1e8 03                  SHR EAX, 0x3
0e1c2000 ffffffff812f0648 (03) 83e1 07                  AND ECX, 0x7
0e1c2000 ffffffff812f064b (07) 33048d 401b5781          XOR EAX, [RCX*4-0x7ea8e4c0]
            load    0xffffffff81571b58 0x0000000001571b58 (4)
0e1c2000 ffffffff812f0652 (04) 48 83fe 01               CMP RSI, 0x1
0e1c2000 ffffffff812f0656 (04) 41 890424                MOV [R12], EAX
            store   0xffffffff819d05b0 0x00000000019d05b0 (4)
0e1c2000 ffffffff812f065a (02) 19c0                     SBB EAX, EAX
0e1c2000 ffffffff812f065c (03) 83e0 07                  AND EAX, 0x7
0e1c2000 ffffffff812f065f (04) 4c 3b45 c8               CMP R8, [RBP-0x38]
            load    0xffff8800019eecf0 0x00000000019eecf0 (8)
0e1c2000 ffffffff812f0663 (05) 45 8d4c01 07             LEA R9D, [R9+RAX+0x7]
0e1c2000 ffffffff812f0668 (06) 0f85 7affffff            JNZ 0xffffffff812f05e8
0e1c2000 ffffffff812f05e8 (04) 41 0fbe00                MOVSX EAX, BYTE [R8]
            load    0xffff8800019eed3e 0x00000000019eed3e (1)
0e1c2000 ffffffff812f05ec (03) 44 89c9                  MOV ECX, R9D
0e1c2000 ffffffff812f05ef (04) 48 83ee 01               SUB RSI, 0x1
0e1c2000 ffffffff812f05f3 (03) 83e1 1f                  AND ECX, 0x1f
0e1c2000 ffffffff812f05f6 (03) 48 21fe                  AND RSI, RDI
0e1c2000 ffffffff812f05f9 (04) 49 83c0 01               ADD R8, 0x1
0e1c2000 ffffffff812f05fd (04) 4c 8d1c16                LEA R11, [RSI+RDX]
0e1c2000 ffffffff812f0601 (02) d3c0                     ROL EAX, CL
0e1c2000 ffffffff812f0603 (04) 48 8b4b 08               MOV RCX, [RBX+0x8]
            load    0xffffffff817d09c8 0x00000000017d09c8 (8)
0e1c2000 ffffffff812f0607 (03) 49 21fb                  AND R11, RDI
0e1c2000 ffffffff812f060a (04) 4c 8d24b1                LEA R12, [RCX+RSI*4]
0e1c2000 ffffffff812f060e (04) 41 330424                XOR EAX, [R12]
            load    0xffffffff819d05ac 0x00000000019d05ac (4)
0e1c2000 ffffffff812f0612 (04) 42 330499                XOR EAX, [RCX+R11*4]
            load    0xffffffff819d0548 0x00000000019d0548 (4)
0e1c2000 ffffffff812f0616 (04) 4e 8d1c3e                LEA R11, [RSI+R15]
0e1c2000 ffffffff812f061a (03) 49 21fb                  AND R11, RDI
0e1c2000 ffffffff812f061d (04) 42 330499                XOR EAX, [RCX+R11*4]
            load    0xffffffff819d06dc 0x00000000019d06dc (4)
0e1c2000 ffffffff812f0621 (04) 4e 8d1c36                LEA R11, [RSI+R14]
0e1c2000 ffffffff812f0625 (03) 49 21fb                  AND R11, RDI
0e1c2000 ffffffff812f0628 (04) 42 330499                XOR EAX, [RCX+R11*4]
            load    0xffffffff819d0678 0x00000000019d0678 (4)
0e1c2000 ffffffff812f062c (04) 4e 8d1c2e                LEA R11, [RSI+R13]
0e1c2000 ffffffff812f0630 (03) 49 21fb                  AND R11, RDI
0e1c2000 ffffffff812f0633 (04) 42 330499                XOR EAX, [RCX+R11*4]
            load    0xffffffff819d0610 0x00000000019d0610 (4)
0e1c2000 ffffffff812f0637 (04) 4e 8d1c16                LEA R11, [RSI+R10]
0e1c2000 ffffffff812f063b (03) 49 21fb                  AND R11, RDI
0e1c2000 ffffffff812f063e (04) 42 330499                XOR EAX, [RCX+R11*4]
            load    0xffffffff819d05b0 0x00000000019d05b0 (4)
0e1c2000 ffffffff812f0642 (03) 48 89c1                  MOV RCX, RAX
0e1c2000 ffffffff812f0645 (03) c1e8 03                  SHR EAX, 0x3
0e1c2000 ffffffff812f0648 (03) 83e1 07                  AND ECX, 0x7
0e1c2000 ffffffff812f064b (07) 33048d 401b5781          XOR EAX, [RCX*4-0x7ea8e4c0]
            load    0xffffffff81571b5c 0x0000000001571b5c (4)
0e1c2000 ffffffff812f0652 (04) 48 83fe 01               CMP RSI, 0x1
0e1c2000 ffffffff812f0656 (04) 41 890424                MOV [R12], EAX
            store   0xffffffff819d05ac 0x00000000019d05ac (4)
0e1c2000 ffffffff812f065a (02) 19c0                     SBB EAX, EAX
0e1c2000 ffffffff812f065c (03) 83e0 07                  AND EAX, 0x7
0e1c2000 ffffffff812f065f (04) 4c 3b45 c8               CMP R8, [RBP-0x38]
            load    0xffff8800019eecf0 0x00000000019eecf0 (8)
0e1c2000 ffffffff812f0663 (05) 45 8d4c01 07             LEA R9D, [R9+RAX+0x7]
0e1c2000 ffffffff812f0668 (06) 0f85 7affffff            JNZ 0xffffffff812f05e8
0e1c2000 ffffffff812f05e8 (04) 41 0fbe00                MOVSX EAX, BYTE [R8]
            load    0xffff8800019eed3f 0x00000000019eed3f (1)
0e1c2000 ffffffff812f05ec (03) 44 89c9                  MOV ECX, R9D
0e1c2000 ffffffff812f05ef (04) 48 83ee 01               SUB RSI, 0x1
0e1c2000 ffffffff812f05f3 (03) 83e1 1f                  AND ECX, 0x1f
0e1c2000 ffffffff812f05f6 (03) 48 21fe                  AND RSI, RDI
0e1c2000 ffffffff812f05f9 (04) 49 83c0 01               ADD R8, 0x1
0e1c2000 ffffffff812f05fd (04) 4c 8d1c16                LEA R11, [RSI+RDX]
0e1c2000 ffffffff812f0601 (02) d3c0                     ROL EAX, CL
0e1c2000 ffffffff812f0603 (04) 48 8b4b 08               MOV RCX, [RBX+0x8]
            load    0xffffffff817d09c8 0x00000000017d09c8 (8)
0e1c2000 ffffffff812f0607 (03) 49 21fb                  AND R11, RDI
0e1c2000 ffffffff812f060a (04) 4c 8d24b1                LEA R12, [RCX+RSI*4]
0e1c2000 ffffffff812f060e (04) 41 330424                XOR EAX, [R12]
            load    0xffffffff819d05a8 0x00000000019d05a8 (4)
0e1c2000 ffffffff812f0612 (04) 42 330499                XOR EAX, [RCX+R11*4]
            load    0xffffffff819d0544 0x00000000019d0544 (4)
0e1c2000 ffffffff812f0616 (04) 4e 8d1c3e                LEA R11, [RSI+R15]
0e1c2000 ffffffff812f061a (03) 49 21fb                  AND R11, RDI
0e1c2000 ffffffff812f061d (04) 42 330499                XOR EAX, [RCX+R11*4]
            load    0xffffffff819d06d8 0x00000000019d06d8 (4)
0e1c2000 ffffffff812f0621 (04) 4e 8d1c36                LEA R11, [RSI+R14]
0e1c2000 ffffffff812f0625 (03) 49 21fb                  AND R11, RDI
0e1c2000 ffffffff812f0628 (04) 42 330499                XOR EAX, [RCX+R11*4]
            load    0xffffffff819d0674 0x00000000019d0674 (4)
0e1c2000 ffffffff812f062c (04) 4e 8d1c2e                LEA R11, [RSI+R13]
0e1c2000 ffffffff812f0630 (03) 49 21fb                  AND R11, RDI
0e1c2000 ffffffff812f0633 (04) 42 330499                XOR EAX, [RCX+R11*4]
            load    0xffffffff819d060c 0x00000000019d060c (4)
0e1c2000 ffffffff812f0637 (04) 4e 8d1c16                LEA R11, [RSI+R10]
0e1c2000 ffffffff812f063b (03) 49 21fb                  AND R11, RDI
0e1c2000 ffffffff812f063e (04) 42 330499                XOR EAX, [RCX+R11*4]
            load    0xffffffff819d05ac 0x00000000019d05ac (4)
0e1c2000 ffffffff812f0642 (03) 48 89c1                  MOV RCX, RAX
0e1c2000 ffffffff812f0645 (03) c1e8 03                  SHR EAX, 0x3
0e1c2000 ffffffff812f0648 (03) 83e1 07                  AND ECX, 0x7
0e1c2000 ffffffff812f064b (07) 33048d 401b5781          XOR EAX, [RCX*4-0x7ea8e4c0]
            load    0xffffffff81571b44 0x0000000001571b44 (4)
0e1c2000 ffffffff812f0652 (04) 48 83fe 01               CMP RSI, 0x1
0e1c2000 ffffffff812f0656 (04) 41 890424                MOV [R12], EAX
            store   0xffffffff819d05a8 0x00000000019d05a8 (4)
0e1c2000 ffffffff812f065a (02) 19c0                     SBB EAX, EAX
0e1c2000 ffffffff812f065c (03) 83e0 07                  AND EAX, 0x7
0e1c2000 ffffffff812f065f (04) 4c 3b45 c8               CMP R8, [RBP-0x38]
            load    0xffff8800019eecf0 0x00000000019eecf0 (8)
0e1c2000 ffffffff812f0663 (05) 45 8d4c01 07             LEA R9D, [R9+RAX+0x7]
0e1c2000 ffffffff812f0668 (06) 0f85 7affffff            JNZ 0xffffffff812f05e8
0e1c2000 ffffffff812f05e8 (04) 41 0fbe00                MOVSX EAX, BYTE [R8]
            load    0xffff8800019eed40 0x00000000019eed40 (1)
0e1c2000 ffffffff812f05ec (03) 44 89c9                  MOV ECX, R9D
0e1c2000 ffffffff812f05ef (04) 48 83ee 01               SUB RSI, 0x1
0e1c2000 ffffffff812f05f3 (03) 83e1 1f                  AND ECX, 0x1f
0e1c2000 ffffffff812f05f6 (03) 48 21fe                  AND RSI, RDI
0e1c2000 ffffffff812f05f9 (04) 49 83c0 01               ADD R8, 0x1
0e1c2000 ffffffff812f05fd (04) 4c 8d1c16                LEA R11, [RSI+RDX]
0e1c2000 ffffffff812f0601 (02) d3c0                     ROL EAX, CL
0e1c2000 ffffffff812f0603 (04) 48 8b4b 08               MOV RCX, [RBX+0x8]
            load    0xffffffff817d09c8 0x00000000017d09c8 (8)
0e1c2000 ffffffff812f0607 (03) 49 21fb                  AND R11, RDI
0e1c2000 ffffffff812f060a (04) 4c 8d24b1                LEA R12, [RCX+RSI*4]
0e1c2000 ffffffff812f060e (04) 41 330424                XOR EAX, [R12]
            load    0xffffffff819d05a4 0x00000000019d05a4 (4)
0e1c2000 ffffffff812f0612 (04) 42 330499                XOR EAX, [RCX+R11*4]
            load    0xffffffff819d0540 0x00000000019d0540 (4)
0e1c2000 ffffffff812f0616 (04) 4e 8d1c3e                LEA R11, [RSI+R15]
0e1c2000 ffffffff812f061a (03) 49 21fb                  AND R11, RDI
0e1c2000 ffffffff812f061d (04) 42 330499                XOR EAX, [RCX+R11*4]
            load    0xffffffff819d06d4 0x00000000019d06d4 (4)
0e1c2000 ffffffff812f0621 (04) 4e 8d1c36                LEA R11, [RSI+R14]
0e1c2000 ffffffff812f0625 (03) 49 21fb                  AND R11, RDI
0e1c2000 ffffffff812f0628 (04) 42 330499                XOR EAX, [RCX+R11*4]
            load    0xffffffff819d0670 0x00000000019d0670 (4)
0e1c2000 ffffffff812f062c (04) 4e 8d1c2e                LEA R11, [RSI+R13]
0e1c2000 ffffffff812f0630 (03) 49 21fb                  AND R11, RDI
0e1c2000 ffffffff812f0633 (04) 42 330499                XOR EAX, [RCX+R11*4]
            load    0xffffffff819d0608 0x00000000019d0608 (4)
0e1c2000 ffffffff812f0637 (04) 4e 8d1c16                LEA R11, [RSI+R10]
0e1c2000 ffffffff812f063b (03) 49 21fb                  AND R11, RDI
0e1c2000 ffffffff812f063e (04) 42 330499                XOR EAX, [RCX+R11*4]
            load    0xffffffff819d05a8 0x00000000019d05a8 (4)
0e1c2000 ffffffff812f0642 (03) 48 89c1                  MOV RCX, RAX
0e1c2000 ffffffff812f0645 (03) c1e8 03                  SHR EAX, 0x3
0e1c2000 ffffffff812f0648 (03) 83e1 07                  AND ECX, 0x7
0e1c2000 ffffffff812f064b (07) 33048d 401b5781          XOR EAX, [RCX*4-0x7ea8e4c0]
            load    0xffffffff81571b54 0x0000000001571b54 (4)
0e1c2000 ffffffff812f0652 (04) 48 83fe 01               CMP RSI, 0x1
0e1c2000 ffffffff812f0656 (04) 41 890424                MOV [R12], EAX
            store   0xffffffff819d05a4 0x00000000019d05a4 (4)
0e1c2000 ffffffff812f065a (02) 19c0                     SBB EAX, EAX
0e1c2000 ffffffff812f065c (03) 83e0 07                  AND EAX, 0x7
0e1c2000 ffffffff812f065f (04) 4c 3b45 c8               CMP R8, [RBP-0x38]
            load    0xffff8800019eecf0 0x00000000019eecf0 (8)
0e1c2000 ffffffff812f0663 (05) 45 8d4c01 07             LEA R9D, [R9+RAX+0x7]
0e1c2000 ffffffff812f0668 (06) 0f85 7affffff            JNZ 0xffffffff812f05e8
0e1c2000 ffffffff812f05e8 (04) 41 0fbe00                MOVSX EAX, BYTE [R8]
            load    0xffff8800019eed41 0x00000000019eed41 (1)
0e1c2000 ffffffff812f05ec (03) 44 89c9                  MOV ECX, R9D
0e1c2000 ffffffff812f05ef (04) 48 83ee 01               SUB RSI, 0x1
0e1c2000 ffffffff812f05f3 (03) 83e1 1f                  AND ECX, 0x1f
0e1c2000 ffffffff812f05f6 (03) 48 21fe                  AND RSI, RDI
0e1c2000 ffffffff812f05f9 (04) 49 83c0 01               ADD R8, 0x1
0e1c2000 ffffffff812f05fd (04) 4c 8d1c16                LEA R11, [RSI+RDX]
0e1c2000 ffffffff812f0601 (02) d3c0                     ROL EAX, CL
0e1c2000 ffffffff812f0603 (04) 48 8b4b 08               MOV RCX, [RBX+0x8]
            load    0xffffffff817d09c8 0x00000000017d09c8 (8)
0e1c2000 ffffffff812f0607 (03) 49 21fb                  AND R11, RDI
0e1c2000 ffffffff812f060a (04) 4c 8d24b1                LEA R12, [RCX+RSI*4]
0e1c2000 ffffffff812f060e (04) 41 330424                XOR EAX, [R12]
            load    0xffffffff819d05a0 0x00000000019d05a0 (4)
0e1c2000 ffffffff812f0612 (04) 42 330499                XOR EAX, [RCX+R11*4]
            load    0xffffffff819d053c 0x00000000019d053c (4)
0e1c2000 ffffffff812f0616 (04) 4e 8d1c3e                LEA R11, [RSI+R15]
0e1c2000 ffffffff812f061a (03) 49 21fb                  AND R11, RDI
0e1c2000 ffffffff812f061d (04) 42 330499                XOR EAX, [RCX+R11*4]
            load    0xffffffff819d06d0 0x00000000019d06d0 (4)
0e1c2000 ffffffff812f0621 (04) 4e 8d1c36                LEA R11, [RSI+R14]
0e1c2000 ffffffff812f0625 (03) 49 21fb                  AND R11, RDI
0e1c2000 ffffffff812f0628 (04) 42 330499                XOR EAX, [RCX+R11*4]
            load    0xffffffff819d066c 0x00000000019d066c (4)
0e1c2000 ffffffff812f062c (04) 4e 8d1c2e                LEA R11, [RSI+R13]
0e1c2000 ffffffff812f0630 (03) 49 21fb                  AND R11, RDI
0e1c2000 ffffffff812f0633 (04) 42 330499                XOR EAX, [RCX+R11*4]
            load    0xffffffff819d0604 0x00000000019d0604 (4)
0e1c2000 ffffffff812f0637 (04) 4e 8d1c16                LEA R11, [RSI+R10]
0e1c2000 ffffffff812f063b (03) 49 21fb                  AND R11, RDI
0e1c2000 ffffffff812f063e (04) 42 330499                XOR EAX, [RCX+R11*4]
            load    0xffffffff819d05a4 0x00000000019d05a4 (4)
0e1c2000 ffffffff812f0642 (03) 48 89c1                  MOV RCX, RAX
0e1c2000 ffffffff812f0645 (03) c1e8 03                  SHR EAX, 0x3
0e1c2000 ffffffff812f0648 (03) 83e1 07                  AND ECX, 0x7
0e1c2000 ffffffff812f064b (07) 33048d 401b5781          XOR EAX, [RCX*4-0x7ea8e4c0]
            load    0xffffffff81571b48 0x0000000001571b48 (4)
0e1c2000 ffffffff812f0652 (04) 48 83fe 01               CMP RSI, 0x1
0e1c2000 ffffffff812f0656 (04) 41 890424                MOV [R12], EAX
            store   0xffffffff819d05a0 0x00000000019d05a0 (4)
0e1c2000 ffffffff812f065a (02) 19c0                     SBB EAX, EAX
0e1c2000 ffffffff812f065c (03) 83e0 07                  AND EAX, 0x7
0e1c2000 ffffffff812f065f (04) 4c 3b45 c8               CMP R8, [RBP-0x38]
            load    0xffff8800019eecf0 0x00000000019eecf0 (8)
0e1c2000 ffffffff812f0663 (05) 45 8d4c01 07             LEA R9D, [R9+RAX+0x7]
0e1c2000 ffffffff812f0668 (06) 0f85 7affffff            JNZ 0xffffffff812f05e8
0e1c2000 ffffffff812f05e8 (04) 41 0fbe00                MOVSX EAX, BYTE [R8]
            load    0xffff8800019eed42 0x00000000019eed42 (1)
0e1c2000 ffffffff812f05ec (03) 44 89c9                  MOV ECX, R9D
0e1c2000 ffffffff812f05ef (04) 48 83ee 01               SUB RSI, 0x1
0e1c2000 ffffffff812f05f3 (03) 83e1 1f                  AND ECX, 0x1f
0e1c2000 ffffffff812f05f6 (03) 48 21fe                  AND RSI, RDI
0e1c2000 ffffffff812f05f9 (04) 49 83c0 01               ADD R8, 0x1
0e1c2000 ffffffff812f05fd (04) 4c 8d1c16                LEA R11, [RSI+RDX]
0e1c2000 ffffffff812f0601 (02) d3c0                     ROL EAX, CL
0e1c2000 ffffffff812f0603 (04) 48 8b4b 08               MOV RCX, [RBX+0x8]
            load    0xffffffff817d09c8 0x00000000017d09c8 (8)
0e1c2000 ffffffff812f0607 (03) 49 21fb                  AND R11, RDI
0e1c2000 ffffffff812f060a (04) 4c 8d24b1                LEA R12, [RCX+RSI*4]
0e1c2000 ffffffff812f060e (04) 41 330424                XOR EAX, [R12]
            load    0xffffffff819d059c 0x00000000019d059c (4)
0e1c2000 ffffffff812f0612 (04) 42 330499                XOR EAX, [RCX+R11*4]
            load    0xffffffff819d0538 0x00000000019d0538 (4)
0e1c2000 ffffffff812f0616 (04) 4e 8d1c3e                LEA R11, [RSI+R15]
0e1c2000 ffffffff812f061a (03) 49 21fb                  AND R11, RDI
0e1c2000 ffffffff812f061d (04) 42 330499                XOR EAX, [RCX+R11*4]
            load    0xffffffff819d06cc 0x00000000019d06cc (4)
0e1c2000 ffffffff812f0621 (04) 4e 8d1c36                LEA R11, [RSI+R14]
0e1c2000 ffffffff812f0625 (03) 49 21fb                  AND R11, RDI
0e1c2000 ffffffff812f0628 (04) 42 330499                XOR EAX, [RCX+R11*4]
            load    0xffffffff819d0668 0x00000000019d0668 (4)
0e1c2000 ffffffff812f062c (04) 4e 8d1c2e                LEA R11, [RSI+R13]
0e1c2000 ffffffff812f0630 (03) 49 21fb                  AND R11, RDI
0e1c2000 ffffffff812f0633 (04) 42 330499                XOR EAX, [RCX+R11*4]
            load    0xffffffff819d0600 0x00000000019d0600 (4)
0e1c2000 ffffffff812f0637 (04) 4e 8d1c16                LEA R11, [RSI+R10]
0e1c2000 ffffffff812f063b (03) 49 21fb                  AND R11, RDI
0e1c2000 ffffffff812f063e (04) 42 330499                XOR EAX, [RCX+R11*4]
            load    0xffffffff819d05a0 0x00000000019d05a0 (4)
0e1c2000 ffffffff812f0642 (03) 48 89c1                  MOV RCX, RAX
0e1c2000 ffffffff812f0645 (03) c1e8 03                  SHR EAX, 0x3
0e1c2000 ffffffff812f0648 (03) 83e1 07                  AND ECX, 0x7
0e1c2000 ffffffff812f064b (07) 33048d 401b5781          XOR EAX, [RCX*4-0x7ea8e4c0]
            load    0xffffffff81571b4c 0x0000000001571b4c (4)
0e1c2000 ffffffff812f0652 (04) 48 83fe 01               CMP RSI, 0x1
0e1c2000 ffffffff812f0656 (04) 41 890424                MOV [R12], EAX
            store   0xffffffff819d059c 0x00000000019d059c (4)
0e1c2000 ffffffff812f065a (02) 19c0                     SBB EAX, EAX
0e1c2000 ffffffff812f065c (03) 83e0 07                  AND EAX, 0x7
0e1c2000 ffffffff812f065f (04) 4c 3b45 c8               CMP R8, [RBP-0x38]
            load    0xffff8800019eecf0 0x00000000019eecf0 (8)
0e1c2000 ffffffff812f0663 (05) 45 8d4c01 07             LEA R9D, [R9+RAX+0x7]
0e1c2000 ffffffff812f0668 (06) 0f85 7affffff            JNZ 0xffffffff812f05e8
0e1c2000 ffffffff812f05e8 (04) 41 0fbe00                MOVSX EAX, BYTE [R8]
            load    0xffff8800019eed43 0x00000000019eed43 (1)
0e1c2000 ffffffff812f05ec (03) 44 89c9                  MOV ECX, R9D
0e1c2000 ffffffff812f05ef (04) 48 83ee 01               SUB RSI, 0x1
0e1c2000 ffffffff812f05f3 (03) 83e1 1f                  AND ECX, 0x1f
0e1c2000 ffffffff812f05f6 (03) 48 21fe                  AND RSI, RDI
0e1c2000 ffffffff812f05f9 (04) 49 83c0 01               ADD R8, 0x1
0e1c2000 ffffffff812f05fd (04) 4c 8d1c16                LEA R11, [RSI+RDX]
0e1c2000 ffffffff812f0601 (02) d3c0                     ROL EAX, CL
0e1c2000 ffffffff812f0603 (04) 48 8b4b 08               MOV RCX, [RBX+0x8]
            load    0xffffffff817d09c8 0x00000000017d09c8 (8)
0e1c2000 ffffffff812f0607 (03) 49 21fb                  AND R11, RDI
0e1c2000 ffffffff812f060a (04) 4c 8d24b1                LEA R12, [RCX+RSI*4]
0e1c2000 ffffffff812f060e (04) 41 330424                XOR EAX, [R12]
            load    0xffffffff819d0598 0x00000000019d0598 (4)
0e1c2000 ffffffff812f0612 (04) 42 330499                XOR EAX, [RCX+R11*4]
            load    0xffffffff819d0534 0x00000000019d0534 (4)
0e1c2000 ffffffff812f0616 (04) 4e 8d1c3e                LEA R11, [RSI+R15]
0e1c2000 ffffffff812f061a (03) 49 21fb                  AND R11, RDI
0e1c2000 ffffffff812f061d (04) 42 330499                XOR EAX, [RCX+R11*4]
            load    0xffffffff819d06c8 0x00000000019d06c8 (4)
0e1c2000 ffffffff812f0621 (04) 4e 8d1c36                LEA R11, [RSI+R14]
0e1c2000 ffffffff812f0625 (03) 49 21fb                  AND R11, RDI
0e1c2000 ffffffff812f0628 (04) 42 330499                XOR EAX, [RCX+R11*4]
            load    0xffffffff819d0664 0x00000000019d0664 (4)
0e1c2000 ffffffff812f062c (04) 4e 8d1c2e                LEA R11, [RSI+R13]
0e1c2000 ffffffff812f0630 (03) 49 21fb                  AND R11, RDI
0e1c2000 ffffffff812f0633 (04) 42 330499                XOR EAX, [RCX+R11*4]
            load    0xffffffff819d05fc 0x00000000019d05fc (4)
0e1c2000 ffffffff812f0637 (04) 4e 8d1c16                LEA R11, [RSI+R10]
0e1c2000 ffffffff812f063b (03) 49 21fb                  AND R11, RDI
0e1c2000 ffffffff812f063e (04) 42 330499                XOR EAX, [RCX+R11*4]
            load    0xffffffff819d059c 0x00000000019d059c (4)
0e1c2000 ffffffff812f0642 (03) 48 89c1                  MOV RCX, RAX
0e1c2000 ffffffff812f0645 (03) c1e8 03                  SHR EAX, 0x3
0e1c2000 ffffffff812f0648 (03) 83e1 07                  AND ECX, 0x7
0e1c2000 ffffffff812f064b (07) 33048d 401b5781          XOR EAX, [RCX*4-0x7ea8e4c0]
            load    0xffffffff81571b4c 0x0000000001571b4c (4)
0e1c2000 ffffffff812f0652 (04) 48 83fe 01               CMP RSI, 0x1
0e1c2000 ffffffff812f0656 (04) 41 890424                MOV [R12], EAX
            store   0xffffffff819d0598 0x00000000019d0598 (4)
0e1c2000 ffffffff812f065a (02) 19c0                     SBB EAX, EAX
0e1c2000 ffffffff812f065c (03) 83e0 07                  AND EAX, 0x7
0e1c2000 ffffffff812f065f (04) 4c 3b45 c8               CMP R8, [RBP-0x38]
            load    0xffff8800019eecf0 0x00000000019eecf0 (8)
0e1c2000 ffffffff812f0663 (05) 45 8d4c01 07             LEA R9D, [R9+RAX+0x7]
0e1c2000 ffffffff812f0668 (06) 0f85 7affffff            JNZ 0xffffffff812f05e8
0e1c2000 ffffffff812f05e8 (04) 41 0fbe00                MOVSX EAX, BYTE [R8]
            load    0xffff8800019eed44 0x00000000019eed44 (1)
0e1c2000 ffffffff812f05ec (03) 44 89c9                  MOV ECX, R9D
0e1c2000 ffffffff812f05ef (04) 48 83ee 01               SUB RSI, 0x1
0e1c2000 ffffffff812f05f3 (03) 83e1 1f                  AND ECX, 0x1f
0e1c2000 ffffffff812f05f6 (03) 48 21fe                  AND RSI, RDI
0e1c2000 ffffffff812f05f9 (04) 49 83c0 01               ADD R8, 0x1
0e1c2000 ffffffff812f05fd (04) 4c 8d1c16                LEA R11, [RSI+RDX]
0e1c2000 ffffffff812f0601 (02) d3c0                     ROL EAX, CL
0e1c2000 ffffffff812f0603 (04) 48 8b4b 08               MOV RCX, [RBX+0x8]
            load    0xffffffff817d09c8 0x00000000017d09c8 (8)
0e1c2000 ffffffff812f0607 (03) 49 21fb                  AND R11, RDI
0e1c2000 ffffffff812f060a (04) 4c 8d24b1                LEA R12, [RCX+RSI*4]
0e1c2000 ffffffff812f060e (04) 41 330424                XOR EAX, [R12]
            load    0xffffffff819d0594 0x00000000019d0594 (4)
0e1c2000 ffffffff812f0612 (04) 42 330499                XOR EAX, [RCX+R11*4]
            load    0xffffffff819d0530 0x00000000019d0530 (4)
0e1c2000 ffffffff812f0616 (04) 4e 8d1c3e                LEA R11, [RSI+R15]
0e1c2000 ffffffff812f061a (03) 49 21fb                  AND R11, RDI
0e1c2000 ffffffff812f061d (04) 42 330499                XOR EAX, [RCX+R11*4]
            load    0xffffffff819d06c4 0x00000000019d06c4 (4)
0e1c2000 ffffffff812f0621 (04) 4e 8d1c36                LEA R11, [RSI+R14]
0e1c2000 ffffffff812f0625 (03) 49 21fb                  AND R11, RDI
0e1c2000 ffffffff812f0628 (04) 42 330499                XOR EAX, [RCX+R11*4]
            load    0xffffffff819d0660 0x00000000019d0660 (4)
0e1c2000 ffffffff812f062c (04) 4e 8d1c2e                LEA R11, [RSI+R13]
0e1c2000 ffffffff812f0630 (03) 49 21fb                  AND R11, RDI
0e1c2000 ffffffff812f0633 (04) 42 330499                XOR EAX, [RCX+R11*4]
            load    0xffffffff819d05f8 0x00000000019d05f8 (4)
0e1c2000 ffffffff812f0637 (04) 4e 8d1c16                LEA R11, [RSI+R10]
0e1c2000 ffffffff812f063b (03) 49 21fb                  AND R11, RDI
0e1c2000 ffffffff812f063e (04) 42 330499                XOR EAX, [RCX+R11*4]
            load    0xffffffff819d0598 0x00000000019d0598 (4)
0e1c2000 ffffffff812f0642 (03) 48 89c1                  MOV RCX, RAX
0e1c2000 ffffffff812f0645 (03) c1e8 03                  SHR EAX, 0x3
0e1c2000 ffffffff812f0648 (03) 83e1 07                  AND ECX, 0x7
0e1c2000 ffffffff812f064b (07) 33048d 401b5781          XOR EAX, [RCX*4-0x7ea8e4c0]
            load    0xffffffff81571b5c 0x0000000001571b5c (4)
0e1c2000 ffffffff812f0652 (04) 48 83fe 01               CMP RSI, 0x1
0e1c2000 ffffffff812f0656 (04) 41 890424                MOV [R12], EAX
            store   0xffffffff819d0594 0x00000000019d0594 (4)
0e1c2000 ffffffff812f065a (02) 19c0                     SBB EAX, EAX
0e1c2000 ffffffff812f065c (03) 83e0 07                  AND EAX, 0x7
0e1c2000 ffffffff812f065f (04) 4c 3b45 c8               CMP R8, [RBP-0x38]
            load    0xffff8800019eecf0 0x00000000019eecf0 (8)
0e1c2000 ffffffff812f0663 (05) 45 8d4c01 07             LEA R9D, [R9+RAX+0x7]
0e1c2000 ffffffff812f0668 (06) 0f85 7affffff            JNZ 0xffffffff812f05e8
0e1c2000 ffffffff812f05e8 (04) 41 0fbe00                MOVSX EAX, BYTE [R8]
            load    0xffff8800019eed45 0x00000000019eed45 (1)
0e1c2000 ffffffff812f05ec (03) 44 89c9                  MOV ECX, R9D
0e1c2000 ffffffff812f05ef (04) 48 83ee 01               SUB RSI, 0x1
0e1c2000 ffffffff812f05f3 (03) 83e1 1f                  AND ECX, 0x1f
0e1c2000 ffffffff812f05f6 (03) 48 21fe                  AND RSI, RDI
0e1c2000 ffffffff812f05f9 (04) 49 83c0 01               ADD R8, 0x1
0e1c2000 ffffffff812f05fd (04) 4c 8d1c16                LEA R11, [RSI+RDX]
0e1c2000 ffffffff812f0601 (02) d3c0                     ROL EAX, CL
0e1c2000 ffffffff812f0603 (04) 48 8b4b 08               MOV RCX, [RBX+0x8]
            load    0xffffffff817d09c8 0x00000000017d09c8 (8)
0e1c2000 ffffffff812f0607 (03) 49 21fb                  AND R11, RDI
0e1c2000 ffffffff812f060a (04) 4c 8d24b1                LEA R12, [RCX+RSI*4]
0e1c2000 ffffffff812f060e (04) 41 330424                XOR EAX, [R12]
            load    0xffffffff819d0590 0x00000000019d0590 (4)
0e1c2000 ffffffff812f0612 (04) 42 330499                XOR EAX, [RCX+R11*4]
            load    0xffffffff819d052c 0x00000000019d052c (4)
0e1c2000 ffffffff812f0616 (04) 4e 8d1c3e                LEA R11, [RSI+R15]
0e1c2000 ffffffff812f061a (03) 49 21fb                  AND R11, RDI
0e1c2000 ffffffff812f061d (04) 42 330499                XOR EAX, [RCX+R11*4]
            load    0xffffffff819d06c0 0x00000000019d06c0 (4)
0e1c2000 ffffffff812f0621 (04) 4e 8d1c36                LEA R11, [RSI+R14]
0e1c2000 ffffffff812f0625 (03) 49 21fb                  AND R11, RDI
0e1c2000 ffffffff812f0628 (04) 42 330499                XOR EAX, [RCX+R11*4]
            load    0xffffffff819d065c 0x00000000019d065c (4)
0e1c2000 ffffffff812f062c (04) 4e 8d1c2e                LEA R11, [RSI+R13]
0e1c2000 ffffffff812f0630 (03) 49 21fb                  AND R11, RDI
0e1c2000 ffffffff812f0633 (04) 42 330499                XOR EAX, [RCX+R11*4]
            load    0xffffffff819d05f4 0x00000000019d05f4 (4)
0e1c2000 ffffffff812f0637 (04) 4e 8d1c16                LEA R11, [RSI+R10]
0e1c2000 ffffffff812f063b (03) 49 21fb                  AND R11, RDI
0e1c2000 ffffffff812f063e (04) 42 330499                XOR EAX, [RCX+R11*4]
            load    0xffffffff819d0594 0x00000000019d0594 (4)
0e1c2000 ffffffff812f0642 (03) 48 89c1                  MOV RCX, RAX
0e1c2000 ffffffff812f0645 (03) c1e8 03                  SHR EAX, 0x3
0e1c2000 ffffffff812f0648 (03) 83e1 07                  AND ECX, 0x7
0e1c2000 ffffffff812f064b (07) 33048d 401b5781          XOR EAX, [RCX*4-0x7ea8e4c0]
            load    0xffffffff81571b54 0x0000000001571b54 (4)
0e1c2000 ffffffff812f0652 (04) 48 83fe 01               CMP RSI, 0x1
0e1c2000 ffffffff812f0656 (04) 41 890424                MOV [R12], EAX
            store   0xffffffff819d0590 0x00000000019d0590 (4)
0e1c2000 ffffffff812f065a (02) 19c0                     SBB EAX, EAX
0e1c2000 ffffffff812f065c (03) 83e0 07                  AND EAX, 0x7
0e1c2000 ffffffff812f065f (04) 4c 3b45 c8               CMP R8, [RBP-0x38]
            load    0xffff8800019eecf0 0x00000000019eecf0 (8)
0e1c2000 ffffffff812f0663 (05) 45 8d4c01 07             LEA R9D, [R9+RAX+0x7]
0e1c2000 ffffffff812f0668 (06) 0f85 7affffff            JNZ 0xffffffff812f05e8
0e1c2000 ffffffff812f05e8 (04) 41 0fbe00                MOVSX EAX, BYTE [R8]
            load    0xffff8800019eed46 0x00000000019eed46 (1)
0e1c2000 ffffffff812f05ec (03) 44 89c9                  MOV ECX, R9D
0e1c2000 ffffffff812f05ef (04) 48 83ee 01               SUB RSI, 0x1
0e1c2000 ffffffff812f05f3 (03) 83e1 1f                  AND ECX, 0x1f
0e1c2000 ffffffff812f05f6 (03) 48 21fe                  AND RSI, RDI
0e1c2000 ffffffff812f05f9 (04) 49 83c0 01               ADD R8, 0x1
0e1c2000 ffffffff812f05fd (04) 4c 8d1c16                LEA R11, [RSI+RDX]
0e1c2000 ffffffff812f0601 (02) d3c0                     ROL EAX, CL
0e1c2000 ffffffff812f0603 (04) 48 8b4b 08               MOV RCX, [RBX+0x8]
            load    0xffffffff817d09c8 0x00000000017d09c8 (8)
0e1c2000 ffffffff812f0607 (03) 49 21fb                  AND R11, RDI
0e1c2000 ffffffff812f060a (04) 4c 8d24b1                LEA R12, [RCX+RSI*4]
0e1c2000 ffffffff812f060e (04) 41 330424                XOR EAX, [R12]
            load    0xffffffff819d058c 0x00000000019d058c (4)
0e1c2000 ffffffff812f0612 (04) 42 330499                XOR EAX, [RCX+R11*4]
            load    0xffffffff819d0528 0x00000000019d0528 (4)
0e1c2000 ffffffff812f0616 (04) 4e 8d1c3e                LEA R11, [RSI+R15]
0e1c2000 ffffffff812f061a (03) 49 21fb                  AND R11, RDI
0e1c2000 ffffffff812f061d (04) 42 330499                XOR EAX, [RCX+R11*4]
            load    0xffffffff819d06bc 0x00000000019d06bc (4)
0e1c2000 ffffffff812f0621 (04) 4e 8d1c36                LEA R11, [RSI+R14]
0e1c2000 ffffffff812f0625 (03) 49 21fb                  AND R11, RDI
0e1c2000 ffffffff812f0628 (04) 42 330499                XOR EAX, [RCX+R11*4]
            load    0xffffffff819d0658 0x00000000019d0658 (4)
0e1c2000 ffffffff812f062c (04) 4e 8d1c2e                LEA R11, [RSI+R13]
0e1c2000 ffffffff812f0630 (03) 49 21fb                  AND R11, RDI
0e1c2000 ffffffff812f0633 (04) 42 330499                XOR EAX, [RCX+R11*4]
            load    0xffffffff819d05f0 0x00000000019d05f0 (4)
0e1c2000 ffffffff812f0637 (04) 4e 8d1c16                LEA R11, [RSI+R10]
0e1c2000 ffffffff812f063b (03) 49 21fb                  AND R11, RDI
0e1c2000 ffffffff812f063e (04) 42 330499                XOR EAX, [RCX+R11*4]
            load    0xffffffff819d0590 0x00000000019d0590 (4)
0e1c2000 ffffffff812f0642 (03) 48 89c1                  MOV RCX, RAX
0e1c2000 ffffffff812f0645 (03) c1e8 03                  SHR EAX, 0x3
0e1c2000 ffffffff812f0648 (03) 83e1 07                  AND ECX, 0x7
0e1c2000 ffffffff812f064b (07) 33048d 401b5781          XOR EAX, [RCX*4-0x7ea8e4c0]
            load    0xffffffff81571b54 0x0000000001571b54 (4)
0e1c2000 ffffffff812f0652 (04) 48 83fe 01               CMP RSI, 0x1
0e1c2000 ffffffff812f0656 (04) 41 890424                MOV [R12], EAX
            store   0xffffffff819d058c 0x00000000019d058c (4)
0e1c2000 ffffffff812f065a (02) 19c0                     SBB EAX, EAX
0e1c2000 ffffffff812f065c (03) 83e0 07                  AND EAX, 0x7
0e1c2000 ffffffff812f065f (04) 4c 3b45 c8               CMP R8, [RBP-0x38]
            load    0xffff8800019eecf0 0x00000000019eecf0 (8)
0e1c2000 ffffffff812f0663 (05) 45 8d4c01 07             LEA R9D, [R9+RAX+0x7]
0e1c2000 ffffffff812f0668 (06) 0f85 7affffff            JNZ 0xffffffff812f05e8
0e1c2000 ffffffff812f05e8 (04) 41 0fbe00                MOVSX EAX, BYTE [R8]
            load    0xffff8800019eed47 0x00000000019eed47 (1)
0e1c2000 ffffffff812f05ec (03) 44 89c9                  MOV ECX, R9D
0e1c2000 ffffffff812f05ef (04) 48 83ee 01               SUB RSI, 0x1
0e1c2000 ffffffff812f05f3 (03) 83e1 1f                  AND ECX, 0x1f
0e1c2000 ffffffff812f05f6 (03) 48 21fe                  AND RSI, RDI
0e1c2000 ffffffff812f05f9 (04) 49 83c0 01               ADD R8, 0x1
0e1c2000 ffffffff812f05fd (04) 4c 8d1c16                LEA R11, [RSI+RDX]
0e1c2000 ffffffff812f0601 (02) d3c0                     ROL EAX, CL
0e1c2000 ffffffff812f0603 (04) 48 8b4b 08               MOV RCX, [RBX+0x8]
            load    0xffffffff817d09c8 0x00000000017d09c8 (8)
0e1c2000 ffffffff812f0607 (03) 49 21fb                  AND R11, RDI
0e1c2000 ffffffff812f060a (04) 4c 8d24b1                LEA R12, [RCX+RSI*4]
0e1c2000 ffffffff812f060e (04) 41 330424                XOR EAX, [R12]
            load    0xffffffff819d0588 0x00000000019d0588 (4)
0e1c2000 ffffffff812f0612 (04) 42 330499                XOR EAX, [RCX+R11*4]
            load    0xffffffff819d0524 0x00000000019d0524 (4)
0e1c2000 ffffffff812f0616 (04) 4e 8d1c3e                LEA R11, [RSI+R15]
0e1c2000 ffffffff812f061a (03) 49 21fb                  AND R11, RDI
0e1c2000 ffffffff812f061d (04) 42 330499                XOR EAX, [RCX+R11*4]
            load    0xffffffff819d06b8 0x00000000019d06b8 (4)
0e1c2000 ffffffff812f0621 (04) 4e 8d1c36                LEA R11, [RSI+R14]
0e1c2000 ffffffff812f0625 (03) 49 21fb                  AND R11, RDI
0e1c2000 ffffffff812f0628 (04) 42 330499                XOR EAX, [RCX+R11*4]
            load    0xffffffff819d0654 0x00000000019d0654 (4)
0e1c2000 ffffffff812f062c (04) 4e 8d1c2e                LEA R11, [RSI+R13]
0e1c2000 ffffffff812f0630 (03) 49 21fb                  AND R11, RDI
0e1c2000 ffffffff812f0633 (04) 42 330499                XOR EAX, [RCX+R11*4]
            load    0xffffffff819d05ec 0x00000000019d05ec (4)
0e1c2000 ffffffff812f0637 (04) 4e 8d1c16                LEA R11, [RSI+R10]
0e1c2000 ffffffff812f063b (03) 49 21fb                  AND R11, RDI
0e1c2000 ffffffff812f063e (04) 42 330499                XOR EAX, [RCX+R11*4]
            load    0xffffffff819d058c 0x00000000019d058c (4)
0e1c2000 ffffffff812f0642 (03) 48 89c1                  MOV RCX, RAX
0e1c2000 ffffffff812f0645 (03) c1e8 03                  SHR EAX, 0x3
0e1c2000 ffffffff812f0648 (03) 83e1 07                  AND ECX, 0x7
0e1c2000 ffffffff812f064b (07) 33048d 401b5781          XOR EAX, [RCX*4-0x7ea8e4c0]
            load    0xffffffff81571b4c 0x0000000001571b4c (4)
0e1c2000 ffffffff812f0652 (04) 48 83fe 01               CMP RSI, 0x1
0e1c2000 ffffffff812f0656 (04) 41 890424                MOV [R12], EAX
            store   0xffffffff819d0588 0x00000000019d0588 (4)
0e1c2000 ffffffff812f065a (02) 19c0                     SBB EAX, EAX
0e1c2000 ffffffff812f065c (03) 83e0 07                  AND EAX, 0x7
0e1c2000 ffffffff812f065f (04) 4c 3b45 c8               CMP R8, [RBP-0x38]
            load    0xffff8800019eecf0 0x00000000019eecf0 (8)
0e1c2000 ffffffff812f0663 (05) 45 8d4c01 07             LEA R9D, [R9+RAX+0x7]
0e1c2000 ffffffff812f0668 (06) 0f85 7affffff            JNZ 0xffffffff812f05e8
0e1c2000 ffffffff812f05e8 (04) 41 0fbe00                MOVSX EAX, BYTE [R8]
            load    0xffff8800019eed48 0x00000000019eed48 (1)
0e1c2000 ffffffff812f05ec (03) 44 89c9                  MOV ECX, R9D
0e1c2000 ffffffff812f05ef (04) 48 83ee 01               SUB RSI, 0x1
0e1c2000 ffffffff812f05f3 (03) 83e1 1f                  AND ECX, 0x1f
0e1c2000 ffffffff812f05f6 (03) 48 21fe                  AND RSI, RDI
0e1c2000 ffffffff812f05f9 (04) 49 83c0 01               ADD R8, 0x1
0e1c2000 ffffffff812f05fd (04) 4c 8d1c16                LEA R11, [RSI+RDX]
0e1c2000 ffffffff812f0601 (02) d3c0                     ROL EAX, CL
0e1c2000 ffffffff812f0603 (04) 48 8b4b 08               MOV RCX, [RBX+0x8]
            load    0xffffffff817d09c8 0x00000000017d09c8 (8)
0e1c2000 ffffffff812f0607 (03) 49 21fb                  AND R11, RDI
0e1c2000 ffffffff812f060a (04) 4c 8d24b1                LEA R12, [RCX+RSI*4]
0e1c2000 ffffffff812f060e (04) 41 330424                XOR EAX, [R12]
            load    0xffffffff819d0584 0x00000000019d0584 (4)
0e1c2000 ffffffff812f0612 (04) 42 330499                XOR EAX, [RCX+R11*4]
            load    0xffffffff819d0520 0x00000000019d0520 (4)
0e1c2000 ffffffff812f0616 (04) 4e 8d1c3e                LEA R11, [RSI+R15]
0e1c2000 ffffffff812f061a (03) 49 21fb                  AND R11, RDI
0e1c2000 ffffffff812f061d (04) 42 330499                XOR EAX, [RCX+R11*4]
            load    0xffffffff819d06b4 0x00000000019d06b4 (4)
0e1c2000 ffffffff812f0621 (04) 4e 8d1c36                LEA R11, [RSI+R14]
0e1c2000 ffffffff812f0625 (03) 49 21fb                  AND R11, RDI
0e1c2000 ffffffff812f0628 (04) 42 330499                XOR EAX, [RCX+R11*4]
            load    0xffffffff819d0650 0x00000000019d0650 (4)
0e1c2000 ffffffff812f062c (04) 4e 8d1c2e                LEA R11, [RSI+R13]
0e1c2000 ffffffff812f0630 (03) 49 21fb                  AND R11, RDI
0e1c2000 ffffffff812f0633 (04) 42 330499                XOR EAX, [RCX+R11*4]
            load    0xffffffff819d05e8 0x00000000019d05e8 (4)
0e1c2000 ffffffff812f0637 (04) 4e 8d1c16                LEA R11, [RSI+R10]
0e1c2000 ffffffff812f063b (03) 49 21fb                  AND R11, RDI
0e1c2000 ffffffff812f063e (04) 42 330499                XOR EAX, [RCX+R11*4]
            load    0xffffffff819d0588 0x00000000019d0588 (4)
0e1c2000 ffffffff812f0642 (03) 48 89c1                  MOV RCX, RAX
0e1c2000 ffffffff812f0645 (03) c1e8 03                  SHR EAX, 0x3
0e1c2000 ffffffff812f0648 (03) 83e1 07                  AND ECX, 0x7
0e1c2000 ffffffff812f064b (07) 33048d 401b5781          XOR EAX, [RCX*4-0x7ea8e4c0]
            load    0xffffffff81571b54 0x0000000001571b54 (4)
0e1c2000 ffffffff812f0652 (04) 48 83fe 01               CMP RSI, 0x1
0e1c2000 ffffffff812f0656 (04) 41 890424                MOV [R12], EAX
            store   0xffffffff819d0584 0x00000000019d0584 (4)
0e1c2000 ffffffff812f065a (02) 19c0                     SBB EAX, EAX
0e1c2000 ffffffff812f065c (03) 83e0 07                  AND EAX, 0x7
0e1c2000 ffffffff812f065f (04) 4c 3b45 c8               CMP R8, [RBP-0x38]
            load    0xffff8800019eecf0 0x00000000019eecf0 (8)
0e1c2000 ffffffff812f0663 (05) 45 8d4c01 07             LEA R9D, [R9+RAX+0x7]
0e1c2000 ffffffff812f0668 (06) 0f85 7affffff            JNZ 0xffffffff812f05e8
0e1c2000 ffffffff812f05e8 (04) 41 0fbe00                MOVSX EAX, BYTE [R8]
            load    0xffff8800019eed49 0x00000000019eed49 (1)
0e1c2000 ffffffff812f05ec (03) 44 89c9                  MOV ECX, R9D
0e1c2000 ffffffff812f05ef (04) 48 83ee 01               SUB RSI, 0x1
0e1c2000 ffffffff812f05f3 (03) 83e1 1f                  AND ECX, 0x1f
0e1c2000 ffffffff812f05f6 (03) 48 21fe                  AND RSI, RDI
0e1c2000 ffffffff812f05f9 (04) 49 83c0 01               ADD R8, 0x1
0e1c2000 ffffffff812f05fd (04) 4c 8d1c16                LEA R11, [RSI+RDX]
0e1c2000 ffffffff812f0601 (02) d3c0                     ROL EAX, CL
0e1c2000 ffffffff812f0603 (04) 48 8b4b 08               MOV RCX, [RBX+0x8]
            load    0xffffffff817d09c8 0x00000000017d09c8 (8)
0e1c2000 ffffffff812f0607 (03) 49 21fb                  AND R11, RDI
0e1c2000 ffffffff812f060a (04) 4c 8d24b1                LEA R12, [RCX+RSI*4]
0e1c2000 ffffffff812f060e (04) 41 330424                XOR EAX, [R12]
            load    0xffffffff819d0580 0x00000000019d0580 (4)
0e1c2000 ffffffff812f0612 (04) 42 330499                XOR EAX, [RCX+R11*4]
            load    0xffffffff819d071c 0x00000000019d071c (4)
0e1c2000 ffffffff812f0616 (04) 4e 8d1c3e                LEA R11, [RSI+R15]
0e1c2000 ffffffff812f061a (03) 49 21fb                  AND R11, RDI
0e1c2000 ffffffff812f061d (04) 42 330499                XOR EAX, [RCX+R11*4]
            load    0xffffffff819d06b0 0x00000000019d06b0 (4)
0e1c2000 ffffffff812f0621 (04) 4e 8d1c36                LEA R11, [RSI+R14]
0e1c2000 ffffffff812f0625 (03) 49 21fb                  AND R11, RDI
0e1c2000 ffffffff812f0628 (04) 42 330499                XOR EAX, [RCX+R11*4]
            load    0xffffffff819d064c 0x00000000019d064c (4)
0e1c2000 ffffffff812f062c (04) 4e 8d1c2e                LEA R11, [RSI+R13]
0e1c2000 ffffffff812f0630 (03) 49 21fb                  AND R11, RDI
0e1c2000 ffffffff812f0633 (04) 42 330499                XOR EAX, [RCX+R11*4]
            load    0xffffffff819d05e4 0x00000000019d05e4 (4)
0e1c2000 ffffffff812f0637 (04) 4e 8d1c16                LEA R11, [RSI+R10]
0e1c2000 ffffffff812f063b (03) 49 21fb                  AND R11, RDI
0e1c2000 ffffffff812f063e (04) 42 330499                XOR EAX, [RCX+R11*4]
            load    0xffffffff819d0584 0x00000000019d0584 (4)
0e1c2000 ffffffff812f0642 (03) 48 89c1                  MOV RCX, RAX
0e1c2000 ffffffff812f0645 (03) c1e8 03                  SHR EAX, 0x3
0e1c2000 ffffffff812f0648 (03) 83e1 07                  AND ECX, 0x7
0e1c2000 ffffffff812f064b (07) 33048d 401b5781          XOR EAX, [RCX*4-0x7ea8e4c0]
            load    0xffffffff81571b58 0x0000000001571b58 (4)
0e1c2000 ffffffff812f0652 (04) 48 83fe 01               CMP RSI, 0x1
0e1c2000 ffffffff812f0656 (04) 41 890424                MOV [R12], EAX
            store   0xffffffff819d0580 0x00000000019d0580 (4)
0e1c2000 ffffffff812f065a (02) 19c0                     SBB EAX, EAX
0e1c2000 ffffffff812f065c (03) 83e0 07                  AND EAX, 0x7
0e1c2000 ffffffff812f065f (04) 4c 3b45 c8               CMP R8, [RBP-0x38]
            load    0xffff8800019eecf0 0x00000000019eecf0 (8)
0e1c2000 ffffffff812f0663 (05) 45 8d4c01 07             LEA R9D, [R9+RAX+0x7]
0e1c2000 ffffffff812f0668 (06) 0f85 7affffff            JNZ 0xffffffff812f05e8
0e1c2000 ffffffff812f05e8 (04) 41 0fbe00                MOVSX EAX, BYTE [R8]
            load    0xffff8800019eed4a 0x00000000019eed4a (1)
0e1c2000 ffffffff812f05ec (03) 44 89c9                  MOV ECX, R9D
0e1c2000 ffffffff812f05ef (04) 48 83ee 01               SUB RSI, 0x1
0e1c2000 ffffffff812f05f3 (03) 83e1 1f                  AND ECX, 0x1f
0e1c2000 ffffffff812f05f6 (03) 48 21fe                  AND RSI, RDI
0e1c2000 ffffffff812f05f9 (04) 49 83c0 01               ADD R8, 0x1
0e1c2000 ffffffff812f05fd (04) 4c 8d1c16                LEA R11, [RSI+RDX]
0e1c2000 ffffffff812f0601 (02) d3c0                     ROL EAX, CL
0e1c2000 ffffffff812f0603 (04) 48 8b4b 08               MOV RCX, [RBX+0x8]
            load    0xffffffff817d09c8 0x00000000017d09c8 (8)
0e1c2000 ffffffff812f0607 (03) 49 21fb                  AND R11, RDI
0e1c2000 ffffffff812f060a (04) 4c 8d24b1                LEA R12, [RCX+RSI*4]
0e1c2000 ffffffff812f060e (04) 41 330424                XOR EAX, [R12]
            load    0xffffffff819d057c 0x00000000019d057c (4)
0e1c2000 ffffffff812f0612 (04) 42 330499                XOR EAX, [RCX+R11*4]
            load    0xffffffff819d0718 0x00000000019d0718 (4)
0e1c2000 ffffffff812f0616 (04) 4e 8d1c3e                LEA R11, [RSI+R15]
0e1c2000 ffffffff812f061a (03) 49 21fb                  AND R11, RDI
0e1c2000 ffffffff812f061d (04) 42 330499                XOR EAX, [RCX+R11*4]
            load    0xffffffff819d06ac 0x00000000019d06ac (4)
0e1c2000 ffffffff812f0621 (04) 4e 8d1c36                LEA R11, [RSI+R14]
0e1c2000 ffffffff812f0625 (03) 49 21fb                  AND R11, RDI
0e1c2000 ffffffff812f0628 (04) 42 330499                XOR EAX, [RCX+R11*4]
            load    0xffffffff819d0648 0x00000000019d0648 (4)
0e1c2000 ffffffff812f062c (04) 4e 8d1c2e                LEA R11, [RSI+R13]
0e1c2000 ffffffff812f0630 (03) 49 21fb                  AND R11, RDI
0e1c2000 ffffffff812f0633 (04) 42 330499                XOR EAX, [RCX+R11*4]
            load    0xffffffff819d05e0 0x00000000019d05e0 (4)
0e1c2000 ffffffff812f0637 (04) 4e 8d1c16                LEA R11, [RSI+R10]
0e1c2000 ffffffff812f063b (03) 49 21fb                  AND R11, RDI
0e1c2000 ffffffff812f063e (04) 42 330499                XOR EAX, [RCX+R11*4]
            load    0xffffffff819d0580 0x00000000019d0580 (4)
0e1c2000 ffffffff812f0642 (03) 48 89c1                  MOV RCX, RAX
0e1c2000 ffffffff812f0645 (03) c1e8 03                  SHR EAX, 0x3
0e1c2000 ffffffff812f0648 (03) 83e1 07                  AND ECX, 0x7
0e1c2000 ffffffff812f064b (07) 33048d 401b5781          XOR EAX, [RCX*4-0x7ea8e4c0]
            load    0xffffffff81571b5c 0x0000000001571b5c (4)
0e1c2000 ffffffff812f0652 (04) 48 83fe 01               CMP RSI, 0x1
0e1c2000 ffffffff812f0656 (04) 41 890424                MOV [R12], EAX
            store   0xffffffff819d057c 0x00000000019d057c (4)
0e1c2000 ffffffff812f065a (02) 19c0                     SBB EAX, EAX
0e1c2000 ffffffff812f065c (03) 83e0 07                  AND EAX, 0x7
0e1c2000 ffffffff812f065f (04) 4c 3b45 c8               CMP R8, [RBP-0x38]
            load    0xffff8800019eecf0 0x00000000019eecf0 (8)
0e1c2000 ffffffff812f0663 (05) 45 8d4c01 07             LEA R9D, [R9+RAX+0x7]
0e1c2000 ffffffff812f0668 (06) 0f85 7affffff            JNZ 0xffffffff812f05e8
0e1c2000 ffffffff812f05e8 (04) 41 0fbe00                MOVSX EAX, BYTE [R8]
            load    0xffff8800019eed4b 0x00000000019eed4b (1)
0e1c2000 ffffffff812f05ec (03) 44 89c9                  MOV ECX, R9D
0e1c2000 ffffffff812f05ef (04) 48 83ee 01               SUB RSI, 0x1
0e1c2000 ffffffff812f05f3 (03) 83e1 1f                  AND ECX, 0x1f
0e1c2000 ffffffff812f05f6 (03) 48 21fe                  AND RSI, RDI
0e1c2000 ffffffff812f05f9 (04) 49 83c0 01               ADD R8, 0x1
0e1c2000 ffffffff812f05fd (04) 4c 8d1c16                LEA R11, [RSI+RDX]
0e1c2000 ffffffff812f0601 (02) d3c0                     ROL EAX, CL
0e1c2000 ffffffff812f0603 (04) 48 8b4b 08               MOV RCX, [RBX+0x8]
            load    0xffffffff817d09c8 0x00000000017d09c8 (8)
0e1c2000 ffffffff812f0607 (03) 49 21fb                  AND R11, RDI
0e1c2000 ffffffff812f060a (04) 4c 8d24b1                LEA R12, [RCX+RSI*4]
0e1c2000 ffffffff812f060e (04) 41 330424                XOR EAX, [R12]
            load    0xffffffff819d0578 0x00000000019d0578 (4)
0e1c2000 ffffffff812f0612 (04) 42 330499                XOR EAX, [RCX+R11*4]
            load    0xffffffff819d0714 0x00000000019d0714 (4)
0e1c2000 ffffffff812f0616 (04) 4e 8d1c3e                LEA R11, [RSI+R15]
0e1c2000 ffffffff812f061a (03) 49 21fb                  AND R11, RDI
0e1c2000 ffffffff812f061d (04) 42 330499                XOR EAX, [RCX+R11*4]
            load    0xffffffff819d06a8 0x00000000019d06a8 (4)
0e1c2000 ffffffff812f0621 (04) 4e 8d1c36                LEA R11, [RSI+R14]
0e1c2000 ffffffff812f0625 (03) 49 21fb                  AND R11, RDI
0e1c2000 ffffffff812f0628 (04) 42 330499                XOR EAX, [RCX+R11*4]
            load    0xffffffff819d0644 0x00000000019d0644 (4)
0e1c2000 ffffffff812f062c (04) 4e 8d1c2e                LEA R11, [RSI+R13]
0e1c2000 ffffffff812f0630 (03) 49 21fb                  AND R11, RDI
0e1c2000 ffffffff812f0633 (04) 42 330499                XOR EAX, [RCX+R11*4]
            load    0xffffffff819d05dc 0x00000000019d05dc (4)
0e1c2000 ffffffff812f0637 (04) 4e 8d1c16                LEA R11, [RSI+R10]
0e1c2000 ffffffff812f063b (03) 49 21fb                  AND R11, RDI
0e1c2000 ffffffff812f063e (04) 42 330499                XOR EAX, [RCX+R11*4]
            load    0xffffffff819d057c 0x00000000019d057c (4)
0e1c2000 ffffffff812f0642 (03) 48 89c1                  MOV RCX, RAX
0e1c2000 ffffffff812f0645 (03) c1e8 03                  SHR EAX, 0x3
0e1c2000 ffffffff812f0648 (03) 83e1 07                  AND ECX, 0x7
0e1c2000 ffffffff812f064b (07) 33048d 401b5781          XOR EAX, [RCX*4-0x7ea8e4c0]
            load    0xffffffff81571b40 0x0000000001571b40 (4)
0e1c2000 ffffffff812f0652 (04) 48 83fe 01               CMP RSI, 0x1
0e1c2000 ffffffff812f0656 (04) 41 890424                MOV [R12], EAX
            store   0xffffffff819d0578 0x00000000019d0578 (4)
0e1c2000 ffffffff812f065a (02) 19c0                     SBB EAX, EAX
0e1c2000 ffffffff812f065c (03) 83e0 07                  AND EAX, 0x7
0e1c2000 ffffffff812f065f (04) 4c 3b45 c8               CMP R8, [RBP-0x38]
            load    0xffff8800019eecf0 0x00000000019eecf0 (8)
0e1c2000 ffffffff812f0663 (05) 45 8d4c01 07             LEA R9D, [R9+RAX+0x7]
0e1c2000 ffffffff812f0668 (06) 0f85 7affffff            JNZ 0xffffffff812f05e8
0e1c2000 ffffffff812f05e8 (04) 41 0fbe00                MOVSX EAX, BYTE [R8]
            load    0xffff8800019eed4c 0x00000000019eed4c (1)
0e1c2000 ffffffff812f05ec (03) 44 89c9                  MOV ECX, R9D
0e1c2000 ffffffff812f05ef (04) 48 83ee 01               SUB RSI, 0x1
0e1c2000 ffffffff812f05f3 (03) 83e1 1f                  AND ECX, 0x1f
0e1c2000 ffffffff812f05f6 (03) 48 21fe                  AND RSI, RDI
0e1c2000 ffffffff812f05f9 (04) 49 83c0 01               ADD R8, 0x1
0e1c2000 ffffffff812f05fd (04) 4c 8d1c16                LEA R11, [RSI+RDX]
0e1c2000 ffffffff812f0601 (02) d3c0                     ROL EAX, CL
0e1c2000 ffffffff812f0603 (04) 48 8b4b 08               MOV RCX, [RBX+0x8]
            load    0xffffffff817d09c8 0x00000000017d09c8 (8)
0e1c2000 ffffffff812f0607 (03) 49 21fb                  AND R11, RDI
0e1c2000 ffffffff812f060a (04) 4c 8d24b1                LEA R12, [RCX+RSI*4]
0e1c2000 ffffffff812f060e (04) 41 330424                XOR EAX, [R12]
            load    0xffffffff819d0574 0x00000000019d0574 (4)
0e1c2000 ffffffff812f0612 (04) 42 330499                XOR EAX, [RCX+R11*4]
            load    0xffffffff819d0710 0x00000000019d0710 (4)
0e1c2000 ffffffff812f0616 (04) 4e 8d1c3e                LEA R11, [RSI+R15]
0e1c2000 ffffffff812f061a (03) 49 21fb                  AND R11, RDI
0e1c2000 ffffffff812f061d (04) 42 330499                XOR EAX, [RCX+R11*4]
            load    0xffffffff819d06a4 0x00000000019d06a4 (4)
0e1c2000 ffffffff812f0621 (04) 4e 8d1c36                LEA R11, [RSI+R14]
0e1c2000 ffffffff812f0625 (03) 49 21fb                  AND R11, RDI
0e1c2000 ffffffff812f0628 (04) 42 330499                XOR EAX, [RCX+R11*4]
            load    0xffffffff819d0640 0x00000000019d0640 (4)
0e1c2000 ffffffff812f062c (04) 4e 8d1c2e                LEA R11, [RSI+R13]
0e1c2000 ffffffff812f0630 (03) 49 21fb                  AND R11, RDI
0e1c2000 ffffffff812f0633 (04) 42 330499                XOR EAX, [RCX+R11*4]
            load    0xffffffff819d05d8 0x00000000019d05d8 (4)
0e1c2000 ffffffff812f0637 (04) 4e 8d1c16                LEA R11, [RSI+R10]
0e1c2000 ffffffff812f063b (03) 49 21fb                  AND R11, RDI
0e1c2000 ffffffff812f063e (04) 42 330499                XOR EAX, [RCX+R11*4]
            load    0xffffffff819d0578 0x00000000019d0578 (4)
0e1c2000 ffffffff812f0642 (03) 48 89c1                  MOV RCX, RAX
0e1c2000 ffffffff812f0645 (03) c1e8 03                  SHR EAX, 0x3
0e1c2000 ffffffff812f0648 (03) 83e1 07                  AND ECX, 0x7
0e1c2000 ffffffff812f064b (07) 33048d 401b5781          XOR EAX, [RCX*4-0x7ea8e4c0]
            load    0xffffffff81571b50 0x0000000001571b50 (4)
0e1c2000 ffffffff812f0652 (04) 48 83fe 01               CMP RSI, 0x1
0e1c2000 ffffffff812f0656 (04) 41 890424                MOV [R12], EAX
            store   0xffffffff819d0574 0x00000000019d0574 (4)
0e1c2000 ffffffff812f065a (02) 19c0                     SBB EAX, EAX
0e1c2000 ffffffff812f065c (03) 83e0 07                  AND EAX, 0x7
0e1c2000 ffffffff812f065f (04) 4c 3b45 c8               CMP R8, [RBP-0x38]
            load    0xffff8800019eecf0 0x00000000019eecf0 (8)
0e1c2000 ffffffff812f0663 (05) 45 8d4c01 07             LEA R9D, [R9+RAX+0x7]
0e1c2000 ffffffff812f0668 (06) 0f85 7affffff            JNZ 0xffffffff812f05e8
0e1c2000 ffffffff812f05e8 (04) 41 0fbe00                MOVSX EAX, BYTE [R8]
            load    0xffff8800019eed4d 0x00000000019eed4d (1)
0e1c2000 ffffffff812f05ec (03) 44 89c9                  MOV ECX, R9D
0e1c2000 ffffffff812f05ef (04) 48 83ee 01               SUB RSI, 0x1
0e1c2000 ffffffff812f05f3 (03) 83e1 1f                  AND ECX, 0x1f
0e1c2000 ffffffff812f05f6 (03) 48 21fe                  AND RSI, RDI
0e1c2000 ffffffff812f05f9 (04) 49 83c0 01               ADD R8, 0x1
0e1c2000 ffffffff812f05fd (04) 4c 8d1c16                LEA R11, [RSI+RDX]
0e1c2000 ffffffff812f0601 (02) d3c0                     ROL EAX, CL
0e1c2000 ffffffff812f0603 (04) 48 8b4b 08               MOV RCX, [RBX+0x8]
            load    0xffffffff817d09c8 0x00000000017d09c8 (8)
0e1c2000 ffffffff812f0607 (03) 49 21fb                  AND R11, RDI
0e1c2000 ffffffff812f060a (04) 4c 8d24b1                LEA R12, [RCX+RSI*4]
0e1c2000 ffffffff812f060e (04) 41 330424                XOR EAX, [R12]
            load    0xffffffff819d0570 0x00000000019d0570 (4)
0e1c2000 ffffffff812f0612 (04) 42 330499                XOR EAX, [RCX+R11*4]
            load    0xffffffff819d070c 0x00000000019d070c (4)
0e1c2000 ffffffff812f0616 (04) 4e 8d1c3e                LEA R11, [RSI+R15]
0e1c2000 ffffffff812f061a (03) 49 21fb                  AND R11, RDI
0e1c2000 ffffffff812f061d (04) 42 330499                XOR EAX, [RCX+R11*4]
            load    0xffffffff819d06a0 0x00000000019d06a0 (4)
0e1c2000 ffffffff812f0621 (04) 4e 8d1c36                LEA R11, [RSI+R14]
0e1c2000 ffffffff812f0625 (03) 49 21fb                  AND R11, RDI
0e1c2000 ffffffff812f0628 (04) 42 330499                XOR EAX, [RCX+R11*4]
            load    0xffffffff819d063c 0x00000000019d063c (4)
0e1c2000 ffffffff812f062c (04) 4e 8d1c2e                LEA R11, [RSI+R13]
0e1c2000 ffffffff812f0630 (03) 49 21fb                  AND R11, RDI
0e1c2000 ffffffff812f0633 (04) 42 330499                XOR EAX, [RCX+R11*4]
            load    0xffffffff819d05d4 0x00000000019d05d4 (4)
0e1c2000 ffffffff812f0637 (04) 4e 8d1c16                LEA R11, [RSI+R10]
0e1c2000 ffffffff812f063b (03) 49 21fb                  AND R11, RDI
0e1c2000 ffffffff812f063e (04) 42 330499                XOR EAX, [RCX+R11*4]
            load    0xffffffff819d0574 0x00000000019d0574 (4)
0e1c2000 ffffffff812f0642 (03) 48 89c1                  MOV RCX, RAX
0e1c2000 ffffffff812f0645 (03) c1e8 03                  SHR EAX, 0x3
0e1c2000 ffffffff812f0648 (03) 83e1 07                  AND ECX, 0x7
0e1c2000 ffffffff812f064b (07) 33048d 401b5781          XOR EAX, [RCX*4-0x7ea8e4c0]
            load    0xffffffff81571b5c 0x0000000001571b5c (4)
0e1c2000 ffffffff812f0652 (04) 48 83fe 01               CMP RSI, 0x1
0e1c2000 ffffffff812f0656 (04) 41 890424                MOV [R12], EAX
            store   0xffffffff819d0570 0x00000000019d0570 (4)
0e1c2000 ffffffff812f065a (02) 19c0                     SBB EAX, EAX
0e1c2000 ffffffff812f065c (03) 83e0 07                  AND EAX, 0x7
0e1c2000 ffffffff812f065f (04) 4c 3b45 c8               CMP R8, [RBP-0x38]
            load    0xffff8800019eecf0 0x00000000019eecf0 (8)
0e1c2000 ffffffff812f0663 (05) 45 8d4c01 07             LEA R9D, [R9+RAX+0x7]
0e1c2000 ffffffff812f0668 (06) 0f85 7affffff            JNZ 0xffffffff812f05e8
0e1c2000 ffffffff812f05e8 (04) 41 0fbe00                MOVSX EAX, BYTE [R8]
            load    0xffff8800019eed4e 0x00000000019eed4e (1)
0e1c2000 ffffffff812f05ec (03) 44 89c9                  MOV ECX, R9D
0e1c2000 ffffffff812f05ef (04) 48 83ee 01               SUB RSI, 0x1
0e1c2000 ffffffff812f05f3 (03) 83e1 1f                  AND ECX, 0x1f
0e1c2000 ffffffff812f05f6 (03) 48 21fe                  AND RSI, RDI
0e1c2000 ffffffff812f05f9 (04) 49 83c0 01               ADD R8, 0x1
0e1c2000 ffffffff812f05fd (04) 4c 8d1c16                LEA R11, [RSI+RDX]
0e1c2000 ffffffff812f0601 (02) d3c0                     ROL EAX, CL
0e1c2000 ffffffff812f0603 (04) 48 8b4b 08               MOV RCX, [RBX+0x8]
            load    0xffffffff817d09c8 0x00000000017d09c8 (8)
0e1c2000 ffffffff812f0607 (03) 49 21fb                  AND R11, RDI
0e1c2000 ffffffff812f060a (04) 4c 8d24b1                LEA R12, [RCX+RSI*4]
0e1c2000 ffffffff812f060e (04) 41 330424                XOR EAX, [R12]
            load    0xffffffff819d056c 0x00000000019d056c (4)
0e1c2000 ffffffff812f0612 (04) 42 330499                XOR EAX, [RCX+R11*4]
            load    0xffffffff819d0708 0x00000000019d0708 (4)
0e1c2000 ffffffff812f0616 (04) 4e 8d1c3e                LEA R11, [RSI+R15]
0e1c2000 ffffffff812f061a (03) 49 21fb                  AND R11, RDI
0e1c2000 ffffffff812f061d (04) 42 330499                XOR EAX, [RCX+R11*4]
            load    0xffffffff819d069c 0x00000000019d069c (4)
0e1c2000 ffffffff812f0621 (04) 4e 8d1c36                LEA R11, [RSI+R14]
0e1c2000 ffffffff812f0625 (03) 49 21fb                  AND R11, RDI
0e1c2000 ffffffff812f0628 (04) 42 330499                XOR EAX, [RCX+R11*4]
            load    0xffffffff819d0638 0x00000000019d0638 (4)
0e1c2000 ffffffff812f062c (04) 4e 8d1c2e                LEA R11, [RSI+R13]
0e1c2000 ffffffff812f0630 (03) 49 21fb                  AND R11, RDI
0e1c2000 ffffffff812f0633 (04) 42 330499                XOR EAX, [RCX+R11*4]
            load    0xffffffff819d05d0 0x00000000019d05d0 (4)
0e1c2000 ffffffff812f0637 (04) 4e 8d1c16                LEA R11, [RSI+R10]
0e1c2000 ffffffff812f063b (03) 49 21fb                  AND R11, RDI
0e1c2000 ffffffff812f063e (04) 42 330499                XOR EAX, [RCX+R11*4]
            load    0xffffffff819d0570 0x00000000019d0570 (4)
0e1c2000 ffffffff812f0642 (03) 48 89c1                  MOV RCX, RAX
0e1c2000 ffffffff812f0645 (03) c1e8 03                  SHR EAX, 0x3
0e1c2000 ffffffff812f0648 (03) 83e1 07                  AND ECX, 0x7
0e1c2000 ffffffff812f064b (07) 33048d 401b5781          XOR EAX, [RCX*4-0x7ea8e4c0]
            load    0xffffffff81571b58 0x0000000001571b58 (4)
0e1c2000 ffffffff812f0652 (04) 48 83fe 01               CMP RSI, 0x1
0e1c2000 ffffffff812f0656 (04) 41 890424                MOV [R12], EAX
            store   0xffffffff819d056c 0x00000000019d056c (4)
0e1c2000 ffffffff812f065a (02) 19c0                     SBB EAX, EAX
0e1c2000 ffffffff812f065c (03) 83e0 07                  AND EAX, 0x7
0e1c2000 ffffffff812f065f (04) 4c 3b45 c8               CMP R8, [RBP-0x38]
            load    0xffff8800019eecf0 0x00000000019eecf0 (8)
0e1c2000 ffffffff812f0663 (05) 45 8d4c01 07             LEA R9D, [R9+RAX+0x7]
0e1c2000 ffffffff812f0668 (06) 0f85 7affffff            JNZ 0xffffffff812f05e8
0e1c2000 ffffffff812f05e8 (04) 41 0fbe00                MOVSX EAX, BYTE [R8]
            load    0xffff8800019eed4f 0x00000000019eed4f (1)
0e1c2000 ffffffff812f05ec (03) 44 89c9                  MOV ECX, R9D
0e1c2000 ffffffff812f05ef (04) 48 83ee 01               SUB RSI, 0x1
0e1c2000 ffffffff812f05f3 (03) 83e1 1f                  AND ECX, 0x1f
0e1c2000 ffffffff812f05f6 (03) 48 21fe                  AND RSI, RDI
0e1c2000 ffffffff812f05f9 (04) 49 83c0 01               ADD R8, 0x1
0e1c2000 ffffffff812f05fd (04) 4c 8d1c16                LEA R11, [RSI+RDX]
0e1c2000 ffffffff812f0601 (02) d3c0                     ROL EAX, CL
0e1c2000 ffffffff812f0603 (04) 48 8b4b 08               MOV RCX, [RBX+0x8]
            load    0xffffffff817d09c8 0x00000000017d09c8 (8)
0e1c2000 ffffffff812f0607 (03) 49 21fb                  AND R11, RDI
0e1c2000 ffffffff812f060a (04) 4c 8d24b1                LEA R12, [RCX+RSI*4]
0e1c2000 ffffffff812f060e (04) 41 330424                XOR EAX, [R12]
            load    0xffffffff819d0568 0x00000000019d0568 (4)
0e1c2000 ffffffff812f0612 (04) 42 330499                XOR EAX, [RCX+R11*4]
            load    0xffffffff819d0704 0x00000000019d0704 (4)
0e1c2000 ffffffff812f0616 (04) 4e 8d1c3e                LEA R11, [RSI+R15]
0e1c2000 ffffffff812f061a (03) 49 21fb                  AND R11, RDI
0e1c2000 ffffffff812f061d (04) 42 330499                XOR EAX, [RCX+R11*4]
            load    0xffffffff819d0698 0x00000000019d0698 (4)
0e1c2000 ffffffff812f0621 (04) 4e 8d1c36                LEA R11, [RSI+R14]
0e1c2000 ffffffff812f0625 (03) 49 21fb                  AND R11, RDI
0e1c2000 ffffffff812f0628 (04) 42 330499                XOR EAX, [RCX+R11*4]
            load    0xffffffff819d0634 0x00000000019d0634 (4)
0e1c2000 ffffffff812f062c (04) 4e 8d1c2e                LEA R11, [RSI+R13]
0e1c2000 ffffffff812f0630 (03) 49 21fb                  AND R11, RDI
0e1c2000 ffffffff812f0633 (04) 42 330499                XOR EAX, [RCX+R11*4]
            load    0xffffffff819d05cc 0x00000000019d05cc (4)
0e1c2000 ffffffff812f0637 (04) 4e 8d1c16                LEA R11, [RSI+R10]
0e1c2000 ffffffff812f063b (03) 49 21fb                  AND R11, RDI
0e1c2000 ffffffff812f063e (04) 42 330499                XOR EAX, [RCX+R11*4]
            load    0xffffffff819d056c 0x00000000019d056c (4)
0e1c2000 ffffffff812f0642 (03) 48 89c1                  MOV RCX, RAX
0e1c2000 ffffffff812f0645 (03) c1e8 03                  SHR EAX, 0x3
0e1c2000 ffffffff812f0648 (03) 83e1 07                  AND ECX, 0x7
0e1c2000 ffffffff812f064b (07) 33048d 401b5781          XOR EAX, [RCX*4-0x7ea8e4c0]
            load    0xffffffff81571b44 0x0000000001571b44 (4)
0e1c2000 ffffffff812f0652 (04) 48 83fe 01               CMP RSI, 0x1
0e1c2000 ffffffff812f0656 (04) 41 890424                MOV [R12], EAX
            store   0xffffffff819d0568 0x00000000019d0568 (4)
0e1c2000 ffffffff812f065a (02) 19c0                     SBB EAX, EAX
0e1c2000 ffffffff812f065c (03) 83e0 07                  AND EAX, 0x7
0e1c2000 ffffffff812f065f (04) 4c 3b45 c8               CMP R8, [RBP-0x38]
            load    0xffff8800019eecf0 0x00000000019eecf0 (8)
0e1c2000 ffffffff812f0663 (05) 45 8d4c01 07             LEA R9D, [R9+RAX+0x7]
0e1c2000 ffffffff812f0668 (06) 0f85 7affffff            JNZ 0xffffffff812f05e8
0e1c2000 ffffffff812f066e (04) 4c 8b65 c0               MOV R12, [RBP-0x40]
            load    0xffff8800019eece8 0x00000000019eece8 (8)
0e1c2000 ffffffff812f0672 (03) 4d 85e4                  TEST R12, R12
0e1c2000 ffffffff812f0675 (04) 44 894b 34               MOV [RBX+0x34], R9D
            store   0xffffffff817d09f4 0x00000000017d09f4 (4)
0e1c2000 ffffffff812f0679 (03) 8973 2c                  MOV [RBX+0x2c], ESI
            store   0xffffffff817d09ec 0x00000000017d09ec (4)
0e1c2000 ffffffff812f067c (02) 74 28                    JZ 0xffffffff812f06a6
0e1c2000 ffffffff812f06a6 (04) 48 8b75 a8               MOV RSI, [RBP-0x58]
            load    0xffff8800019eecd0 0x00000000019eecd0 (8)
0e1c2000 ffffffff812f06aa (04) 48 8b7d b8               MOV RDI, [RBP-0x48]
            load    0xffff8800019eece0 0x00000000019eece0 (8)
0e1c2000 ffffffff812f06ae (05) e8 ed932300              CALL 0xffffffff81529aa0
            store   0xffff8800019eecb0 0x00000000019eecb0 (8)
0e1c2000 ffffffff81529aa0 (01) 55                       PUSH RBP
            store   0xffff8800019eeca8 0x00000000019eeca8 (8)
0e1c2000 ffffffff81529aa1 (03) 48 89e5                  MOV RBP, RSP
0e1c2000 ffffffff81529aa4 (01) 53                       PUSH RBX
            store   0xffff8800019eeca0 0x00000000019eeca0 (8)
0e1c2000 ffffffff81529aa5 (03) 48 89f3                  MOV RBX, RSI
0e1c2000 ffffffff81529aa8 (05) e8 13c9b0ff              CALL 0xffffffff810363c0
            store   0xffff8800019eec98 0x00000000019eec98 (8)
0e1c2000 ffffffff810363c0 (01) 55                       PUSH RBP
            store   0xffff8800019eec90 0x00000000019eec90 (8)
0e1c2000 ffffffff810363c1 (03) 48 89e5                  MOV RBP, RSP
0e1c2000 ffffffff810363c4 (02) fe07                     INC BYTE [RDI]
            load    0xffffffff817d09e8 0x00000000017d09e8 (1)
            store   0xffffffff817d09e8 0x00000000017d09e8 (1)
0e1c2000 ffffffff810363c6 (01) c9                       LEAVE 
            load    0xffff8800019eec90 0x00000000019eec90 (8)
0e1c2000 ffffffff810363c7 (01) c3                       RET 
            load    0xffff8800019eec98 0x00000000019eec98 (8)
0e1c2000 ffffffff81529aad (01) 66                       DB 0x66 
0e1c2000 ffffffff81529aad (02) 66 90                    NOP 
0e1c2000 ffffffff81529aaf (03) 48 89df                  MOV RDI, RBX
0e1c2000 ffffffff81529ab2 (01) 57                       PUSH RDI
            store   0xffff8800019eec98 0x00000000019eec98 (8)
0e1c2000 ffffffff81529ab3 (01) 9d                       POPF 
            load    0xffff8800019eec98 0x00000000019eec98 (8)
0e1c2000 ffffffff81529ab4 (01) 66                       DB 0x66 
0e1c2000 ffffffff81529ab5 (01) 66                       DB 0x66 
0e1c2000 ffffffff81529ab5 (02) 66 90                    NOP 
0e1c2000 ffffffff81529ab7 (01) 66                       DB 0x66 
0e1c2000 ffffffff81529ab7 (02) 66 90                    NOP 
0e1c2000 ffffffff81529ab9 (01) 5b                       POP RBX
            load    0xffff8800019eeca0 0x00000000019eeca0 (8)
0e1c2000 ffffffff81529aba (01) c9                       LEAVE 
            load    0xffff8800019eeca8 0x00000000019eeca8 (8)
0e1c2000 ffffffff81529abb (01) c3                       RET 
            load    0xffff8800019eecb0 0x00000000019eecb0 (8)
0e1c2000 ffffffff812f06b3 (04) 48 83c4 48               ADD RSP, 0x48
0e1c2000 ffffffff812f06b7 (01) 5b                       POP RBX
            load    0xffff8800019eed00 0x00000000019eed00 (8)
0e1c2000 ffffffff812f06b8 (02) 41 5c                    POP R12
            load    0xffff8800019eed08 0x00000000019eed08 (8)
0e1c2000 ffffffff812f06ba (02) 41 5d                    POP R13
            load    0xffff8800019eed10 0x00000000019eed10 (8)
0e1c2000 ffffffff812f06bc (02) 41 5e                    POP R14
            load    0xffff8800019eed18 0x00000000019eed18 (8)
0e1c2000 ffffffff812f06be (02) 41 5f                    POP R15
            load    0xffff8800019eed20 0x00000000019eed20 (8)
0e1c2000 ffffffff812f06c0 (01) c9                       LEAVE 
            load    0xffff8800019eed28 0x00000000019eed28 (8)
0e1c2000 ffffffff812f06c1 (01) c3                       RET 
            load    0xffff8800019eed30 0x00000000019eed30 (8)
0e1c2000 ffffffff812f09c7 (04) f643 18 01               TEST BYTE [RBX+0x18], 0x1
            load    0xffffffff819d0478 0x00000000019d0478 (1)
0e1c2000 ffffffff812f09cb (06) 0f85 82000000            JNZ 0xffffffff812f0a53
0e1c2000 ffffffff812f09d1 (04) 48 8b45 d8               MOV RAX, [RBP-0x28]
            load    0xffff8800019eed40 0x00000000019eed40 (8)
0e1c2000 ffffffff812f09d5 (07) 48 c7c7 c0097d81         MOV RDI, -0x7e82f640
0e1c2000 ffffffff812f09dc (03) 48 89c2                  MOV RDX, RAX
0e1c2000 ffffffff812f09df (03) 48 2b13                  SUB RDX, [RBX]
            load    0xffffffff819d0460 0x00000000019d0460 (8)
0e1c2000 ffffffff812f09e2 (03) 48 8903                  MOV [RBX], RAX
            store   0xffffffff819d0460 0x00000000019d0460 (8)
0e1c2000 ffffffff812f09e5 (03) 48 89d0                  MOV RAX, RDX
0e1c2000 ffffffff812f09e8 (04) 48 2b43 08               SUB RAX, [RBX+0x8]
            load    0xffffffff819d0468 0x00000000019d0468 (8)
0e1c2000 ffffffff812f09ec (03) 48 89d1                  MOV RCX, RDX
0e1c2000 ffffffff812f09ef (04) 48 c1f9 3f               SAR RCX, 0x3f
0e1c2000 ffffffff812f09f3 (04) 48 8953 08               MOV [RBX+0x8], RDX
            store   0xffffffff819d0468 0x00000000019d0468 (8)
0e1c2000 ffffffff812f09f7 (03) 48 31ca                  XOR RDX, RCX
0e1c2000 ffffffff812f09fa (03) 48 29ca                  SUB RDX, RCX
0e1c2000 ffffffff812f09fd (03) 48 89c1                  MOV RCX, RAX
0e1c2000 ffffffff812f0a00 (03) 48 89c6                  MOV RSI, RAX
0e1c2000 ffffffff812f0a03 (04) 48 2b73 10               SUB RSI, [RBX+0x10]
            load    0xffffffff819d0470 0x00000000019d0470 (8)
0e1c2000 ffffffff812f0a07 (04) 48 c1f9 3f               SAR RCX, 0x3f
0e1c2000 ffffffff812f0a0b (04) 48 8943 10               MOV [RBX+0x10], RAX
            store   0xffffffff819d0470 0x00000000019d0470 (8)
0e1c2000 ffffffff812f0a0f (03) 48 31c8                  XOR RAX, RCX
0e1c2000 ffffffff812f0a12 (03) 48 29c8                  SUB RAX, RCX
0e1c2000 ffffffff812f0a15 (03) 48 39d0                  CMP RAX, RDX
0e1c2000 ffffffff812f0a18 (04) 48 0f4fc2                CMOVG RAX, RDX
0e1c2000 ffffffff812f0a1c (03) 48 89f2                  MOV RDX, RSI
0e1c2000 ffffffff812f0a1f (04) 48 c1fa 3f               SAR RDX, 0x3f
0e1c2000 ffffffff812f0a23 (03) 48 31d6                  XOR RSI, RDX
0e1c2000 ffffffff812f0a26 (03) 48 29d6                  SUB RSI, RDX
0e1c2000 ffffffff812f0a29 (03) 48 39f0                  CMP RAX, RSI
0e1c2000 ffffffff812f0a2c (04) 48 0f4fc6                CMOVG RAX, RSI
0e1c2000 ffffffff812f0a30 (05) be ffffffff              MOV ESI, -0x1
0e1c2000 ffffffff812f0a35 (03) 48 d1f8                  SAR RAX, 0x1
0e1c2000 ffffffff812f0a38 (03) 0fbdd0                   BSR EDX, EAX
0e1c2000 ffffffff812f0a3b (03) 0f44d6                   CMOVZ EDX, ESI
0e1c2000 ffffffff812f0a3e (02) 89d6                     MOV ESI, EDX
0e1c2000 ffffffff812f0a40 (05) b8 0b000000              MOV EAX, 0xb
0e1c2000 ffffffff812f0a45 (03) 83c6 01                  ADD ESI, 0x1
0e1c2000 ffffffff812f0a48 (03) 83fe 0b                  CMP ESI, 0xb
0e1c2000 ffffffff812f0a4b (03) 0f4ff0                   CMOVG ESI, EAX
0e1c2000 ffffffff812f0a4e (05) e8 4dfeffff              CALL 0xffffffff812f08a0
            store   0xffff8800019eed30 0x00000000019eed30 (8)
0e1c2000 ffffffff812f08a0 (01) 55                       PUSH RBP
            store   0xffff8800019eed28 0x00000000019eed28 (8)
0e1c2000 ffffffff812f08a1 (03) 48 89e5                  MOV RBP, RSP
0e1c2000 ffffffff812f08a4 (04) 48 83ec 30               SUB RSP, 0x30
0e1c2000 ffffffff812f08a8 (02) 85f6                     TEST ESI, ESI
0e1c2000 ffffffff812f08aa (04) 4c 8965 f0               MOV [RBP-0x10], R12
            store   0xffff8800019eed18 0x00000000019eed18 (8)
0e1c2000 ffffffff812f08ae (04) 4c 896d f8               MOV [RBP-0x8], R13
            store   0xffff8800019eed20 0x00000000019eed20 (8)
0e1c2000 ffffffff812f08b2 (03) 49 89fc                  MOV R12, RDI
0e1c2000 ffffffff812f08b5 (04) 48 895d e8               MOV [RBP-0x18], RBX
            store   0xffff8800019eed10 0x00000000019eed10 (8)
0e1c2000 ffffffff812f08b9 (03) 41 89f5                  MOV R13D, ESI
0e1c2000 ffffffff812f08bc (02) 75 12                    JNZ 0xffffffff812f08d0
0e1c2000 ffffffff812f08be (04) 48 8b5d e8               MOV RBX, [RBP-0x18]
            load    0xffff8800019eed10 0x00000000019eed10 (8)
0e1c2000 ffffffff812f08c2 (04) 4c 8b65 f0               MOV R12, [RBP-0x10]
            load    0xffff8800019eed18 0x00000000019eed18 (8)
0e1c2000 ffffffff812f08c6 (04) 4c 8b6d f8               MOV R13, [RBP-0x8]
            load    0xffff8800019eed20 0x00000000019eed20 (8)
0e1c2000 ffffffff812f08ca (01) c9                       LEAVE 
            load    0xffff8800019eed28 0x00000000019eed28 (8)
0e1c2000 ffffffff812f08cb (01) c3                       RET 
            load    0xffff8800019eed30 0x00000000019eed30 (8)
0e1c2000 ffffffff812f0a53 (04) 48 83c4 20               ADD RSP, 0x20
0e1c2000 ffffffff812f0a57 (01) 5b                       POP RBX
            load    0xffff8800019eed58 0x00000000019eed58 (8)
0e1c2000 ffffffff812f0a58 (02) 41 5c                    POP R12
            load    0xffff8800019eed60 0x00000000019eed60 (8)
0e1c2000 ffffffff812f0a5a (01) c9                       LEAVE 
            load    0xffff8800019eed68 0x00000000019eed68 (8)
0e1c2000 ffffffff812f0a5b (01) c3                       RET 
            load    0xffff8800019eed70 0x00000000019eed70 (8)
0e1c2000 ffffffff812f0abf (01) c9                       LEAVE 
            load    0xffff8800019eed78 0x00000000019eed78 (8)
0e1c2000 ffffffff812f0ac0 (01) c3                       RET 
            load    0xffff8800019eed80 0x00000000019eed80 (8)
0e1c2000 ffffffff813c68e4 (03) 8b4d c8                  MOV ECX, [RBP-0x38]
            load    0xffff8800019eed90 0x00000000019eed90 (4)
0e1c2000 ffffffff813c68e7 (02) 89de                     MOV ESI, EBX
0e1c2000 ffffffff813c68e9 (03) 4c 89e7                  MOV RDI, R12
0e1c2000 ffffffff813c68ec (03) 44 89ea                  MOV EDX, R13D
0e1c2000 ffffffff813c68ef (05) e8 4cf6ffff              CALL 0xffffffff813c5f40
            store   0xffff8800019eed80 0x00000000019eed80 (8)
0e1c2000 ffffffff813c5f40 (01) 55                       PUSH RBP
            store   0xffff8800019eed78 0x00000000019eed78 (8)
0e1c2000 ffffffff813c5f41 (03) 48 89e5                  MOV RBP, RSP
0e1c2000 ffffffff813c5f44 (04) 48 83ec 30               SUB RSP, 0x30
0e1c2000 ffffffff813c5f48 (03) 83fe 16                  CMP ESI, 0x16
0e1c2000 ffffffff813c5f4b (04) 48 895d d8               MOV [RBP-0x28], RBX
            store   0xffff8800019eed50 0x00000000019eed50 (8)
0e1c2000 ffffffff813c5f4f (04) 4c 8965 e0               MOV [RBP-0x20], R12
            store   0xffff8800019eed58 0x00000000019eed58 (8)
0e1c2000 ffffffff813c5f53 (03) 48 89fb                  MOV RBX, RDI
0e1c2000 ffffffff813c5f56 (04) 4c 896d e8               MOV [RBP-0x18], R13
            store   0xffff8800019eed60 0x00000000019eed60 (8)
0e1c2000 ffffffff813c5f5a (04) 4c 8975 f0               MOV [RBP-0x10], R14
            store   0xffff8800019eed68 0x00000000019eed68 (8)
0e1c2000 ffffffff813c5f5e (03) 41 89f4                  MOV R12D, ESI
0e1c2000 ffffffff813c5f61 (04) 4c 897d f8               MOV [RBP-0x8], R15
            store   0xffff8800019eed70 0x00000000019eed70 (8)
0e1c2000 ffffffff813c5f65 (03) 41 89d5                  MOV R13D, EDX
0e1c2000 ffffffff813c5f68 (03) 41 89ce                  MOV R14D, ECX
0e1c2000 ffffffff813c5f6b (02) 77 66                    JA 0xffffffff813c5fd3
0e1c2000 ffffffff813c5f6d (02) 89f0                     MOV EAX, ESI
0e1c2000 ffffffff813c5f6f (07) ff24c5 f88d5881          JMP [RAX*8-0x7ea77208]
            load    0xffffffff81588e00 0x0000000001588e00 (8)
0e1c2000 ffffffff813c6020 (04) 48 8d77 28               LEA RSI, [RDI+0x28]
0e1c2000 ffffffff813c6024 (05) ba ff020000              MOV EDX, 0x2ff
0e1c2000 ffffffff813c6029 (03) 44 89ef                  MOV EDI, R13D
0e1c2000 ffffffff813c602c (05) e8 6fedffff              CALL 0xffffffff813c4da0
            store   0xffff8800019eed40 0x00000000019eed40 (8)
0e1c2000 ffffffff813c4da0 (01) 55                       PUSH RBP
            store   0xffff8800019eed38 0x00000000019eed38 (8)
0e1c2000 ffffffff813c4da1 (02) 31c0                     XOR EAX, EAX
0e1c2000 ffffffff813c4da3 (02) 39d7                     CMP EDI, EDX
0e1c2000 ffffffff813c4da5 (03) 48 89e5                  MOV RBP, RSP
0e1c2000 ffffffff813c4da8 (02) 77 0c                    JA 0xffffffff813c4db6
0e1c2000 ffffffff813c4daa (03) 0fa33e                   BT [RSI], EDI
            load    0xffff88000d9ac02c 0x000000000d9ac02c (4)
0e1c2000 ffffffff813c4dad (02) 19ff                     SBB EDI, EDI
0e1c2000 ffffffff813c4daf (02) 31c0                     XOR EAX, EAX
0e1c2000 ffffffff813c4db1 (02) 85ff                     TEST EDI, EDI
0e1c2000 ffffffff813c4db3 (03) 0f95c0                   SETNZ AL
0e1c2000 ffffffff813c4db6 (01) c9                       LEAVE 
            load    0xffff8800019eed38 0x00000000019eed38 (8)
0e1c2000 ffffffff813c4db7 (01) c3                       RET 
            load    0xffff8800019eed40 0x00000000019eed40 (8)
0e1c2000 ffffffff813c6031 (02) 85c0                     TEST EAX, EAX
0e1c2000 ffffffff813c6033 (02) 74 9e                    JZ 0xffffffff813c5fd3
0e1c2000 ffffffff813c6035 (08) 44 0fa3ab 58020000       BT [RBX+0x258], R13D
            load    0xffff88000d9ac25c 0x000000000d9ac25c (4)
0e1c2000 ffffffff813c603d (02) 19c0                     SBB EAX, EAX
0e1c2000 ffffffff813c603f (02) 85c0                     TEST EAX, EAX
0e1c2000 ffffffff813c6041 (03) 0f95c0                   SETNZ AL
0e1c2000 ffffffff813c6044 (03) 0fb6c0                   MOVZX EAX, AL
0e1c2000 ffffffff813c6047 (03) 41 39c6                  CMP R14D, EAX
0e1c2000 ffffffff813c604a (02) 74 87                    JZ 0xffffffff813c5fd3
0e1c2000 ffffffff813c604c (04) 41 83fe 02               CMP R14D, 0x2
0e1c2000 ffffffff813c6050 (06) 0f84 ca020000            JZ 0xffffffff813c6320
0e1c2000 ffffffff813c6056 (08) 44 0fbbab 58020000       BTC [RBX+0x258], R13D
            load    0xffff88000d9ac25c 0x000000000d9ac25c (4)
            store   0xffff88000d9ac25c 0x000000000d9ac25c (4)
0e1c2000 ffffffff813c605e (03) 45 85f6                  TEST R14D, R14D
0e1c2000 ffffffff813c6061 (06) 0f84 c4020000            JZ 0xffffffff813c632b
0e1c2000 ffffffff813c6067 (04) 48 8b43 20               MOV RAX, [RBX+0x20]
            load    0xffff88000d9ac020 0x000000000d9ac020 (8)
0e1c2000 ffffffff813c606b (05) a9 00001000              TEST EAX, 0x100000
0e1c2000 ffffffff813c6070 (06) 0f84 aa020000            JZ 0xffffffff813c6320
0e1c2000 ffffffff813c6076 (07) 44 8b9b 50020000         MOV R11D, [RBX+0x250]
            load    0xffff88000d9ac250 0x000000000d9ac250 (4)
0e1c2000 ffffffff813c607d (03) 45 85db                  TEST R11D, R11D
0e1c2000 ffffffff813c6080 (02) 74 1a                    JZ 0xffffffff813c609c
0e1c2000 ffffffff813c6082 (07) 44 8b93 4c020000         MOV R10D, [RBX+0x24c]
            load    0xffff88000d9ac24c 0x000000000d9ac24c (4)
0e1c2000 ffffffff813c6089 (03) 45 85d2                  TEST R10D, R10D
0e1c2000 ffffffff813c608c (02) 74 0e                    JZ 0xffffffff813c609c
0e1c2000 ffffffff813c608e (08) 48 83bb 18010000 00      CMP QWORD [RBX+0x118], 0x0
            load    0xffff88000d9ac118 0x000000000d9ac118 (8)
0e1c2000 ffffffff813c6096 (06) 0f85 d6020000            JNZ 0xffffffff813c6372
0e1c2000 ffffffff813c609c (06) 41 bf 01000000           MOV R15D, 0x1
0e1c2000 ffffffff813c60a2 (05) e9 e4feffff              JMP 0xffffffff813c5f8b
0e1c2000 ffffffff813c5f8b (10) c783 48010000 00000000   MOV DWORD [RBX+0x148], 0x0
            store   0xffff88000d9ac148 0x000000000d9ac148 (4)
0e1c2000 ffffffff813c5f95 (03) 44 89f8                  MOV EAX, R15D
0e1c2000 ffffffff813c5f98 (03) 83e0 02                  AND EAX, 0x2
0e1c2000 ffffffff813c5f9b (02) 85c0                     TEST EAX, EAX
0e1c2000 ffffffff813c5f9d (02) 74 1a                    JZ 0xffffffff813c5fb9
0e1c2000 ffffffff813c5fb9 (04) 41 83e7 01               AND R15D, 0x1
0e1c2000 ffffffff813c5fbd (03) 45 85ff                  TEST R15D, R15D
0e1c2000 ffffffff813c5fc0 (02) 74 11                    JZ 0xffffffff813c5fd3
0e1c2000 ffffffff813c5fc2 (03) 44 89f1                  MOV ECX, R14D
0e1c2000 ffffffff813c5fc5 (03) 44 89ea                  MOV EDX, R13D
0e1c2000 ffffffff813c5fc8 (03) 44 89e6                  MOV ESI, R12D
0e1c2000 ffffffff813c5fcb (03) 48 89df                  MOV RDI, RBX
0e1c2000 ffffffff813c5fce (05) e8 7de5ffff              CALL 0xffffffff813c4550
            store   0xffff8800019eed40 0x00000000019eed40 (8)
0e1c2000 ffffffff813c4550 (01) 55                       PUSH RBP
            store   0xffff8800019eed38 0x00000000019eed38 (8)
0e1c2000 ffffffff813c4551 (03) 48 89e5                  MOV RBP, RSP
0e1c2000 ffffffff813c4554 (04) 48 83ec 30               SUB RSP, 0x30
0e1c2000 ffffffff813c4558 (04) 48 895d d8               MOV [RBP-0x28], RBX
            store   0xffff8800019eed10 0x00000000019eed10 (8)
0e1c2000 ffffffff813c455c (04) 4c 8965 e0               MOV [RBP-0x20], R12
            store   0xffff8800019eed18 0x00000000019eed18 (8)
0e1c2000 ffffffff813c4560 (03) 48 89fb                  MOV RBX, RDI
0e1c2000 ffffffff813c4563 (04) 4c 896d e8               MOV [RBP-0x18], R13
            store   0xffff8800019eed20 0x00000000019eed20 (8)
0e1c2000 ffffffff813c4567 (04) 4c 8975 f0               MOV [RBP-0x10], R14
            store   0xffff8800019eed28 0x00000000019eed28 (8)
0e1c2000 ffffffff813c456b (03) 41 89f4                  MOV R12D, ESI
0e1c2000 ffffffff813c456e (04) 4c 897d f8               MOV [RBP-0x8], R15
            store   0xffff8800019eed30 0x00000000019eed30 (8)
0e1c2000 ffffffff813c4572 (07) 48 8bbf f0070000         MOV RDI, [RDI+0x7f0]
            load    0xffff88000d9ac7f0 0x000000000d9ac7f0 (8)
0e1c2000 ffffffff813c4579 (03) 41 89d5                  MOV R13D, EDX
0e1c2000 ffffffff813c457c (03) 41 89ce                  MOV R14D, ECX
0e1c2000 ffffffff813c457f (03) 48 85ff                  TEST RDI, RDI
0e1c2000 ffffffff813c4582 (02) 74 24                    JZ 0xffffffff813c45a8
0e1c2000 ffffffff813c45a8 (07) 48 8bbb f8070000         MOV RDI, [RBX+0x7f8]
            load    0xffff88000d9ac7f8 0x000000000d9ac7f8 (8)
0e1c2000 ffffffff813c45af (03) 48 85ff                  TEST RDI, RDI
0e1c2000 ffffffff813c45b2 (02) 74 0b                    JZ 0xffffffff813c45bf
0e1c2000 ffffffff813c45bf (07) 48 8bbb 80090000         MOV RDI, [RBX+0x980]
            load    0xffff88000d9ac980 0x000000000d9ac980 (8)
0e1c2000 ffffffff813c45c6 (07) 4c 8dbb 80090000         LEA R15, [RBX+0x980]
0e1c2000 ffffffff813c45cd (04) 48 83ef 28               SUB RDI, 0x28
0e1c2000 ffffffff813c45d1 (02) eb 0c                    JMP 0xffffffff813c45df
0e1c2000 ffffffff813c45df (04) 48 8b47 28               MOV RAX, [RDI+0x28]
            load    0xffff88000d985ce8 0x000000000d985ce8 (8)
0e1c2000 ffffffff813c45e3 (04) 48 8d5f 28               LEA RBX, [RDI+0x28]
0e1c2000 ffffffff813c45e7 (03) 49 39df                  CMP R15, RBX
0e1c2000 ffffffff813c45ea (03) 0f1808                   PREFETCHT0 [RAX]
0e1c2000 ffffffff813c45ed (02) 74 9c                    JZ 0xffffffff813c458b
0e1c2000 ffffffff813c45ef (03) 8b47 08                  MOV EAX, [RDI+0x8]
            load    0xffff88000d985cc8 0x000000000d985cc8 (4)
0e1c2000 ffffffff813c45f2 (02) 85c0                     TEST EAX, EAX
0e1c2000 ffffffff813c45f4 (02) 74 e2                    JZ 0xffffffff813c45d8
0e1c2000 ffffffff813c45f6 (04) 48 8b47 20               MOV RAX, [RDI+0x20]
            load    0xffff88000d985ce0 0x000000000d985ce0 (8)
0e1c2000 ffffffff813c45fa (03) 44 89f1                  MOV ECX, R14D
0e1c2000 ffffffff813c45fd (03) 44 89ea                  MOV EDX, R13D
0e1c2000 ffffffff813c4600 (03) 44 89e6                  MOV ESI, R12D
0e1c2000 ffffffff813c4603 (03) ff50 08                  CALL [RAX+0x8]
            load    0xffffffff817d1388 0x00000000017d1388 (8)
            store   0xffff8800019eed00 0x00000000019eed00 (8)
0e1c2000 ffffffff81302ae0 (01) 55                       PUSH RBP
            store   0xffff8800019eecf8 0x00000000019eecf8 (8)
0e1c2000 ffffffff81302ae1 (03) 83fa 03                  CMP EDX, 0x3
0e1c2000 ffffffff81302ae4 (02) 89d0                     MOV EAX, EDX
0e1c2000 ffffffff81302ae6 (03) 48 89e5                  MOV RBP, RSP
0e1c2000 ffffffff81302ae9 (06) 0f84 81000000            JZ 0xffffffff81302b70
0e1c2000 ffffffff81302aef (03) 83fe 01                  CMP ESI, 0x1
0e1c2000 ffffffff81302af2 (02) 75 47                    JNZ 0xffffffff81302b3b
0e1c2000 ffffffff81302af4 (04) 48 8b57 18               MOV RDX, [RDI+0x18]
            load    0xffff88000d985cd8 0x000000000d985cd8 (8)
0e1c2000 ffffffff81302af8 (04) f642 20 10               TEST BYTE [RDX+0x20], 0x10
            load    0xffff88000d9ac020 0x000000000d9ac020 (1)
0e1c2000 ffffffff81302afc (02) 74 32                    JZ 0xffffffff81302b30
0e1c2000 ffffffff81302afe (07) f682 98000000 08         TEST BYTE [RDX+0x98], 0x8
            load    0xffff88000d9ac098 0x000000000d9ac098 (1)
0e1c2000 ffffffff81302b05 (02) 74 29                    JZ 0xffffffff81302b30
0e1c2000 ffffffff81302b30 (02) 31d2                     XOR EDX, EDX
0e1c2000 ffffffff81302b32 (02) 89ce                     MOV ESI, ECX
0e1c2000 ffffffff81302b34 (02) 89c7                     MOV EDI, EAX
0e1c2000 ffffffff81302b36 (05) e8 e5f9ffff              CALL 0xffffffff81302520
            store   0xffff8800019eecf0 0x00000000019eecf0 (8)
0e1c2000 ffffffff81302520 (01) 55                       PUSH RBP
            store   0xffff8800019eece8 0x00000000019eece8 (8)
0e1c2000 ffffffff81302521 (03) 48 89e5                  MOV RBP, RSP
0e1c2000 ffffffff81302524 (04) 48 83ec 60               SUB RSP, 0x60
0e1c2000 ffffffff81302528 (07) 48 6305 29f46c00         MOVSXD RAX, [RIP+0x6cf429]
            load    0xffffffff819d1958 0x00000000019d1958 (4)
0e1c2000 ffffffff8130252f (04) 4c 897d f8               MOV [RBP-0x8], R15
            store   0xffff8800019eece0 0x00000000019eece0 (8)
0e1c2000 ffffffff81302533 (03) 41 89d7                  MOV R15D, EDX
0e1c2000 ffffffff81302536 (04) 4c 896d e8               MOV [RBP-0x18], R13
            store   0xffff8800019eecd0 0x00000000019eecd0 (8)
0e1c2000 ffffffff8130253a (04) 48 895d d8               MOV [RBP-0x28], RBX
            store   0xffff8800019eecc0 0x00000000019eecc0 (8)
0e1c2000 ffffffff8130253e (04) 4c 8965 e0               MOV [RBP-0x20], R12
            store   0xffff8800019eecc8 0x00000000019eecc8 (8)
0e1c2000 ffffffff81302542 (02) 89fb                     MOV EBX, EDI
0e1c2000 ffffffff81302544 (08) 48 c745 b8 00000000      MOV QWORD [RBP-0x48], 0x0
            store   0xffff8800019eeca0 0x00000000019eeca0 (8)
0e1c2000 ffffffff8130254c (08) 48 c745 c0 00000000      MOV QWORD [RBP-0x40], 0x0
            store   0xffff8800019eeca8 0x00000000019eeca8 (8)
0e1c2000 ffffffff81302554 (03) 41 89f4                  MOV R12D, ESI
0e1c2000 ffffffff81302557 (04) 48 8d1480                LEA RDX, [RAX+RAX*4]
0e1c2000 ffffffff8130255b (04) 4c 8975 f0               MOV [RBP-0x10], R14
            store   0xffff8800019eecd8 0x00000000019eecd8 (8)
0e1c2000 ffffffff8130255f (03) 8975 b8                  MOV [RBP-0x48], ESI
            store   0xffff8800019eeca0 0x00000000019eeca0 (4)
0e1c2000 ffffffff81302562 (03) 897d c4                  MOV [RBP-0x3c], EDI
            store   0xffff8800019eecac 0x00000000019eecac (4)
0e1c2000 ffffffff81302565 (08) 4c 8b2cd5 800f9d81       MOV R13, [RDX*8-0x7e62f080]
            load    0xffffffff819d0f80 0x00000000019d0f80 (8)
0e1c2000 ffffffff8130256d (04) 4c 896d b0               MOV [RBP-0x50], R13
            store   0xffff8800019eec98 0x00000000019eec98 (8)
0e1c2000 ffffffff81302571 (07) 4d 8bb5 e8000000         MOV R14, [R13+0xe8]
            load    0xffff88000f4030e8 0x000000000f4030e8 (8)
0e1c2000 ffffffff81302578 (03) 4d 85f6                  TEST R14, R14
0e1c2000 ffffffff8130257b (02) 74 0e                    JZ 0xffffffff8130258b
0e1c2000 ffffffff8130257d (08) 49 83be 00020000 00      CMP QWORD [R14+0x200], 0x0
            load    0xffff88000cce4a00 0x000000000cce4a00 (8)
0e1c2000 ffffffff81302585 (06) 0f84 e5030000            JZ 0xffffffff81302970
0e1c2000 ffffffff8130258b (08) 48 8d8480 000c9d81       LEA RAX, [RAX+RAX*4-0x7e62f400]
0e1c2000 ffffffff81302593 (03) 83fb 64                  CMP EBX, 0x64
0e1c2000 ffffffff81302596 (07) 48 8905 5bee4c00         MOV [RIP+0x4cee5b], RAX
            store   0xffffffff817d13f8 0x00000000017d13f8 (8)
0e1c2000 ffffffff8130259d (06) 0f84 ad020000            JZ 0xffffffff81302850
0e1c2000 ffffffff813025a3 (03) 83fb 38                  CMP EBX, 0x38
0e1c2000 ffffffff813025a6 (06) 0f84 a4020000            JZ 0xffffffff81302850
0e1c2000 ffffffff813025ac (04) 41 83fc 02               CMP R12D, 0x2
0e1c2000 ffffffff813025b0 (03) 44 89e2                  MOV EDX, R12D
0e1c2000 ffffffff813025b3 (02) 89de                     MOV ESI, EBX
0e1c2000 ffffffff813025b5 (05) bf 01000000              MOV EDI, 0x1
0e1c2000 ffffffff813025ba (07) 0f9405 33e86c00          SETZ BYTE [RIP+0x6ce833]
            store   0xffffffff819d0df4 0x00000000019d0df4 (1)
0e1c2000 ffffffff813025c1 (05) e8 fa1a0300              CALL 0xffffffff813340c0
            store   0xffff8800019eec80 0x00000000019eec80 (8)
0e1c2000 ffffffff813340c0 (01) 55                       PUSH RBP
            store   0xffff8800019eec78 0x00000000019eec78 (8)
0e1c2000 ffffffff813340c1 (03) 83ff 01                  CMP EDI, 0x1
0e1c2000 ffffffff813340c4 (03) 48 89e5                  MOV RBP, RSP
0e1c2000 ffffffff813340c7 (02) 74 07                    JZ 0xffffffff813340d0
0e1c2000 ffffffff813340d0 (06) 8b05 a2496a00            MOV EAX, [RIP+0x6a49a2]
            load    0xffffffff819d8a78 0x00000000019d8a78 (4)
0e1c2000 ffffffff813340d6 (02) 85c0                     TEST EAX, EAX
0e1c2000 ffffffff813340d8 (02) 74 ef                    JZ 0xffffffff813340c9
0e1c2000 ffffffff813340c9 (02) 31c0                     XOR EAX, EAX
0e1c2000 ffffffff813340cb (01) c9                       LEAVE 
            load    0xffff8800019eec78 0x00000000019eec78 (8)
0e1c2000 ffffffff813340cc (01) c3                       RET 
            load    0xffff8800019eec80 0x00000000019eec80 (8)
0e1c2000 ffffffff813025c6 (02) 85c0                     TEST EAX, EAX
0e1c2000 ffffffff813025c8 (06) 0f85 12020000            JNZ 0xffffffff813027e0
0e1c2000 ffffffff813025ce (07) 48 8b05 23ee4c00         MOV RAX, [RIP+0x4cee23]
            load    0xffffffff817d13f8 0x00000000017d13f8 (8)
0e1c2000 ffffffff813025d5 (04) 0fb640 03                MOVZX EAX, BYTE [RAX+0x3]
            load    0xffffffff819d0c03 0x00000000019d0c03 (1)
0e1c2000 ffffffff813025d9 (03) 83e0 30                  AND EAX, 0x30
0e1c2000 ffffffff813025dc (02) 3c 20                    CMP AL, 0x20
0e1c2000 ffffffff813025de (04) 0f9445 af                SETZ BYTE [RBP-0x51]
            store   0xffff8800019eec97 0x00000000019eec97 (1)
0e1c2000 ffffffff813025e2 (06) 0f85 38020000            JNZ 0xffffffff81302820
0e1c2000 ffffffff81302820 (03) 83fb 63                  CMP EBX, 0x63
0e1c2000 ffffffff81302823 (06) 0f85 f7fdffff            JNZ 0xffffffff81302620
0e1c2000 ffffffff81302620 (07) 44 8b3d 09e86c00         MOV R15D, [RIP+0x6ce809]
            load    0xffffffff819d0e30 0x00000000019d0e30 (4)
0e1c2000 ffffffff81302627 (03) 45 85ff                  TEST R15D, R15D
0e1c2000 ffffffff8130262a (03) 0f95c0                   SETNZ AL
0e1c2000 ffffffff8130262d (03) 45 85e4                  TEST R12D, R12D
0e1c2000 ffffffff81302630 (03) 0f94c2                   SETZ DL
0e1c2000 ffffffff81302633 (02) 75 1a                    JNZ 0xffffffff8130264f
0e1c2000 ffffffff8130264f (03) 45 85e4                  TEST R12D, R12D
0e1c2000 ffffffff81302652 (04) 41 0f95c7                SETNZ R15B
0e1c2000 ffffffff81302656 (02) 84c0                     TEST AL, AL
0e1c2000 ffffffff81302658 (06) 0f85 32020000            JNZ 0xffffffff81302890
0e1c2000 ffffffff8130265e (07) 48 8b05 93ed4c00         MOV RAX, [RIP+0x4ced93]
            load    0xffffffff817d13f8 0x00000000017d13f8 (8)
0e1c2000 ffffffff81302665 (04) 0fb640 03                MOVZX EAX, BYTE [RAX+0x3]
            load    0xffffffff819d0c03 0x00000000019d0c03 (1)
0e1c2000 ffffffff81302669 (03) 83e0 30                  AND EAX, 0x30
0e1c2000 ffffffff8130266c (02) 3c 10                    CMP AL, 0x10
0e1c2000 ffffffff8130266e (06) 0f84 bc020000            JZ 0xffffffff81302930
0e1c2000 ffffffff81302674 (03) 45 84ff                  TEST R15B, R15B
0e1c2000 ffffffff81302677 (06) 0f84 eb010000            JZ 0xffffffff81302868
0e1c2000 ffffffff8130267d (01) 3e                       DB 0x3e 
0e1c2000 ffffffff8130267d (08) 3e 0fab1d fbe66c00       BTS [RIP+0x6ce6fb], EBX
            load    0xffffffff819d0d84 0x00000000019d0d84 (4)
            store   0xffffffff819d0d84 0x00000000019d0d84 (4)
0e1c2000 ffffffff81302685 (07) 803d 68e76c00 00         CMP BYTE [RIP+0x6ce768], 0x0
            load    0xffffffff819d0df4 0x00000000019d0df4 (1)
0e1c2000 ffffffff8130268c (06) 0f84 eb010000            JZ 0xffffffff8130287d
0e1c2000 ffffffff8130287d (07) 48 8b05 74eb4c00         MOV RAX, [RIP+0x4ceb74]
            load    0xffffffff817d13f8 0x00000000017d13f8 (8)
0e1c2000 ffffffff81302884 (05) e9 2dfeffff              JMP 0xffffffff813026b6
0e1c2000 ffffffff813026b6 (05) 44 0fb670 01             MOVZX R14D, BYTE [RAX+0x1]
            load    0xffffffff819d0c01 0x00000000019d0c01 (1)
0e1c2000 ffffffff813026bb (03) 0fb610                   MOVZX EDX, BYTE [RAX]
            load    0xffffffff819d0c00 0x00000000019d0c00 (1)
0e1c2000 ffffffff813026be (05) be 01000000              MOV ESI, 0x1
0e1c2000 ffffffff813026c3 (07) 44 0b35 2ee56c00         OR R14D, [RIP+0x6ce52e]
            load    0xffffffff819d0bf8 0x00000000019d0bf8 (4)
0e1c2000 ffffffff813026ca (07) 48 c7c7 400d9d81         MOV RDI, -0x7e62f2c0
0e1c2000 ffffffff813026d1 (03) 41 31d6                  XOR R14D, EDX
0e1c2000 ffffffff813026d4 (04) 48 8d55 b0               LEA RDX, [RBP-0x50]
0e1c2000 ffffffff813026d8 (04) 44 8975 bc               MOV [RBP-0x44], R14D
            store   0xffff8800019eeca4 0x00000000019eeca4 (4)
0e1c2000 ffffffff813026dc (04) 0fb640 02                MOVZX EAX, BYTE [RAX+0x2]
            load    0xffffffff819d0c02 0x00000000019d0c02 (1)
0e1c2000 ffffffff813026e0 (03) c0e8 02                  SHR AL, 0x2
0e1c2000 ffffffff813026e3 (03) 83e0 0f                  AND EAX, 0xf
0e1c2000 ffffffff813026e6 (03) 8945 c0                  MOV [RBP-0x40], EAX
            store   0xffff8800019eeca8 0x00000000019eeca8 (4)
0e1c2000 ffffffff813026e9 (03) 49 63c6                  MOVSXD RAX, R14D
0e1c2000 ffffffff813026ec (08) 48 8b0cc5 40307d81       MOV RCX, [RAX*8-0x7e82cfc0]
            load    0xffffffff817d3040 0x00000000017d3040 (8)
0e1c2000 ffffffff813026f4 (04) 48 894d a0               MOV [RBP-0x60], RCX
            store   0xffff8800019eec88 0x00000000019eec88 (8)
0e1c2000 ffffffff813026f8 (05) e8 93a12200              CALL 0xffffffff8152c890
            store   0xffff8800019eec80 0x00000000019eec80 (8)
0e1c2000 ffffffff8152c890 (01) 55                       PUSH RBP
            store   0xffff8800019eec78 0x00000000019eec78 (8)
0e1c2000 ffffffff8152c891 (04) 48 83c7 08               ADD RDI, 0x8
0e1c2000 ffffffff8152c895 (03) 45 31c0                  XOR R8D, R8D
0e1c2000 ffffffff8152c898 (05) b9 ffffffff              MOV ECX, -0x1
0e1c2000 ffffffff8152c89d (03) 48 89e5                  MOV RBP, RSP
0e1c2000 ffffffff8152c8a0 (05) e8 4bffffff              CALL 0xffffffff8152c7f0
            store   0xffff8800019eec70 0x00000000019eec70 (8)
0e1c2000 ffffffff8152c7f0 (01) 55                       PUSH RBP
            store   0xffff8800019eec68 0x00000000019eec68 (8)
0e1c2000 ffffffff8152c7f1 (03) 48 89e5                  MOV RBP, RSP
0e1c2000 ffffffff8152c7f4 (02) 41 57                    PUSH R15
            store   0xffff8800019eec60 0x00000000019eec60 (8)
0e1c2000 ffffffff8152c7f6 (02) 41 56                    PUSH R14
            store   0xffff8800019eec58 0x00000000019eec58 (8)
0e1c2000 ffffffff8152c7f8 (03) 4d 89c6                  MOV R14, R8
0e1c2000 ffffffff8152c7fb (02) 41 55                    PUSH R13
            store   0xffff8800019eec50 0x00000000019eec50 (8)
0e1c2000 ffffffff8152c7fd (03) 41 89cd                  MOV R13D, ECX
0e1c2000 ffffffff8152c800 (02) 41 54                    PUSH R12
            store   0xffff8800019eec48 0x00000000019eec48 (8)
0e1c2000 ffffffff8152c802 (03) 49 89d4                  MOV R12, RDX
0e1c2000 ffffffff8152c805 (01) 53                       PUSH RBX
            store   0xffff8800019eec40 0x00000000019eec40 (8)
0e1c2000 ffffffff8152c806 (03) 48 89f3                  MOV RBX, RSI
0e1c2000 ffffffff8152c809 (04) 48 83ec 08               SUB RSP, 0x8
0e1c2000 ffffffff8152c80d (03) 45 85ed                  TEST R13D, R13D
0e1c2000 ffffffff8152c810 (03) 48 8b0f                  MOV RCX, [RDI]
            load    0xffffffff819d0d48 0x00000000019d0d48 (8)
0e1c2000 ffffffff8152c813 (02) 75 0b                    JNZ 0xffffffff8152c820
0e1c2000 ffffffff8152c820 (03) 48 85c9                  TEST RCX, RCX
0e1c2000 ffffffff8152c823 (02) 74 f0                    JZ 0xffffffff8152c815
0e1c2000 ffffffff8152c815 (02) 31c0                     XOR EAX, EAX
0e1c2000 ffffffff8152c817 (02) eb 35                    JMP 0xffffffff8152c84e
0e1c2000 ffffffff8152c84e (04) 48 83c4 08               ADD RSP, 0x8
0e1c2000 ffffffff8152c852 (01) 5b                       POP RBX
            load    0xffff8800019eec40 0x00000000019eec40 (8)
0e1c2000 ffffffff8152c853 (02) 41 5c                    POP R12
            load    0xffff8800019eec48 0x00000000019eec48 (8)
0e1c2000 ffffffff8152c855 (02) 41 5d                    POP R13
            load    0xffff8800019eec50 0x00000000019eec50 (8)
0e1c2000 ffffffff8152c857 (02) 41 5e                    POP R14
            load    0xffff8800019eec58 0x00000000019eec58 (8)
0e1c2000 ffffffff8152c859 (02) 41 5f                    POP R15
            load    0xffff8800019eec60 0x00000000019eec60 (8)
0e1c2000 ffffffff8152c85b (01) c9                       LEAVE 
            load    0xffff8800019eec68 0x00000000019eec68 (8)
0e1c2000 ffffffff8152c85c (01) c3                       RET 
            load    0xffff8800019eec70 0x00000000019eec70 (8)
0e1c2000 ffffffff8152c8a5 (01) c9                       LEAVE 
            load    0xffff8800019eec78 0x00000000019eec78 (8)
0e1c2000 ffffffff8152c8a6 (01) c3                       RET 
            load    0xffff8800019eec80 0x00000000019eec80 (8)
0e1c2000 ffffffff813026fd (05) 3d 01800000              CMP EAX, 0x8001
0e1c2000 ffffffff81302702 (04) 48 8b4d a0               MOV RCX, [RBP-0x60]
            load    0xffff8800019eec88 0x00000000019eec88 (8)
0e1c2000 ffffffff81302706 (06) 0f84 14030000            JZ 0xffffffff81302a20
0e1c2000 ffffffff8130270c (03) 48 85c9                  TEST RCX, RCX
0e1c2000 ffffffff8130270f (06) 0f84 0b030000            JZ 0xffffffff81302a20
0e1c2000 ffffffff81302715 (06) 81fb ff000000            CMP EBX, 0xff
0e1c2000 ffffffff8130271b (06) 0f86 3f020000            JBE 0xffffffff81302960
0e1c2000 ffffffff81302960 (02) 89d8                     MOV EAX, EBX
0e1c2000 ffffffff81302962 (04) 0fb70c41                 MOVZX ECX, [RCX+RAX*2]
            load    0xffffffff817d229c 0x00000000017d229c (2)
0e1c2000 ffffffff81302966 (05) e9 cefdffff              JMP 0xffffffff81302739
0e1c2000 ffffffff81302739 (02) 89c8                     MOV EAX, ECX
0e1c2000 ffffffff8130273b (04) 66 c1e8 08               SHR AX, 0x8
0e1c2000 ffffffff8130273f (02) 3c ef                    CMP AL, 0xef
0e1c2000 ffffffff81302741 (06) 0f86 89020000            JBE 0xffffffff813029d0
0e1c2000 ffffffff81302747 (04) 44 8d78 10               LEA R15D, [RAX+0x10]
0e1c2000 ffffffff8130274b (04) 41 80ff 0b               CMP R15B, 0xb
0e1c2000 ffffffff8130274f (06) 0f84 13030000            JZ 0xffffffff81302a68
0e1c2000 ffffffff81302a68 (07) 48 8b05 89e94c00         MOV RAX, [RIP+0x4ce989]
            load    0xffffffff817d13f8 0x00000000017d13f8 (8)
0e1c2000 ffffffff81302a6f (04) 0fb640 02                MOVZX EAX, BYTE [RAX+0x2]
            load    0xffffffff819d0c02 0x00000000019d0c02 (1)
0e1c2000 ffffffff81302a73 (03) c0e8 02                  SHR AL, 0x2
0e1c2000 ffffffff81302a76 (02) a8 04                    TEST AL, 0x4
0e1c2000 ffffffff81302a78 (02) 74 56                    JZ 0xffffffff81302ad0
0e1c2000 ffffffff81302ad0 (03) 45 31ff                  XOR R15D, R15D
0e1c2000 ffffffff81302ad3 (05) e9 7dfcffff              JMP 0xffffffff81302755
0e1c2000 ffffffff81302755 (04) 48 8d55 b0               LEA RDX, [RBP-0x50]
0e1c2000 ffffffff81302759 (03) 0fb7c1                   MOVZX EAX, CX
0e1c2000 ffffffff8130275c (05) be 04000000              MOV ESI, 0x4
0e1c2000 ffffffff81302761 (07) 48 c7c7 400d9d81         MOV RDI, -0x7e62f2c0
0e1c2000 ffffffff81302768 (03) 894d a0                  MOV [RBP-0x60], ECX
            store   0xffff8800019eec88 0x00000000019eec88 (4)
0e1c2000 ffffffff8130276b (03) 8945 c4                  MOV [RBP-0x3c], EAX
            store   0xffff8800019eecac 0x00000000019eecac (4)
0e1c2000 ffffffff8130276e (05) e8 1da12200              CALL 0xffffffff8152c890
            store   0xffff8800019eec80 0x00000000019eec80 (8)
0e1c2000 ffffffff8152c890 (01) 55                       PUSH RBP
            store   0xffff8800019eec78 0x00000000019eec78 (8)
0e1c2000 ffffffff8152c891 (04) 48 83c7 08               ADD RDI, 0x8
0e1c2000 ffffffff8152c895 (03) 45 31c0                  XOR R8D, R8D
0e1c2000 ffffffff8152c898 (05) b9 ffffffff              MOV ECX, -0x1
0e1c2000 ffffffff8152c89d (03) 48 89e5                  MOV RBP, RSP
0e1c2000 ffffffff8152c8a0 (05) e8 4bffffff              CALL 0xffffffff8152c7f0
            store   0xffff8800019eec70 0x00000000019eec70 (8)
0e1c2000 ffffffff8152c7f0 (01) 55                       PUSH RBP
            store   0xffff8800019eec68 0x00000000019eec68 (8)
0e1c2000 ffffffff8152c7f1 (03) 48 89e5                  MOV RBP, RSP
0e1c2000 ffffffff8152c7f4 (02) 41 57                    PUSH R15
            store   0xffff8800019eec60 0x00000000019eec60 (8)
0e1c2000 ffffffff8152c7f6 (02) 41 56                    PUSH R14
            store   0xffff8800019eec58 0x00000000019eec58 (8)
0e1c2000 ffffffff8152c7f8 (03) 4d 89c6                  MOV R14, R8
0e1c2000 ffffffff8152c7fb (02) 41 55                    PUSH R13
            store   0xffff8800019eec50 0x00000000019eec50 (8)
0e1c2000 ffffffff8152c7fd (03) 41 89cd                  MOV R13D, ECX
0e1c2000 ffffffff8152c800 (02) 41 54                    PUSH R12
            store   0xffff8800019eec48 0x00000000019eec48 (8)
0e1c2000 ffffffff8152c802 (03) 49 89d4                  MOV R12, RDX
0e1c2000 ffffffff8152c805 (01) 53                       PUSH RBX
            store   0xffff8800019eec40 0x00000000019eec40 (8)
0e1c2000 ffffffff8152c806 (03) 48 89f3                  MOV RBX, RSI
0e1c2000 ffffffff8152c809 (04) 48 83ec 08               SUB RSP, 0x8
0e1c2000 ffffffff8152c80d (03) 45 85ed                  TEST R13D, R13D
0e1c2000 ffffffff8152c810 (03) 48 8b0f                  MOV RCX, [RDI]
            load    0xffffffff819d0d48 0x00000000019d0d48 (8)
0e1c2000 ffffffff8152c813 (02) 75 0b                    JNZ 0xffffffff8152c820
0e1c2000 ffffffff8152c820 (03) 48 85c9                  TEST RCX, RCX
0e1c2000 ffffffff8152c823 (02) 74 f0                    JZ 0xffffffff8152c815
0e1c2000 ffffffff8152c815 (02) 31c0                     XOR EAX, EAX
0e1c2000 ffffffff8152c817 (02) eb 35                    JMP 0xffffffff8152c84e
0e1c2000 ffffffff8152c84e (04) 48 83c4 08               ADD RSP, 0x8
0e1c2000 ffffffff8152c852 (01) 5b                       POP RBX
            load    0xffff8800019eec40 0x00000000019eec40 (8)
0e1c2000 ffffffff8152c853 (02) 41 5c                    POP R12
            load    0xffff8800019eec48 0x00000000019eec48 (8)
0e1c2000 ffffffff8152c855 (02) 41 5d                    POP R13
            load    0xffff8800019eec50 0x00000000019eec50 (8)
0e1c2000 ffffffff8152c857 (02) 41 5e                    POP R14
            load    0xffff8800019eec58 0x00000000019eec58 (8)
0e1c2000 ffffffff8152c859 (02) 41 5f                    POP R15
            load    0xffff8800019eec60 0x00000000019eec60 (8)
0e1c2000 ffffffff8152c85b (01) c9                       LEAVE 
            load    0xffff8800019eec68 0x00000000019eec68 (8)
0e1c2000 ffffffff8152c85c (01) c3                       RET 
            load    0xffff8800019eec70 0x00000000019eec70 (8)
0e1c2000 ffffffff8152c8a5 (01) c9                       LEAVE 
            load    0xffff8800019eec78 0x00000000019eec78 (8)
0e1c2000 ffffffff8152c8a6 (01) c3                       RET 
            load    0xffff8800019eec80 0x00000000019eec80 (8)
0e1c2000 ffffffff81302773 (05) 3d 01800000              CMP EAX, 0x8001
0e1c2000 ffffffff81302778 (03) 8b4d a0                  MOV ECX, [RBP-0x60]
            load    0xffff8800019eec88 0x00000000019eec88 (4)
0e1c2000 ffffffff8130277b (02) 74 63                    JZ 0xffffffff813027e0
0e1c2000 ffffffff8130277d (04) 41 80ff 02               CMP R15B, 0x2
0e1c2000 ffffffff81302781 (02) 74 0a                    JZ 0xffffffff8130278d
0e1c2000 ffffffff81302783 (04) 807d af 00               CMP BYTE [RBP-0x51], 0x0
            load    0xffff8800019eec97 0x00000000019eec97 (1)
0e1c2000 ffffffff81302787 (06) 0f85 53010000            JNZ 0xffffffff813028e0
0e1c2000 ffffffff8130278d (04) 41 0fb6c7                MOVZX EAX, R15B
0e1c2000 ffffffff81302791 (02) 31d2                     XOR EDX, EDX
0e1c2000 ffffffff81302793 (03) 45 85e4                  TEST R12D, R12D
0e1c2000 ffffffff81302796 (03) 0f94c2                   SETZ DL
0e1c2000 ffffffff81302799 (03) 0fb6f1                   MOVZX ESI, CL
0e1c2000 ffffffff8130279c (03) 4c 89ef                  MOV RDI, R13
0e1c2000 ffffffff8130279f (07) ff14c5 c00f7d81          CALL [RAX*8-0x7e82f040]
            load    0xffffffff817d0fc0 0x00000000017d0fc0 (8)
            store   0xffff8800019eec80 0x00000000019eec80 (8)
0e1c2000 ffffffff81302220 (01) 55                       PUSH RBP
            store   0xffff8800019eec78 0x00000000019eec78 (8)
0e1c2000 ffffffff81302221 (03) 48 89e5                  MOV RBP, RSP
0e1c2000 ffffffff81302224 (04) 48 83ec 10               SUB RSP, 0x10
0e1c2000 ffffffff81302228 (04) 48 891c24                MOV [RSP], RBX
            store   0xffff8800019eec68 0x00000000019eec68 (8)
0e1c2000 ffffffff8130222c (05) 4c 896424 08             MOV [RSP+0x8], R12
            store   0xffff8800019eec70 0x00000000019eec70 (8)
0e1c2000 ffffffff81302231 (03) 48 89fb                  MOV RBX, RDI
0e1c2000 ffffffff81302234 (03) 41 89d4                  MOV R12D, EDX
0e1c2000 ffffffff81302237 (04) 40 0fb6fe                MOVZX EDI, SIL
0e1c2000 ffffffff8130223b (05) e8 500b0000              CALL 0xffffffff81302d90
            store   0xffff8800019eec60 0x00000000019eec60 (8)
0e1c2000 ffffffff81302d90 (04) 40 0fb6ff                MOVZX EDI, DIL
0e1c2000 ffffffff81302d94 (01) 55                       PUSH RBP
            store   0xffff8800019eec58 0x00000000019eec58 (8)
0e1c2000 ffffffff81302d95 (03) 48 63c7                  MOVSXD RAX, EDI
0e1c2000 ffffffff81302d98 (02) 89fa                     MOV EDX, EDI
0e1c2000 ffffffff81302d9a (08) 0fb78400 801a7d81        MOVZX EAX, [RAX+RAX-0x7e82e580]
            load    0xffffffff817d1b46 0x00000000017d1b46 (2)
0e1c2000 ffffffff81302da2 (03) 80ce f0                  OR DH, 0xf0
0e1c2000 ffffffff81302da5 (03) 48 89e5                  MOV RBP, RSP
0e1c2000 ffffffff81302da8 (01) c9                       LEAVE 
            load    0xffff8800019eec58 0x00000000019eec58 (8)
0e1c2000 ffffffff81302da9 (02) 39d0                     CMP EAX, EDX
0e1c2000 ffffffff81302dab (03) 0f44c7                   CMOVZ EAX, EDI
0e1c2000 ffffffff81302dae (01) c3                       RET 
            load    0xffff8800019eec60 0x00000000019eec60 (8)
0e1c2000 ffffffff81302240 (04) 41 0fbed4                MOVSX EDX, R12B
0e1c2000 ffffffff81302244 (03) 48 89df                  MOV RDI, RBX
0e1c2000 ffffffff81302247 (02) 89c6                     MOV ESI, EAX
0e1c2000 ffffffff81302249 (05) e8 32ffffff              CALL 0xffffffff81302180
            store   0xffff8800019eec60 0x00000000019eec60 (8)
0e1c2000 ffffffff81302180 (01) 55                       PUSH RBP
            store   0xffff8800019eec58 0x00000000019eec58 (8)
0e1c2000 ffffffff81302181 (03) 48 89e5                  MOV RBP, RSP
0e1c2000 ffffffff81302184 (01) 53                       PUSH RBX
            store   0xffff8800019eec50 0x00000000019eec50 (8)
0e1c2000 ffffffff81302185 (03) 48 89fb                  MOV RBX, RDI
0e1c2000 ffffffff81302188 (04) 48 83ec 08               SUB RSP, 0x8
0e1c2000 ffffffff8130218c (02) 84d2                     TEST DL, DL
0e1c2000 ffffffff8130218e (02) 75 3e                    JNZ 0xffffffff813021ce
0e1c2000 ffffffff81302190 (07) 44 8b05 59ec6c00         MOV R8D, [RIP+0x6cec59]
            load    0xffffffff819d0df0 0x00000000019d0df0 (4)
0e1c2000 ffffffff81302197 (03) 45 85c0                  TEST R8D, R8D
0e1c2000 ffffffff8130219a (02) 75 54                    JNZ 0xffffffff813021f0
0e1c2000 ffffffff8130219c (06) 8b3d 4aec6c00            MOV EDI, [RIP+0x6cec4a]
            load    0xffffffff819d0dec 0x00000000019d0dec (4)
0e1c2000 ffffffff813021a2 (02) 85ff                     TEST EDI, EDI
0e1c2000 ffffffff813021a4 (02) 75 32                    JNZ 0xffffffff813021d8
0e1c2000 ffffffff813021a6 (07) 48 8b05 4bf24c00         MOV RAX, [RIP+0x4cf24b]
            load    0xffffffff817d13f8 0x00000000017d13f8 (8)
0e1c2000 ffffffff813021ad (04) 0fb640 03                MOVZX EAX, BYTE [RAX+0x3]
            load    0xffffffff819d0c03 0x00000000019d0c03 (1)
0e1c2000 ffffffff813021b1 (03) 83e0 30                  AND EAX, 0x30
0e1c2000 ffffffff813021b4 (02) 3c 30                    CMP AL, 0x30
0e1c2000 ffffffff813021b6 (02) 74 50                    JZ 0xffffffff81302208
0e1c2000 ffffffff81302208 (03) 48 89df                  MOV RDI, RBX
0e1c2000 ffffffff8130220b (05) e8 50f9ffff              CALL 0xffffffff81301b60
            store   0xffff8800019eec40 0x00000000019eec40 (8)
0e1c2000 ffffffff81301b60 (01) 55                       PUSH RBP
            store   0xffff8800019eec38 0x00000000019eec38 (8)
0e1c2000 ffffffff81301b61 (03) 48 89e5                  MOV RBP, RSP
0e1c2000 ffffffff81301b64 (04) 48 83ec 10               SUB RSP, 0x10
0e1c2000 ffffffff81301b68 (03) 83fe 7f                  CMP ESI, 0x7f
0e1c2000 ffffffff81301b6b (04) 48 891c24                MOV [RSP], RBX
            store   0xffff8800019eec28 0x00000000019eec28 (8)
0e1c2000 ffffffff81301b6f (05) 4c 896424 08             MOV [RSP+0x8], R12
            store   0xffff8800019eec30 0x00000000019eec30 (8)
0e1c2000 ffffffff81301b74 (02) 89f3                     MOV EBX, ESI
0e1c2000 ffffffff81301b76 (03) 49 89fc                  MOV R12, RDI
0e1c2000 ffffffff81301b79 (06) 0f86 99000000            JBE 0xffffffff81301c18
0e1c2000 ffffffff81301c18 (05) e8 f3fcffff              CALL 0xffffffff81301910
            store   0xffff8800019eec20 0x00000000019eec20 (8)
0e1c2000 ffffffff81301910 (01) 55                       PUSH RBP
            store   0xffff8800019eec18 0x00000000019eec18 (8)
0e1c2000 ffffffff81301911 (03) 48 89e5                  MOV RBP, RSP
0e1c2000 ffffffff81301914 (02) 41 54                    PUSH R12
            store   0xffff8800019eec10 0x00000000019eec10 (8)
0e1c2000 ffffffff81301916 (01) 53                       PUSH RBX
            store   0xffff8800019eec08 0x00000000019eec08 (8)
0e1c2000 ffffffff81301917 (04) 48 83ec 10               SUB RSP, 0x10
0e1c2000 ffffffff8130191b (07) 48 8b9f e8000000         MOV RBX, [RDI+0xe8]
            load    0xffff88000f4030e8 0x000000000f4030e8 (8)
0e1c2000 ffffffff81301922 (03) 48 85db                  TEST RBX, RBX
0e1c2000 ffffffff81301925 (02) 74 6b                    JZ 0xffffffff81301992
0e1c2000 ffffffff81301927 (04) 40 8875 ef               MOV [RBP-0x11], SIL
            store   0xffff8800019eec07 0x00000000019eec07 (1)
0e1c2000 ffffffff8130192b (04) c645 ee 00               MOV BYTE [RBP-0x12], 0x0
            store   0xffff8800019eec06 0x00000000019eec06 (1)
0e1c2000 ffffffff8130192f (07) 48 8b83 88010000         MOV RAX, [RBX+0x188]
            load    0xffff88000cce4988 0x000000000cce4988 (8)
0e1c2000 ffffffff81301936 (03) 48 85c0                  TEST RAX, RAX
0e1c2000 ffffffff81301939 (02) 74 08                    JZ 0xffffffff81301943
0e1c2000 ffffffff8130193b (03) 8b50 18                  MOV EDX, [RAX+0x18]
            load    0xffff88000e46bc18 0x000000000e46bc18 (4)
0e1c2000 ffffffff8130193e (03) 3b50 1c                  CMP EDX, [RAX+0x1c]
            load    0xffff88000e46bc1c 0x000000000e46bc1c (4)
0e1c2000 ffffffff81301941 (02) 7c 5d                    JL 0xffffffff813019a0
0e1c2000 ffffffff813019a0 (04) 48 8b48 10               MOV RCX, [RAX+0x10]
            load    0xffff88000e46bc10 0x000000000e46bc10 (8)
0e1c2000 ffffffff813019a4 (03) 48 63d2                  MOVSXD RDX, EDX
0e1c2000 ffffffff813019a7 (04) c60411 00                MOV BYTE [RCX+RDX], 0x0
            store   0xffff88000e46bd32 0x000000000e46bd32 (1)
0e1c2000 ffffffff813019ab (03) 8b50 18                  MOV EDX, [RAX+0x18]
            load    0xffff88000e46bc18 0x000000000e46bc18 (4)
0e1c2000 ffffffff813019ae (04) 0fb67d ef                MOVZX EDI, BYTE [RBP-0x11]
            load    0xffff8800019eec07 0x00000000019eec07 (1)
0e1c2000 ffffffff813019b2 (04) 48 8b70 08               MOV RSI, [RAX+0x8]
            load    0xffff88000e46bc08 0x000000000e46bc08 (8)
0e1c2000 ffffffff813019b6 (03) 48 63ca                  MOVSXD RCX, EDX
0e1c2000 ffffffff813019b9 (03) 83c2 01                  ADD EDX, 0x1
0e1c2000 ffffffff813019bc (04) 40 883c0e                MOV [RSI+RCX], DIL
            store   0xffff88000e46bc32 0x000000000e46bc32 (1)
0e1c2000 ffffffff813019c0 (03) 8950 18                  MOV [RAX+0x18], EDX
            store   0xffff88000e46bc18 0x000000000e46bc18 (4)
0e1c2000 ffffffff813019c3 (02) eb 93                    JMP 0xffffffff81301958
0e1c2000 ffffffff81301958 (07) 4c 8da3 78010000         LEA R12, [RBX+0x178]
0e1c2000 ffffffff8130195f (03) 4c 89e7                  MOV RDI, R12
0e1c2000 ffffffff81301962 (05) e8 d97f2200              CALL 0xffffffff81529940
            store   0xffff8800019eebf0 0x00000000019eebf0 (8)
0e1c2000 ffffffff81529940 (01) 55                       PUSH RBP
            store   0xffff8800019eebe8 0x00000000019eebe8 (8)
0e1c2000 ffffffff81529941 (03) 48 89e5                  MOV RBP, RSP
0e1c2000 ffffffff81529944 (04) 48 83ec 10               SUB RSP, 0x10
0e1c2000 ffffffff81529948 (04) 48 891c24                MOV [RSP], RBX
            store   0xffff8800019eebd8 0x00000000019eebd8 (8)
0e1c2000 ffffffff8152994c (05) 4c 896424 08             MOV [RSP+0x8], R12
            store   0xffff8800019eebe0 0x00000000019eebe0 (8)
0e1c2000 ffffffff81529951 (01) 9c                       PUSHF 
            store   0xffff8800019eebd0 0x00000000019eebd0 (8)
0e1c2000 ffffffff81529952 (01) 58                       POP RAX
            load    0xffff8800019eebd0 0x00000000019eebd0 (8)
0e1c2000 ffffffff81529953 (01) 66                       DB 0x66 
0e1c2000 ffffffff81529954 (01) 66                       DB 0x66 
0e1c2000 ffffffff81529954 (02) 66 90                    NOP 
0e1c2000 ffffffff81529956 (01) 66                       DB 0x66 
0e1c2000 ffffffff81529956 (02) 66 90                    NOP 
0e1c2000 ffffffff81529958 (03) 48 89c3                  MOV RBX, RAX
0e1c2000 ffffffff8152995b (01) fa                       CLI 
0e1c2000 ffffffff8152995c (01) 66                       DB 0x66 
0e1c2000 ffffffff8152995d (01) 66                       DB 0x66 
0e1c2000 ffffffff8152995d (02) 66 90                    NOP 
0e1c2000 ffffffff8152995f (01) 66                       DB 0x66 
0e1c2000 ffffffff81529960 (01) 66                       DB 0x66 
0e1c2000 ffffffff81529960 (02) 66 90                    NOP 
0e1c2000 ffffffff81529962 (03) 48 89de                  MOV RSI, RBX
0e1c2000 ffffffff81529965 (05) e8 a6cab0ff              CALL 0xffffffff81036410
            store   0xffff8800019eebd0 0x00000000019eebd0 (8)
0e1c2000 ffffffff81036410 (01) 55                       PUSH RBP
            store   0xffff8800019eebc8 0x00000000019eebc8 (8)
0e1c2000 ffffffff81036411 (03) 48 89e5                  MOV RBP, RSP
0e1c2000 ffffffff81036414 (05) e8 67ffffff              CALL 0xffffffff81036380
            store   0xffff8800019eebc0 0x00000000019eebc0 (8)
0e1c2000 ffffffff81036380 (01) 55                       PUSH RBP
            store   0xffff8800019eebb8 0x00000000019eebb8 (8)
0e1c2000 ffffffff81036381 (05) b8 00010000              MOV EAX, 0x100
0e1c2000 ffffffff81036386 (03) 48 89e5                  MOV RBP, RSP
0e1c2000 ffffffff81036389 (01) 3e                       DB 0x3e 
0e1c2000 ffffffff81036389 (05) 3e 66 0fc107             XADD [RDI], AX
            load    0xffff88000cce4978 0x000000000cce4978 (2)
            store   0xffff88000cce4978 0x000000000cce4978 (2)
0e1c2000 ffffffff8103638e (02) 38e0                     CMP AL, AH
0e1c2000 ffffffff81036390 (02) 74 06                    JZ 0xffffffff81036398
0e1c2000 ffffffff81036398 (01) c9                       LEAVE 
            load    0xffff8800019eebb8 0x00000000019eebb8 (8)
0e1c2000 ffffffff81036399 (01) c3                       RET 
            load    0xffff8800019eebc0 0x00000000019eebc0 (8)
0e1c2000 ffffffff81036419 (01) 66                       DB 0x66 
0e1c2000 ffffffff81036419 (02) 66 90                    NOP 
0e1c2000 ffffffff8103641b (01) c9                       LEAVE 
            load    0xffff8800019eebc8 0x00000000019eebc8 (8)
0e1c2000 ffffffff8103641c (01) c3                       RET 
            load    0xffff8800019eebd0 0x00000000019eebd0 (8)
0e1c2000 ffffffff8152996a (01) 66                       DB 0x66 
0e1c2000 ffffffff8152996a (02) 66 90                    NOP 
0e1c2000 ffffffff8152996c (03) 48 89d8                  MOV RAX, RBX
0e1c2000 ffffffff8152996f (05) 4c 8b6424 08             MOV R12, [RSP+0x8]
            load    0xffff8800019eebe0 0x00000000019eebe0 (8)
0e1c2000 ffffffff81529974 (04) 48 8b1c24                MOV RBX, [RSP]
            load    0xffff8800019eebd8 0x00000000019eebd8 (8)
0e1c2000 ffffffff81529978 (01) c9                       LEAVE 
            load    0xffff8800019eebe8 0x00000000019eebe8 (8)
0e1c2000 ffffffff81529979 (01) c3                       RET 
            load    0xffff8800019eebf0 0x00000000019eebf0 (8)
0e1c2000 ffffffff81301967 (07) 48 8b93 88010000         MOV RDX, [RBX+0x188]
            load    0xffff88000cce4988 0x000000000cce4988 (8)
0e1c2000 ffffffff8130196e (03) 48 85d2                  TEST RDX, RDX
0e1c2000 ffffffff81301971 (02) 74 06                    JZ 0xffffffff81301979
0e1c2000 ffffffff81301973 (03) 8b4a 18                  MOV ECX, [RDX+0x18]
            load    0xffff88000e46bc18 0x000000000e46bc18 (4)
0e1c2000 ffffffff81301976 (03) 894a 20                  MOV [RDX+0x20], ECX
            store   0xffff88000e46bc20 0x000000000e46bc20 (4)
0e1c2000 ffffffff81301979 (03) 48 89c6                  MOV RSI, RAX
0e1c2000 ffffffff8130197c (03) 4c 89e7                  MOV RDI, R12
0e1c2000 ffffffff8130197f (05) e8 1c812200              CALL 0xffffffff81529aa0
            store   0xffff8800019eebf0 0x00000000019eebf0 (8)
0e1c2000 ffffffff81529aa0 (01) 55                       PUSH RBP
            store   0xffff8800019eebe8 0x00000000019eebe8 (8)
0e1c2000 ffffffff81529aa1 (03) 48 89e5                  MOV RBP, RSP
0e1c2000 ffffffff81529aa4 (01) 53                       PUSH RBX
            store   0xffff8800019eebe0 0x00000000019eebe0 (8)
0e1c2000 ffffffff81529aa5 (03) 48 89f3                  MOV RBX, RSI
0e1c2000 ffffffff81529aa8 (05) e8 13c9b0ff              CALL 0xffffffff810363c0
            store   0xffff8800019eebd8 0x00000000019eebd8 (8)
0e1c2000 ffffffff810363c0 (01) 55                       PUSH RBP
            store   0xffff8800019eebd0 0x00000000019eebd0 (8)
0e1c2000 ffffffff810363c1 (03) 48 89e5                  MOV RBP, RSP
0e1c2000 ffffffff810363c4 (02) fe07                     INC BYTE [RDI]
            load    0xffff88000cce4978 0x000000000cce4978 (1)
            store   0xffff88000cce4978 0x000000000cce4978 (1)
0e1c2000 ffffffff810363c6 (01) c9                       LEAVE 
            load    0xffff8800019eebd0 0x00000000019eebd0 (8)
0e1c2000 ffffffff810363c7 (01) c3                       RET 
            load    0xffff8800019eebd8 0x00000000019eebd8 (8)
0e1c2000 ffffffff81529aad (01) 66                       DB 0x66 
0e1c2000 ffffffff81529aad (02) 66 90                    NOP 
0e1c2000 ffffffff81529aaf (03) 48 89df                  MOV RDI, RBX
0e1c2000 ffffffff81529ab2 (01) 57                       PUSH RDI
            store   0xffff8800019eebd8 0x00000000019eebd8 (8)
0e1c2000 ffffffff81529ab3 (01) 9d                       POPF 
            load    0xffff8800019eebd8 0x00000000019eebd8 (8)
0e1c2000 ffffffff81529ab4 (01) 66                       DB 0x66 
0e1c2000 ffffffff81529ab5 (01) 66                       DB 0x66 
0e1c2000 ffffffff81529ab5 (02) 66 90                    NOP 
0e1c2000 ffffffff81529ab7 (01) 66                       DB 0x66 
0e1c2000 ffffffff81529ab7 (02) 66 90                    NOP 
0e1c2000 ffffffff81529ab9 (01) 5b                       POP RBX
            load    0xffff8800019eebe0 0x00000000019eebe0 (8)
0e1c2000 ffffffff81529aba (01) c9                       LEAVE 
            load    0xffff8800019eebe8 0x00000000019eebe8 (8)
0e1c2000 ffffffff81529abb (01) c3                       RET 
            load    0xffff8800019eebf0 0x00000000019eebf0 (8)
0e1c2000 ffffffff81301984 (07) 48 8dbb 08010000         LEA RDI, [RBX+0x108]
0e1c2000 ffffffff8130198b (02) 31f6                     XOR ESI, ESI
0e1c2000 ffffffff8130198d (05) e8 ce29d7ff              CALL 0xffffffff81074360
            store   0xffff8800019eebf0 0x00000000019eebf0 (8)
0e1c2000 ffffffff81074360 (01) 55                       PUSH RBP
            store   0xffff8800019eebe8 0x00000000019eebe8 (8)
0e1c2000 ffffffff81074361 (03) 48 89f2                  MOV RDX, RSI
0e1c2000 ffffffff81074364 (03) 48 89fe                  MOV RSI, RDI
0e1c2000 ffffffff81074367 (07) 48 8b3d 2aad7a00         MOV RDI, [RIP+0x7aad2a]
            load    0xffffffff8181f098 0x000000000181f098 (8)
0e1c2000 ffffffff8107436e (03) 48 89e5                  MOV RBP, RSP
0e1c2000 ffffffff81074371 (05) e8 baffffff              CALL 0xffffffff81074330
            store   0xffff8800019eebe0 0x00000000019eebe0 (8)
0e1c2000 ffffffff81074330 (01) 55                       PUSH RBP
            store   0xffff8800019eebd8 0x00000000019eebd8 (8)
0e1c2000 ffffffff81074331 (03) 48 85d2                  TEST RDX, RDX
0e1c2000 ffffffff81074334 (03) 48 89e5                  MOV RBP, RSP
0e1c2000 ffffffff81074337 (02) 74 17                    JZ 0xffffffff81074350
0e1c2000 ffffffff81074350 (05) e8 3bffffff              CALL 0xffffffff81074290
            store   0xffff8800019eebd0 0x00000000019eebd0 (8)
0e1c2000 ffffffff81074290 (01) 55                       PUSH RBP
            store   0xffff8800019eebc8 0x00000000019eebc8 (8)
0e1c2000 ffffffff81074291 (03) 48 89f8                  MOV RAX, RDI
0e1c2000 ffffffff81074294 (03) 48 89f2                  MOV RDX, RSI
0e1c2000 ffffffff81074297 (03) 48 89c6                  MOV RSI, RAX
0e1c2000 ffffffff8107429a (03) 48 89e5                  MOV RBP, RSP
0e1c2000 ffffffff8107429d (08) 65 8b3c25 68e30000       MOV EDI, GS:[0xe368]
            load    0xffff8800019f9368 0x00000000019f9368 (4)
0e1c2000 ffffffff810742a5 (05) e8 76ffffff              CALL 0xffffffff81074220
            store   0xffff8800019eebc0 0x00000000019eebc0 (8)
0e1c2000 ffffffff81074220 (01) 55                       PUSH RBP
            store   0xffff8800019eebb8 0x00000000019eebb8 (8)
0e1c2000 ffffffff81074221 (03) 48 89e5                  MOV RBP, RSP
0e1c2000 ffffffff81074224 (01) 3e                       DB 0x3e 
0e1c2000 ffffffff81074224 (05) 3e 0fba2a 00             BTS DWORD [RDX], 0x0
            load    0xffff88000cce4908 0x000000000cce4908 (4)
            store   0xffff88000cce4908 0x000000000cce4908 (4)
0e1c2000 ffffffff81074229 (02) 19c9                     SBB ECX, ECX
0e1c2000 ffffffff8107422b (02) 31c0                     XOR EAX, EAX
0e1c2000 ffffffff8107422d (02) 85c9                     TEST ECX, ECX
0e1c2000 ffffffff8107422f (02) 75 31                    JNZ 0xffffffff81074262
0e1c2000 ffffffff81074231 (04) 48 8d42 08               LEA RAX, [RDX+0x8]
0e1c2000 ffffffff81074235 (04) 48 3942 08               CMP [RDX+0x8], RAX
            load    0xffff88000cce4910 0x000000000cce4910 (8)
0e1c2000 ffffffff81074239 (02) 75 29                    JNZ 0xffffffff81074264
0e1c2000 ffffffff8107423b (04) 44 8b4e 20               MOV R9D, [RSI+0x20]
            load    0xffff88000f4027e0 0x000000000f4027e0 (4)
0e1c2000 ffffffff8107423f (03) 45 85c9                  TEST R9D, R9D
0e1c2000 ffffffff81074242 (02) 75 24                    JNZ 0xffffffff81074268
0e1c2000 ffffffff81074244 (03) 48 63ff                  MOVSXD RDI, EDI
0e1c2000 ffffffff81074247 (03) 48 8b06                  MOV RAX, [RSI]
            load    0xffff88000f4027c0 0x000000000f4027c0 (8)
0e1c2000 ffffffff8107424a (03) 48 89d6                  MOV RSI, RDX
0e1c2000 ffffffff8107424d (08) 48 0304fd 20ea8181       ADD RAX, [RDI*8-0x7e7e15e0]
            load    0xffffffff8181ea20 0x000000000181ea20 (8)
0e1c2000 ffffffff81074255 (03) 48 89c7                  MOV RDI, RAX
0e1c2000 ffffffff81074258 (05) e8 33ffffff              CALL 0xffffffff81074190
            store   0xffff8800019eebb0 0x00000000019eebb0 (8)
0e1c2000 ffffffff81074190 (01) 55                       PUSH RBP
            store   0xffff8800019eeba8 0x00000000019eeba8 (8)
0e1c2000 ffffffff81074191 (03) 48 89e5                  MOV RBP, RSP
0e1c2000 ffffffff81074194 (04) 48 83ec 20               SUB RSP, 0x20
0e1c2000 ffffffff81074198 (04) 48 895d e8               MOV [RBP-0x18], RBX
            store   0xffff8800019eeb90 0x00000000019eeb90 (8)
0e1c2000 ffffffff8107419c (03) 48 89fb                  MOV RBX, RDI
0e1c2000 ffffffff8107419f (04) 4c 8965 f0               MOV [RBP-0x10], R12
            store   0xffff8800019eeb98 0x00000000019eeb98 (8)
0e1c2000 ffffffff810741a3 (04) 4c 896d f8               MOV [RBP-0x8], R13
            store   0xffff8800019eeba0 0x00000000019eeba0 (8)
0e1c2000 ffffffff810741a7 (03) 49 89f5                  MOV R13, RSI
0e1c2000 ffffffff810741aa (05) e8 91574b00              CALL 0xffffffff81529940
            store   0xffff8800019eeb80 0x00000000019eeb80 (8)
0e1c2000 ffffffff81529940 (01) 55                       PUSH RBP
            store   0xffff8800019eeb78 0x00000000019eeb78 (8)
0e1c2000 ffffffff81529941 (03) 48 89e5                  MOV RBP, RSP
0e1c2000 ffffffff81529944 (04) 48 83ec 10               SUB RSP, 0x10
0e1c2000 ffffffff81529948 (04) 48 891c24                MOV [RSP], RBX
            store   0xffff8800019eeb68 0x00000000019eeb68 (8)
0e1c2000 ffffffff8152994c (05) 4c 896424 08             MOV [RSP+0x8], R12
            store   0xffff8800019eeb70 0x00000000019eeb70 (8)
0e1c2000 ffffffff81529951 (01) 9c                       PUSHF 
            store   0xffff8800019eeb60 0x00000000019eeb60 (8)
0e1c2000 ffffffff81529952 (01) 58                       POP RAX
            load    0xffff8800019eeb60 0x00000000019eeb60 (8)
0e1c2000 ffffffff81529953 (01) 66                       DB 0x66 
0e1c2000 ffffffff81529954 (01) 66                       DB 0x66 
0e1c2000 ffffffff81529954 (02) 66 90                    NOP 
0e1c2000 ffffffff81529956 (01) 66                       DB 0x66 
0e1c2000 ffffffff81529956 (02) 66 90                    NOP 
0e1c2000 ffffffff81529958 (03) 48 89c3                  MOV RBX, RAX
0e1c2000 ffffffff8152995b (01) fa                       CLI 
0e1c2000 ffffffff8152995c (01) 66                       DB 0x66 
0e1c2000 ffffffff8152995d (01) 66                       DB 0x66 
0e1c2000 ffffffff8152995d (02) 66 90                    NOP 
0e1c2000 ffffffff8152995f (01) 66                       DB 0x66 
0e1c2000 ffffffff81529960 (01) 66                       DB 0x66 
0e1c2000 ffffffff81529960 (02) 66 90                    NOP 
0e1c2000 ffffffff81529962 (03) 48 89de                  MOV RSI, RBX
0e1c2000 ffffffff81529965 (05) e8 a6cab0ff              CALL 0xffffffff81036410
            store   0xffff8800019eeb60 0x00000000019eeb60 (8)
0e1c2000 ffffffff81036410 (01) 55                       PUSH RBP
            store   0xffff8800019eeb58 0x00000000019eeb58 (8)
0e1c2000 ffffffff81036411 (03) 48 89e5                  MOV RBP, RSP
0e1c2000 ffffffff81036414 (05) e8 67ffffff              CALL 0xffffffff81036380
            store   0xffff8800019eeb50 0x00000000019eeb50 (8)
0e1c2000 ffffffff81036380 (01) 55                       PUSH RBP
            store   0xffff8800019eeb48 0x00000000019eeb48 (8)
0e1c2000 ffffffff81036381 (05) b8 00010000              MOV EAX, 0x100
0e1c2000 ffffffff81036386 (03) 48 89e5                  MOV RBP, RSP
0e1c2000 ffffffff81036389 (01) 3e                       DB 0x3e 
0e1c2000 ffffffff81036389 (05) 3e 66 0fc107             XADD [RDI], AX
            load    0xffff880001a03300 0x0000000001a03300 (2)
            store   0xffff880001a03300 0x0000000001a03300 (2)
0e1c2000 ffffffff8103638e (02) 38e0                     CMP AL, AH
0e1c2000 ffffffff81036390 (02) 74 06                    JZ 0xffffffff81036398
0e1c2000 ffffffff81036398 (01) c9                       LEAVE 
            load    0xffff8800019eeb48 0x00000000019eeb48 (8)
0e1c2000 ffffffff81036399 (01) c3                       RET 
            load    0xffff8800019eeb50 0x00000000019eeb50 (8)
0e1c2000 ffffffff81036419 (01) 66                       DB 0x66 
0e1c2000 ffffffff81036419 (02) 66 90                    NOP 
0e1c2000 ffffffff8103641b (01) c9                       LEAVE 
            load    0xffff8800019eeb58 0x00000000019eeb58 (8)
0e1c2000 ffffffff8103641c (01) c3                       RET 
            load    0xffff8800019eeb60 0x00000000019eeb60 (8)
0e1c2000 ffffffff8152996a (01) 66                       DB 0x66 
0e1c2000 ffffffff8152996a (02) 66 90                    NOP 
0e1c2000 ffffffff8152996c (03) 48 89d8                  MOV RAX, RBX
0e1c2000 ffffffff8152996f (05) 4c 8b6424 08             MOV R12, [RSP+0x8]
            load    0xffff8800019eeb70 0x00000000019eeb70 (8)
0e1c2000 ffffffff81529974 (04) 48 8b1c24                MOV RBX, [RSP]
            load    0xffff8800019eeb68 0x00000000019eeb68 (8)
0e1c2000 ffffffff81529978 (01) c9                       LEAVE 
            load    0xffff8800019eeb78 0x00000000019eeb78 (8)
0e1c2000 ffffffff81529979 (01) c3                       RET 
            load    0xffff8800019eeb80 0x00000000019eeb80 (8)
0e1c2000 ffffffff810741af (04) 48 8d53 08               LEA RDX, [RBX+0x8]
0e1c2000 ffffffff810741b3 (03) 49 89c4                  MOV R12, RAX
0e1c2000 ffffffff810741b6 (03) 4c 89ee                  MOV RSI, R13
0e1c2000 ffffffff810741b9 (03) 48 89df                  MOV RDI, RBX
0e1c2000 ffffffff810741bc (05) e8 4ffbffff              CALL 0xffffffff81073d10
            store   0xffff8800019eeb80 0x00000000019eeb80 (8)
0e1c2000 ffffffff81073d10 (01) 55                       PUSH RBP
            store   0xffff8800019eeb78 0x00000000019eeb78 (8)
0e1c2000 ffffffff81073d11 (03) 48 89e5                  MOV RBP, RSP
0e1c2000 ffffffff81073d14 (04) 48 83ec 30               SUB RSP, 0x30
0e1c2000 ffffffff81073d18 (04) 4c 8975 f8               MOV [RBP-0x8], R14
            store   0xffff8800019eeb70 0x00000000019eeb70 (8)
0e1c2000 ffffffff81073d1c (07) 44 8b35 25647a00         MOV R14D, [RIP+0x7a6425]
            load    0xffffffff8181a148 0x000000000181a148 (4)
0e1c2000 ffffffff81073d23 (04) 48 895d e0               MOV [RBP-0x20], RBX
            store   0xffff8800019eeb58 0x00000000019eeb58 (8)
0e1c2000 ffffffff81073d27 (04) 4c 8965 e8               MOV [RBP-0x18], R12
            store   0xffff8800019eeb60 0x00000000019eeb60 (8)
0e1c2000 ffffffff81073d2b (03) 48 89f3                  MOV RBX, RSI
0e1c2000 ffffffff81073d2e (04) 4c 896d f0               MOV [RBP-0x10], R13
            store   0xffff8800019eeb68 0x00000000019eeb68 (8)
0e1c2000 ffffffff81073d32 (03) 49 89fc                  MOV R12, RDI
0e1c2000 ffffffff81073d35 (04) 4c 8b6f 40               MOV R13, [RDI+0x40]
            load    0xffff880001a03340 0x0000000001a03340 (8)
0e1c2000 ffffffff81073d39 (03) 45 85f6                  TEST R14D, R14D
0e1c2000 ffffffff81073d3c (02) 75 56                    JNZ 0xffffffff81073d94
0e1c2000 ffffffff81073d3e (03) 48 8b03                  MOV RAX, [RBX]
            load    0xffff88000cce4908 0x000000000cce4908 (8)
0e1c2000 ffffffff81073d41 (02) a8 01                    TEST AL, 0x1
0e1c2000 ffffffff81073d43 (02) 74 7f                    JZ 0xffffffff81073dc4
0e1c2000 ffffffff81073d45 (03) 48 8b03                  MOV RAX, [RBX]
            load    0xffff88000cce4908 0x000000000cce4908 (8)
0e1c2000 ffffffff81073d48 (03) 83e0 03                  AND EAX, 0x3
0e1c2000 ffffffff81073d4b (03) 4c 09e0                  OR RAX, R12
0e1c2000 ffffffff81073d4e (04) 48 83c8 01               OR RAX, 0x1
0e1c2000 ffffffff81073d52 (03) 48 8903                  MOV [RBX], RAX
            store   0xffff88000cce4908 0x000000000cce4908 (8)
0e1c2000 ffffffff81073d55 (04) 48 8b42 08               MOV RAX, [RDX+0x8]
            load    0xffff880001a03310 0x0000000001a03310 (8)
0e1c2000 ffffffff81073d59 (04) 48 8d4b 08               LEA RCX, [RBX+0x8]
0e1c2000 ffffffff81073d5d (05) 49 8d7c24 18             LEA RDI, [R12+0x18]
0e1c2000 ffffffff81073d62 (05) be 03000000              MOV ESI, 0x3
0e1c2000 ffffffff81073d67 (04) 48 894a 08               MOV [RDX+0x8], RCX
            store   0xffff880001a03310 0x0000000001a03310 (8)
0e1c2000 ffffffff81073d6b (04) 48 8953 08               MOV [RBX+0x8], RDX
            store   0xffff88000cce4910 0x000000000cce4910 (8)
0e1c2000 ffffffff81073d6f (05) ba 01000000              MOV EDX, 0x1
0e1c2000 ffffffff81073d74 (04) 48 8943 10               MOV [RBX+0x10], RAX
            store   0xffff88000cce4918 0x000000000cce4918 (8)
0e1c2000 ffffffff81073d78 (03) 48 8908                  MOV [RAX], RCX
            store   0xffffffff817d21c8 0x00000000017d21c8 (8)
0e1c2000 ffffffff81073d7b (02) 31c9                     XOR ECX, ECX
0e1c2000 ffffffff81073d7d (05) e8 ae6afdff              CALL 0xffffffff8104a830
            store   0xffff8800019eeb40 0x00000000019eeb40 (8)
0e1c2000 ffffffff8104a830 (01) 55                       PUSH RBP
            store   0xffff8800019eeb38 0x00000000019eeb38 (8)
0e1c2000 ffffffff8104a831 (03) 48 89e5                  MOV RBP, RSP
0e1c2000 ffffffff8104a834 (04) 48 83ec 30               SUB RSP, 0x30
0e1c2000 ffffffff8104a838 (04) 48 895d d8               MOV [RBP-0x28], RBX
            store   0xffff8800019eeb10 0x00000000019eeb10 (8)
0e1c2000 ffffffff8104a83c (04) 4c 896d e8               MOV [RBP-0x18], R13
            store   0xffff8800019eeb20 0x00000000019eeb20 (8)
0e1c2000 ffffffff8104a840 (03) 48 89fb                  MOV RBX, RDI
0e1c2000 ffffffff8104a843 (04) 4c 8975 f0               MOV [RBP-0x10], R14
            store   0xffff8800019eeb28 0x00000000019eeb28 (8)
0e1c2000 ffffffff8104a847 (04) 4c 897d f8               MOV [RBP-0x8], R15
            store   0xffff8800019eeb30 0x00000000019eeb30 (8)
0e1c2000 ffffffff8104a84b (03) 41 89f5                  MOV R13D, ESI
0e1c2000 ffffffff8104a84e (03) 49 89cf                  MOV R15, RCX
0e1c2000 ffffffff8104a851 (03) 41 89d6                  MOV R14D, EDX
0e1c2000 ffffffff8104a854 (04) 4c 8965 e0               MOV [RBP-0x20], R12
            store   0xffff8800019eeb18 0x00000000019eeb18 (8)
0e1c2000 ffffffff8104a858 (05) e8 e3f04d00              CALL 0xffffffff81529940
            store   0xffff8800019eeb00 0x00000000019eeb00 (8)
0e1c2000 ffffffff81529940 (01) 55                       PUSH RBP
            store   0xffff8800019eeaf8 0x00000000019eeaf8 (8)
0e1c2000 ffffffff81529941 (03) 48 89e5                  MOV RBP, RSP
0e1c2000 ffffffff81529944 (04) 48 83ec 10               SUB RSP, 0x10
0e1c2000 ffffffff81529948 (04) 48 891c24                MOV [RSP], RBX
            store   0xffff8800019eeae8 0x00000000019eeae8 (8)
0e1c2000 ffffffff8152994c (05) 4c 896424 08             MOV [RSP+0x8], R12
            store   0xffff8800019eeaf0 0x00000000019eeaf0 (8)
0e1c2000 ffffffff81529951 (01) 9c                       PUSHF 
            store   0xffff8800019eeae0 0x00000000019eeae0 (8)
0e1c2000 ffffffff81529952 (01) 58                       POP RAX
            load    0xffff8800019eeae0 0x00000000019eeae0 (8)
0e1c2000 ffffffff81529953 (01) 66                       DB 0x66 
0e1c2000 ffffffff81529954 (01) 66                       DB 0x66 
0e1c2000 ffffffff81529954 (02) 66 90                    NOP 
0e1c2000 ffffffff81529956 (01) 66                       DB 0x66 
0e1c2000 ffffffff81529956 (02) 66 90                    NOP 
0e1c2000 ffffffff81529958 (03) 48 89c3                  MOV RBX, RAX
0e1c2000 ffffffff8152995b (01) fa                       CLI 
0e1c2000 ffffffff8152995c (01) 66                       DB 0x66 
0e1c2000 ffffffff8152995d (01) 66                       DB 0x66 
0e1c2000 ffffffff8152995d (02) 66 90                    NOP 
0e1c2000 ffffffff8152995f (01) 66                       DB 0x66 
0e1c2000 ffffffff81529960 (01) 66                       DB 0x66 
0e1c2000 ffffffff81529960 (02) 66 90                    NOP 
0e1c2000 ffffffff81529962 (03) 48 89de                  MOV RSI, RBX
0e1c2000 ffffffff81529965 (05) e8 a6cab0ff              CALL 0xffffffff81036410
            store   0xffff8800019eeae0 0x00000000019eeae0 (8)
0e1c2000 ffffffff81036410 (01) 55                       PUSH RBP
            store   0xffff8800019eead8 0x00000000019eead8 (8)
0e1c2000 ffffffff81036411 (03) 48 89e5                  MOV RBP, RSP
0e1c2000 ffffffff81036414 (05) e8 67ffffff              CALL 0xffffffff81036380
            store   0xffff8800019eead0 0x00000000019eead0 (8)
0e1c2000 ffffffff81036380 (01) 55                       PUSH RBP
            store   0xffff8800019eeac8 0x00000000019eeac8 (8)
0e1c2000 ffffffff81036381 (05) b8 00010000              MOV EAX, 0x100
0e1c2000 ffffffff81036386 (03) 48 89e5                  MOV RBP, RSP
0e1c2000 ffffffff81036389 (01) 3e                       DB 0x3e 
0e1c2000 ffffffff81036389 (05) 3e 66 0fc107             XADD [RDI], AX
            load    0xffff880001a03318 0x0000000001a03318 (2)
            store   0xffff880001a03318 0x0000000001a03318 (2)
0e1c2000 ffffffff8103638e (02) 38e0                     CMP AL, AH
0e1c2000 ffffffff81036390 (02) 74 06                    JZ 0xffffffff81036398
0e1c2000 ffffffff81036398 (01) c9                       LEAVE 
            load    0xffff8800019eeac8 0x00000000019eeac8 (8)
0e1c2000 ffffffff81036399 (01) c3                       RET 
            load    0xffff8800019eead0 0x00000000019eead0 (8)
0e1c2000 ffffffff81036419 (01) 66                       DB 0x66 
0e1c2000 ffffffff81036419 (02) 66 90                    NOP 
0e1c2000 ffffffff8103641b (01) c9                       LEAVE 
            load    0xffff8800019eead8 0x00000000019eead8 (8)
0e1c2000 ffffffff8103641c (01) c3                       RET 
            load    0xffff8800019eeae0 0x00000000019eeae0 (8)
0e1c2000 ffffffff8152996a (01) 66                       DB 0x66 
0e1c2000 ffffffff8152996a (02) 66 90                    NOP 
0e1c2000 ffffffff8152996c (03) 48 89d8                  MOV RAX, RBX
0e1c2000 ffffffff8152996f (05) 4c 8b6424 08             MOV R12, [RSP+0x8]
            load    0xffff8800019eeaf0 0x00000000019eeaf0 (8)
0e1c2000 ffffffff81529974 (04) 48 8b1c24                MOV RBX, [RSP]
            load    0xffff8800019eeae8 0x00000000019eeae8 (8)
0e1c2000 ffffffff81529978 (01) c9                       LEAVE 
            load    0xffff8800019eeaf8 0x00000000019eeaf8 (8)
0e1c2000 ffffffff81529979 (01) c3                       RET 
            load    0xffff8800019eeb00 0x00000000019eeb00 (8)
0e1c2000 ffffffff8104a85d (03) 4d 89f8                  MOV R8, R15
0e1c2000 ffffffff8104a860 (03) 49 89c4                  MOV R12, RAX
0e1c2000 ffffffff8104a863 (03) 44 89f2                  MOV EDX, R14D
0e1c2000 ffffffff8104a866 (03) 44 89ee                  MOV ESI, R13D
0e1c2000 ffffffff8104a869 (03) 48 89df                  MOV RDI, RBX
0e1c2000 ffffffff8104a86c (02) 31c9                     XOR ECX, ECX
0e1c2000 ffffffff8104a86e (05) e8 3db4ffff              CALL 0xffffffff81045cb0
            store   0xffff8800019eeb00 0x00000000019eeb00 (8)
0e1c2000 ffffffff81045cb0 (01) 55                       PUSH RBP
            store   0xffff8800019eeaf8 0x00000000019eeaf8 (8)
0e1c2000 ffffffff81045cb1 (03) 48 89e5                  MOV RBP, RSP
0e1c2000 ffffffff81045cb4 (02) 41 57                    PUSH R15
            store   0xffff8800019eeaf0 0x00000000019eeaf0 (8)
0e1c2000 ffffffff81045cb6 (03) 41 89cf                  MOV R15D, ECX
0e1c2000 ffffffff81045cb9 (02) 41 56                    PUSH R14
            store   0xffff8800019eeae8 0x00000000019eeae8 (8)
0e1c2000 ffffffff81045cbb (03) 4d 89c6                  MOV R14, R8
0e1c2000 ffffffff81045cbe (02) 41 55                    PUSH R13
            store   0xffff8800019eeae0 0x00000000019eeae0 (8)
0e1c2000 ffffffff81045cc0 (04) 4c 8d6f 08               LEA R13, [RDI+0x8]
0e1c2000 ffffffff81045cc4 (02) 41 54                    PUSH R12
            store   0xffff8800019eead8 0x00000000019eead8 (8)
0e1c2000 ffffffff81045cc6 (01) 53                       PUSH RBX
            store   0xffff8800019eead0 0x00000000019eead0 (8)
0e1c2000 ffffffff81045cc7 (04) 48 83ec 18               SUB RSP, 0x18
0e1c2000 ffffffff81045ccb (03) 8975 cc                  MOV [RBP-0x34], ESI
            store   0xffff8800019eeac4 0x00000000019eeac4 (4)
0e1c2000 ffffffff81045cce (03) 8955 c8                  MOV [RBP-0x38], EDX
            store   0xffff8800019eeac0 0x00000000019eeac0 (4)
0e1c2000 ffffffff81045cd1 (04) 48 8b57 08               MOV RDX, [RDI+0x8]
            load    0xffff880001a03320 0x0000000001a03320 (8)
0e1c2000 ffffffff81045cd5 (04) 48 8d42 e8               LEA RAX, [RDX-0x18]
0e1c2000 ffffffff81045cd9 (03) 49 39d5                  CMP R13, RDX
0e1c2000 ffffffff81045cdc (04) 48 8b58 18               MOV RBX, [RAX+0x18]
            load    0xffff880001a03320 0x0000000001a03320 (8)
0e1c2000 ffffffff81045ce0 (02) 74 44                    JZ 0xffffffff81045d26
0e1c2000 ffffffff81045d26 (04) 48 83c4 18               ADD RSP, 0x18
0e1c2000 ffffffff81045d2a (01) 5b                       POP RBX
            load    0xffff8800019eead0 0x00000000019eead0 (8)
0e1c2000 ffffffff81045d2b (02) 41 5c                    POP R12
            load    0xffff8800019eead8 0x00000000019eead8 (8)
0e1c2000 ffffffff81045d2d (02) 41 5d                    POP R13
            load    0xffff8800019eeae0 0x00000000019eeae0 (8)
0e1c2000 ffffffff81045d2f (02) 41 5e                    POP R14
            load    0xffff8800019eeae8 0x00000000019eeae8 (8)
0e1c2000 ffffffff81045d31 (02) 41 5f                    POP R15
            load    0xffff8800019eeaf0 0x00000000019eeaf0 (8)
0e1c2000 ffffffff81045d33 (01) c9                       LEAVE 
            load    0xffff8800019eeaf8 0x00000000019eeaf8 (8)
0e1c2000 ffffffff81045d34 (01) c3                       RET 
            load    0xffff8800019eeb00 0x00000000019eeb00 (8)
0e1c2000 ffffffff8104a873 (03) 4c 89e6                  MOV RSI, R12
0e1c2000 ffffffff8104a876 (03) 48 89df                  MOV RDI, RBX
0e1c2000 ffffffff8104a879 (05) e8 22f24d00              CALL 0xffffffff81529aa0
            store   0xffff8800019eeb00 0x00000000019eeb00 (8)
0e1c2000 ffffffff81529aa0 (01) 55                       PUSH RBP
            store   0xffff8800019eeaf8 0x00000000019eeaf8 (8)
0e1c2000 ffffffff81529aa1 (03) 48 89e5                  MOV RBP, RSP
0e1c2000 ffffffff81529aa4 (01) 53                       PUSH RBX
            store   0xffff8800019eeaf0 0x00000000019eeaf0 (8)
0e1c2000 ffffffff81529aa5 (03) 48 89f3                  MOV RBX, RSI
0e1c2000 ffffffff81529aa8 (05) e8 13c9b0ff              CALL 0xffffffff810363c0
            store   0xffff8800019eeae8 0x00000000019eeae8 (8)
0e1c2000 ffffffff810363c0 (01) 55                       PUSH RBP
            store   0xffff8800019eeae0 0x00000000019eeae0 (8)
0e1c2000 ffffffff810363c1 (03) 48 89e5                  MOV RBP, RSP
0e1c2000 ffffffff810363c4 (02) fe07                     INC BYTE [RDI]
            load    0xffff880001a03318 0x0000000001a03318 (1)
            store   0xffff880001a03318 0x0000000001a03318 (1)
0e1c2000 ffffffff810363c6 (01) c9                       LEAVE 
            load    0xffff8800019eeae0 0x00000000019eeae0 (8)
0e1c2000 ffffffff810363c7 (01) c3                       RET 
            load    0xffff8800019eeae8 0x00000000019eeae8 (8)
0e1c2000 ffffffff81529aad (01) 66                       DB 0x66 
0e1c2000 ffffffff81529aad (02) 66 90                    NOP 
0e1c2000 ffffffff81529aaf (03) 48 89df                  MOV RDI, RBX
0e1c2000 ffffffff81529ab2 (01) 57                       PUSH RDI
            store   0xffff8800019eeae8 0x00000000019eeae8 (8)
0e1c2000 ffffffff81529ab3 (01) 9d                       POPF 
            load    0xffff8800019eeae8 0x00000000019eeae8 (8)
0e1c2000 ffffffff81529ab4 (01) 66                       DB 0x66 
0e1c2000 ffffffff81529ab5 (01) 66                       DB 0x66 
0e1c2000 ffffffff81529ab5 (02) 66 90                    NOP 
0e1c2000 ffffffff81529ab7 (01) 66                       DB 0x66 
0e1c2000 ffffffff81529ab7 (02) 66 90                    NOP 
0e1c2000 ffffffff81529ab9 (01) 5b                       POP RBX
            load    0xffff8800019eeaf0 0x00000000019eeaf0 (8)
0e1c2000 ffffffff81529aba (01) c9                       LEAVE 
            load    0xffff8800019eeaf8 0x00000000019eeaf8 (8)
0e1c2000 ffffffff81529abb (01) c3                       RET 
            load    0xffff8800019eeb00 0x00000000019eeb00 (8)
0e1c2000 ffffffff8104a87e (04) 48 8b5d d8               MOV RBX, [RBP-0x28]
            load    0xffff8800019eeb10 0x00000000019eeb10 (8)
0e1c2000 ffffffff8104a882 (04) 4c 8b65 e0               MOV R12, [RBP-0x20]
            load    0xffff8800019eeb18 0x00000000019eeb18 (8)
0e1c2000 ffffffff8104a886 (04) 4c 8b6d e8               MOV R13, [RBP-0x18]
            load    0xffff8800019eeb20 0x00000000019eeb20 (8)
0e1c2000 ffffffff8104a88a (04) 4c 8b75 f0               MOV R14, [RBP-0x10]
            load    0xffff8800019eeb28 0x00000000019eeb28 (8)
0e1c2000 ffffffff8104a88e (04) 4c 8b7d f8               MOV R15, [RBP-0x8]
            load    0xffff8800019eeb30 0x00000000019eeb30 (8)
0e1c2000 ffffffff8104a892 (01) c9                       LEAVE 
            load    0xffff8800019eeb38 0x00000000019eeb38 (8)
0e1c2000 ffffffff8104a893 (01) c3                       RET 
            load    0xffff8800019eeb40 0x00000000019eeb40 (8)
0e1c2000 ffffffff81073d82 (04) 48 8b5d e0               MOV RBX, [RBP-0x20]
            load    0xffff8800019eeb58 0x00000000019eeb58 (8)
0e1c2000 ffffffff81073d86 (04) 4c 8b65 e8               MOV R12, [RBP-0x18]
            load    0xffff8800019eeb60 0x00000000019eeb60 (8)
0e1c2000 ffffffff81073d8a (04) 4c 8b6d f0               MOV R13, [RBP-0x10]
            load    0xffff8800019eeb68 0x00000000019eeb68 (8)
0e1c2000 ffffffff81073d8e (04) 4c 8b75 f8               MOV R14, [RBP-0x8]
            load    0xffff8800019eeb70 0x00000000019eeb70 (8)
0e1c2000 ffffffff81073d92 (01) c9                       LEAVE 
            load    0xffff8800019eeb78 0x00000000019eeb78 (8)
0e1c2000 ffffffff81073d93 (01) c3                       RET 
            load    0xffff8800019eeb80 0x00000000019eeb80 (8)
0e1c2000 ffffffff810741c1 (03) 4c 89e6                  MOV RSI, R12
0e1c2000 ffffffff810741c4 (03) 48 89df                  MOV RDI, RBX
0e1c2000 ffffffff810741c7 (05) e8 d4584b00              CALL 0xffffffff81529aa0
            store   0xffff8800019eeb80 0x00000000019eeb80 (8)
0e1c2000 ffffffff81529aa0 (01) 55                       PUSH RBP
            store   0xffff8800019eeb78 0x00000000019eeb78 (8)
0e1c2000 ffffffff81529aa1 (03) 48 89e5                  MOV RBP, RSP
0e1c2000 ffffffff81529aa4 (01) 53                       PUSH RBX
            store   0xffff8800019eeb70 0x00000000019eeb70 (8)
0e1c2000 ffffffff81529aa5 (03) 48 89f3                  MOV RBX, RSI
0e1c2000 ffffffff81529aa8 (05) e8 13c9b0ff              CALL 0xffffffff810363c0
            store   0xffff8800019eeb68 0x00000000019eeb68 (8)
0e1c2000 ffffffff810363c0 (01) 55                       PUSH RBP
            store   0xffff8800019eeb60 0x00000000019eeb60 (8)
0e1c2000 ffffffff810363c1 (03) 48 89e5                  MOV RBP, RSP
0e1c2000 ffffffff810363c4 (02) fe07                     INC BYTE [RDI]
            load    0xffff880001a03300 0x0000000001a03300 (1)
            store   0xffff880001a03300 0x0000000001a03300 (1)
0e1c2000 ffffffff810363c6 (01) c9                       LEAVE 
            load    0xffff8800019eeb60 0x00000000019eeb60 (8)
0e1c2000 ffffffff810363c7 (01) c3                       RET 
            load    0xffff8800019eeb68 0x00000000019eeb68 (8)
0e1c2000 ffffffff81529aad (01) 66                       DB 0x66 
0e1c2000 ffffffff81529aad (02) 66 90                    NOP 
0e1c2000 ffffffff81529aaf (03) 48 89df                  MOV RDI, RBX
0e1c2000 ffffffff81529ab2 (01) 57                       PUSH RDI
            store   0xffff8800019eeb68 0x00000000019eeb68 (8)
0e1c2000 ffffffff81529ab3 (01) 9d                       POPF 
            load    0xffff8800019eeb68 0x00000000019eeb68 (8)
0e1c2000 ffffffff81529ab4 (01) 66                       DB 0x66 
0e1c2000 ffffffff81529ab5 (01) 66                       DB 0x66 
0e1c2000 ffffffff81529ab5 (02) 66 90                    NOP 
0e1c2000 ffffffff81529ab7 (01) 66                       DB 0x66 
0e1c2000 ffffffff81529ab7 (02) 66 90                    NOP 
0e1c2000 ffffffff81529ab9 (01) 5b                       POP RBX
            load    0xffff8800019eeb70 0x00000000019eeb70 (8)
0e1c2000 ffffffff81529aba (01) c9                       LEAVE 
            load    0xffff8800019eeb78 0x00000000019eeb78 (8)
0e1c2000 ffffffff81529abb (01) c3                       RET 
            load    0xffff8800019eeb80 0x00000000019eeb80 (8)
0e1c2000 ffffffff810741cc (04) 48 8b5d e8               MOV RBX, [RBP-0x18]
            load    0xffff8800019eeb90 0x00000000019eeb90 (8)
0e1c2000 ffffffff810741d0 (04) 4c 8b65 f0               MOV R12, [RBP-0x10]
            load    0xffff8800019eeb98 0x00000000019eeb98 (8)
0e1c2000 ffffffff810741d4 (04) 4c 8b6d f8               MOV R13, [RBP-0x8]
            load    0xffff8800019eeba0 0x00000000019eeba0 (8)
0e1c2000 ffffffff810741d8 (01) c9                       LEAVE 
            load    0xffff8800019eeba8 0x00000000019eeba8 (8)
0e1c2000 ffffffff810741d9 (01) c3                       RET 
            load    0xffff8800019eebb0 0x00000000019eebb0 (8)
0e1c2000 ffffffff8107425d (05) b8 01000000              MOV EAX, 0x1
0e1c2000 ffffffff81074262 (01) c9                       LEAVE 
            load    0xffff8800019eebb8 0x00000000019eebb8 (8)
0e1c2000 ffffffff81074263 (01) c3                       RET 
            load    0xffff8800019eebc0 0x00000000019eebc0 (8)
0e1c2000 ffffffff810742aa (01) c9                       LEAVE 
            load    0xffff8800019eebc8 0x00000000019eebc8 (8)
0e1c2000 ffffffff810742ab (01) c3                       RET 
            load    0xffff8800019eebd0 0x00000000019eebd0 (8)
0e1c2000 ffffffff81074355 (01) c9                       LEAVE 
            load    0xffff8800019eebd8 0x00000000019eebd8 (8)
0e1c2000 ffffffff81074356 (01) 66                       DB 0x66 
0e1c2000 ffffffff81074356 (02) 66 90                    NOP 
0e1c2000 ffffffff81074358 (01) c3                       RET 
            load    0xffff8800019eebe0 0x00000000019eebe0 (8)
0e1c2000 ffffffff81074376 (01) c9                       LEAVE 
            load    0xffff8800019eebe8 0x00000000019eebe8 (8)
0e1c2000 ffffffff81074377 (01) c3                       RET 
            load    0xffff8800019eebf0 0x00000000019eebf0 (8)
0e1c2000 ffffffff81301992 (04) 48 83c4 10               ADD RSP, 0x10
0e1c2000 ffffffff81301996 (01) 5b                       POP RBX
            load    0xffff8800019eec08 0x00000000019eec08 (8)
0e1c2000 ffffffff81301997 (02) 41 5c                    POP R12
            load    0xffff8800019eec10 0x00000000019eec10 (8)
0e1c2000 ffffffff81301999 (01) c9                       LEAVE 
            load    0xffff8800019eec18 0x00000000019eec18 (8)
0e1c2000 ffffffff8130199a (01) c3                       RET 
            load    0xffff8800019eec20 0x00000000019eec20 (8)
0e1c2000 ffffffff81301c1d (02) eb bf                    JMP 0xffffffff81301bde
0e1c2000 ffffffff81301bde (04) 48 8b1c24                MOV RBX, [RSP]
            load    0xffff8800019eec28 0x00000000019eec28 (8)
0e1c2000 ffffffff81301be2 (05) 4c 8b6424 08             MOV R12, [RSP+0x8]
            load    0xffff8800019eec30 0x00000000019eec30 (8)
0e1c2000 ffffffff81301be7 (01) c9                       LEAVE 
            load    0xffff8800019eec38 0x00000000019eec38 (8)
0e1c2000 ffffffff81301be8 (01) c3                       RET 
            load    0xffff8800019eec40 0x00000000019eec40 (8)
0e1c2000 ffffffff81302210 (02) eb bc                    JMP 0xffffffff813021ce
0e1c2000 ffffffff813021ce (04) 48 83c4 08               ADD RSP, 0x8
0e1c2000 ffffffff813021d2 (01) 5b                       POP RBX
            load    0xffff8800019eec50 0x00000000019eec50 (8)
0e1c2000 ffffffff813021d3 (01) c9                       LEAVE 
            load    0xffff8800019eec58 0x00000000019eec58 (8)
0e1c2000 ffffffff813021d4 (01) c3                       RET 
            load    0xffff8800019eec60 0x00000000019eec60 (8)
0e1c2000 ffffffff8130224e (04) 48 8b1c24                MOV RBX, [RSP]
            load    0xffff8800019eec68 0x00000000019eec68 (8)
0e1c2000 ffffffff81302252 (05) 4c 8b6424 08             MOV R12, [RSP+0x8]
            load    0xffff8800019eec70 0x00000000019eec70 (8)
0e1c2000 ffffffff81302257 (01) c9                       LEAVE 
            load    0xffff8800019eec78 0x00000000019eec78 (8)
0e1c2000 ffffffff81302258 (01) c3                       RET 
            load    0xffff8800019eec80 0x00000000019eec80 (8)
0e1c2000 ffffffff813027a6 (07) 48 8b05 4bec4c00         MOV RAX, [RIP+0x4cec4b]
            load    0xffffffff817d13f8 0x00000000017d13f8 (8)
0e1c2000 ffffffff813027ad (04) 48 8d55 b0               LEA RDX, [RBP-0x50]
0e1c2000 ffffffff813027b1 (05) be 05000000              MOV ESI, 0x5
0e1c2000 ffffffff813027b6 (07) 48 c7c7 400d9d81         MOV RDI, -0x7e62f2c0
0e1c2000 ffffffff813027bd (04) 0fb640 02                MOVZX EAX, BYTE [RAX+0x2]
            load    0xffffffff819d0c02 0x00000000019d0c02 (1)
0e1c2000 ffffffff813027c1 (03) c0e8 02                  SHR AL, 0x2
0e1c2000 ffffffff813027c4 (03) 83e0 0f                  AND EAX, 0xf
0e1c2000 ffffffff813027c7 (03) 8945 c0                  MOV [RBP-0x40], EAX
            store   0xffff8800019eeca8 0x00000000019eeca8 (4)
0e1c2000 ffffffff813027ca (05) e8 c1a02200              CALL 0xffffffff8152c890
            store   0xffff8800019eec80 0x00000000019eec80 (8)
0e1c2000 ffffffff8152c890 (01) 55                       PUSH RBP
            store   0xffff8800019eec78 0x00000000019eec78 (8)
0e1c2000 ffffffff8152c891 (04) 48 83c7 08               ADD RDI, 0x8
0e1c2000 ffffffff8152c895 (03) 45 31c0                  XOR R8D, R8D
0e1c2000 ffffffff8152c898 (05) b9 ffffffff              MOV ECX, -0x1
0e1c2000 ffffffff8152c89d (03) 48 89e5                  MOV RBP, RSP
0e1c2000 ffffffff8152c8a0 (05) e8 4bffffff              CALL 0xffffffff8152c7f0
            store   0xffff8800019eec70 0x00000000019eec70 (8)
0e1c2000 ffffffff8152c7f0 (01) 55                       PUSH RBP
            store   0xffff8800019eec68 0x00000000019eec68 (8)
0e1c2000 ffffffff8152c7f1 (03) 48 89e5                  MOV RBP, RSP
0e1c2000 ffffffff8152c7f4 (02) 41 57                    PUSH R15
            store   0xffff8800019eec60 0x00000000019eec60 (8)
0e1c2000 ffffffff8152c7f6 (02) 41 56                    PUSH R14
            store   0xffff8800019eec58 0x00000000019eec58 (8)
0e1c2000 ffffffff8152c7f8 (03) 4d 89c6                  MOV R14, R8
0e1c2000 ffffffff8152c7fb (02) 41 55                    PUSH R13
            store   0xffff8800019eec50 0x00000000019eec50 (8)
0e1c2000 ffffffff8152c7fd (03) 41 89cd                  MOV R13D, ECX
0e1c2000 ffffffff8152c800 (02) 41 54                    PUSH R12
            store   0xffff8800019eec48 0x00000000019eec48 (8)
0e1c2000 ffffffff8152c802 (03) 49 89d4                  MOV R12, RDX
0e1c2000 ffffffff8152c805 (01) 53                       PUSH RBX
            store   0xffff8800019eec40 0x00000000019eec40 (8)
0e1c2000 ffffffff8152c806 (03) 48 89f3                  MOV RBX, RSI
0e1c2000 ffffffff8152c809 (04) 48 83ec 08               SUB RSP, 0x8
0e1c2000 ffffffff8152c80d (03) 45 85ed                  TEST R13D, R13D
0e1c2000 ffffffff8152c810 (03) 48 8b0f                  MOV RCX, [RDI]
            load    0xffffffff819d0d48 0x00000000019d0d48 (8)
0e1c2000 ffffffff8152c813 (02) 75 0b                    JNZ 0xffffffff8152c820
0e1c2000 ffffffff8152c820 (03) 48 85c9                  TEST RCX, RCX
0e1c2000 ffffffff8152c823 (02) 74 f0                    JZ 0xffffffff8152c815
0e1c2000 ffffffff8152c815 (02) 31c0                     XOR EAX, EAX
0e1c2000 ffffffff8152c817 (02) eb 35                    JMP 0xffffffff8152c84e
0e1c2000 ffffffff8152c84e (04) 48 83c4 08               ADD RSP, 0x8
0e1c2000 ffffffff8152c852 (01) 5b                       POP RBX
            load    0xffff8800019eec40 0x00000000019eec40 (8)
0e1c2000 ffffffff8152c853 (02) 41 5c                    POP R12
            load    0xffff8800019eec48 0x00000000019eec48 (8)
0e1c2000 ffffffff8152c855 (02) 41 5d                    POP R13
            load    0xffff8800019eec50 0x00000000019eec50 (8)
0e1c2000 ffffffff8152c857 (02) 41 5e                    POP R14
            load    0xffff8800019eec58 0x00000000019eec58 (8)
0e1c2000 ffffffff8152c859 (02) 41 5f                    POP R15
            load    0xffff8800019eec60 0x00000000019eec60 (8)
0e1c2000 ffffffff8152c85b (01) c9                       LEAVE 
            load    0xffff8800019eec68 0x00000000019eec68 (8)
0e1c2000 ffffffff8152c85c (01) c3                       RET 
            load    0xffff8800019eec70 0x00000000019eec70 (8)
0e1c2000 ffffffff8152c8a5 (01) c9                       LEAVE 
            load    0xffff8800019eec78 0x00000000019eec78 (8)
0e1c2000 ffffffff8152c8a6 (01) c3                       RET 
            load    0xffff8800019eec80 0x00000000019eec80 (8)
0e1c2000 ffffffff813027cf (04) 41 80ff 0c               CMP R15B, 0xc
0e1c2000 ffffffff813027d3 (02) 74 0b                    JZ 0xffffffff813027e0
0e1c2000 ffffffff813027d5 (07) 48 8b05 1cec4c00         MOV RAX, [RIP+0x4cec1c]
            load    0xffffffff817d13f8 0x00000000017d13f8 (8)
0e1c2000 ffffffff813027dc (04) c640 01 00               MOV BYTE [RAX+0x1], 0x0
            store   0xffffffff819d0c01 0x00000000019d0c01 (1)
0e1c2000 ffffffff813027e0 (04) 48 8b5d d8               MOV RBX, [RBP-0x28]
            load    0xffff8800019eecc0 0x00000000019eecc0 (8)
0e1c2000 ffffffff813027e4 (04) 4c 8b65 e0               MOV R12, [RBP-0x20]
            load    0xffff8800019eecc8 0x00000000019eecc8 (8)
0e1c2000 ffffffff813027e8 (04) 4c 8b6d e8               MOV R13, [RBP-0x18]
            load    0xffff8800019eecd0 0x00000000019eecd0 (8)
0e1c2000 ffffffff813027ec (04) 4c 8b75 f0               MOV R14, [RBP-0x10]
            load    0xffff8800019eecd8 0x00000000019eecd8 (8)
0e1c2000 ffffffff813027f0 (04) 4c 8b7d f8               MOV R15, [RBP-0x8]
            load    0xffff8800019eece0 0x00000000019eece0 (8)
0e1c2000 ffffffff813027f4 (01) c9                       LEAVE 
            load    0xffff8800019eece8 0x00000000019eece8 (8)
0e1c2000 ffffffff813027f5 (01) c3                       RET 
            load    0xffff8800019eecf0 0x00000000019eecf0 (8)
0e1c2000 ffffffff81302b3b (01) 3e                       DB 0x3e 
0e1c2000 ffffffff81302b3b (09) 3e 0fba2d 04e84c00 00    BTS DWORD [RIP+0x4ce804], 0x0
            load    0xffffffff817d1348 0x00000000017d1348 (4)
            store   0xffffffff817d1348 0x00000000017d1348 (4)
0e1c2000 ffffffff81302b44 (02) 19c0                     SBB EAX, EAX
0e1c2000 ffffffff81302b46 (02) 85c0                     TEST EAX, EAX
0e1c2000 ffffffff81302b48 (02) 75 0c                    JNZ 0xffffffff81302b56
0e1c2000 ffffffff81302b56 (10) c705 04fe6c00 01000000   MOV DWORD [RIP+0x6cfe04], 0x1
            store   0xffffffff819d2964 0x00000000019d2964 (4)
0e1c2000 ffffffff81302b60 (05) e8 2b220000              CALL 0xffffffff81304d90
            store   0xffff8800019eecf0 0x00000000019eecf0 (8)
0e1c2000 ffffffff81304d90 (01) 55                       PUSH RBP
            store   0xffff8800019eece8 0x00000000019eece8 (8)
0e1c2000 ffffffff81304d91 (07) 48 c7c7 c0217d81         MOV RDI, -0x7e82de40
0e1c2000 ffffffff81304d98 (03) 48 89e5                  MOV RBP, RSP
0e1c2000 ffffffff81304d9b (05) e8 10f5d6ff              CALL 0xffffffff810742b0
            store   0xffff8800019eece0 0x00000000019eece0 (8)
0e1c2000 ffffffff810742b0 (01) 55                       PUSH RBP
            store   0xffff8800019eecd8 0x00000000019eecd8 (8)
0e1c2000 ffffffff810742b1 (03) 48 89fe                  MOV RSI, RDI
0e1c2000 ffffffff810742b4 (07) 48 8b3d ddad7a00         MOV RDI, [RIP+0x7aaddd]
            load    0xffffffff8181f098 0x000000000181f098 (8)
0e1c2000 ffffffff810742bb (03) 48 89e5                  MOV RBP, RSP
0e1c2000 ffffffff810742be (05) e8 cdffffff              CALL 0xffffffff81074290
            store   0xffff8800019eecd0 0x00000000019eecd0 (8)
0e1c2000 ffffffff81074290 (01) 55                       PUSH RBP
            store   0xffff8800019eecc8 0x00000000019eecc8 (8)
0e1c2000 ffffffff81074291 (03) 48 89f8                  MOV RAX, RDI
0e1c2000 ffffffff81074294 (03) 48 89f2                  MOV RDX, RSI
